---
triple:          'arm64-apple-darwin'
binary-path:     macos_compiler
relocations:
  - { offsetInCU: 0x3F, offset: 0x3F, size: 0x8, addend: 0x0, symName: __ZL13funcReturnMap, symObjAddr: 0x18B7B0, symBinAddr: 0x100080010, symSize: 0x0 }
  - { offsetInCU: 0x163A6, offset: 0x163A6, size: 0x8, addend: 0x0, symName: __ZNSt3__1L19piecewise_constructE, symObjAddr: 0x29779, symBinAddr: 0x100076CEE, symSize: 0x0 }
  - { offsetInCU: 0x1867D, offset: 0x1867D, size: 0x8, addend: 0x0, symName: __ZNSt3__17advanceB7v160006INS_15__list_iteratorIPN6LLVMIR5L_stmEPvEEllvEEvRT_T0_, symObjAddr: 0xB398, symBinAddr: 0x10000D990, symSize: 0x50 }
  - { offsetInCU: 0x2529C, offset: 0x2529C, size: 0x8, addend: 0x0, symName: __ZNSt3__1neB7v160006IPP10Func_localEEbRKNS_11__wrap_iterIT_EES8_, symObjAddr: 0x3A08, symBinAddr: 0x100006000, symSize: 0x34 }
  - { offsetInCU: 0x252DF, offset: 0x252DF, size: 0x8, addend: 0x0, symName: __ZNSt3__1neB7v160006IPPN6LLVMIR6L_funcEEEbRKNS_11__wrap_iterIT_EES9_, symObjAddr: 0x3E58, symBinAddr: 0x100006450, symSize: 0x34 }
  - { offsetInCU: 0x291B6, offset: 0x291B6, size: 0x8, addend: 0x0, symName: __ZNSt3__1neB7v160006IPP18aA_programElement_EEbRKNS_11__wrap_iterIT_EES8_, symObjAddr: 0x4B1C, symBinAddr: 0x100007114, symSize: 0x34 }
  - { offsetInCU: 0x291F9, offset: 0x291F9, size: 0x8, addend: 0x0, symName: __ZNSt3__1neB7v160006IPP12aA_rightVal_EEbRKNS_11__wrap_iterIT_EES8_, symObjAddr: 0x4D14, symBinAddr: 0x10000730C, symSize: 0x34 }
  - { offsetInCU: 0x2923C, offset: 0x2923C, size: 0x8, addend: 0x0, symName: __ZNSt3__1neB7v160006IPP11aA_varDecl_EEbRKNS_11__wrap_iterIT_EES8_, symObjAddr: 0x4E0C, symBinAddr: 0x100007404, symSize: 0x34 }
  - { offsetInCU: 0x2927F, offset: 0x2927F, size: 0x8, addend: 0x0, symName: __ZNSt3__1eqB7v160006ERKNS_19__hash_map_iteratorINS_15__hash_iteratorIPNS_11__hash_nodeINS_17__hash_value_typeINS_12basic_stringIcNS_11char_traitsIcEENS_9allocatorIcEEEEN6LLVMIR8FuncTypeEEEPvEEEEEESJ_, symObjAddr: 0x5020, symBinAddr: 0x100007618, symSize: 0x30 }
  - { offsetInCU: 0x292BC, offset: 0x292BC, size: 0x8, addend: 0x0, symName: __ZNSt3__1neB7v160006IPP17aA_codeBlockStmt_EEbRKNS_11__wrap_iterIT_EES8_, symObjAddr: 0x5CA8, symBinAddr: 0x1000082A0, symSize: 0x34 }
  - { offsetInCU: 0x292FF, offset: 0x292FF, size: 0x8, addend: 0x0, symName: __ZNSt3__1neB7v160006ERKNS_15__list_iteratorIPN6LLVMIR5L_stmEPvEES7_, symObjAddr: 0x8B1C, symBinAddr: 0x10000B114, symSize: 0x34 }
  - { offsetInCU: 0x2933C, offset: 0x2933C, size: 0x8, addend: 0x0, symName: __ZNSt3__1neB7v160006ERKNS_15__list_iteratorIPN6LLVMIR7L_blockEPvEES7_, symObjAddr: 0x8E94, symBinAddr: 0x10000B48C, symSize: 0x34 }
  - { offsetInCU: 0x29379, offset: 0x29379, size: 0x8, addend: 0x0, symName: __ZNSt3__14nextB7v160006INS_15__list_iteratorIPN6LLVMIR5L_stmEPvEEEENS_9enable_ifIXsr25__is_cpp17_input_iteratorIT_EE5valueES8_E4typeES8_NS_15iterator_traitsIS8_E15difference_typeE, symObjAddr: 0x8EF4, symBinAddr: 0x10000B4EC, symSize: 0x50 }
  - { offsetInCU: 0x293BC, offset: 0x293BC, size: 0x8, addend: 0x0, symName: __ZNSt3__1neB7v160006ERKNS_19__hash_map_iteratorINS_15__hash_iteratorIPNS_11__hash_nodeINS_17__hash_value_typeINS_12basic_stringIcNS_11char_traitsIcEENS_9allocatorIcEEEEP9Temp_tempEEPvEEEEEESJ_, symObjAddr: 0x9184, symBinAddr: 0x10000B77C, symSize: 0x30 }
  - { offsetInCU: 0x293F9, offset: 0x293F9, size: 0x8, addend: 0x0, symName: __ZNSt3__1neB7v160006ERKNS_19__hash_map_iteratorINS_15__hash_iteratorIPNS_11__hash_nodeINS_17__hash_value_typeINS_12basic_stringIcNS_11char_traitsIcEENS_9allocatorIcEEEEP9Name_nameEEPvEEEEEESJ_, symObjAddr: 0x922C, symBinAddr: 0x10000B824, symSize: 0x30 }
  - { offsetInCU: 0x29436, offset: 0x29436, size: 0x8, addend: 0x0, symName: __ZNSt3__118__debug_db_erase_cB7v160006INS_10__list_impIPN6LLVMIR5L_stmENS_9allocatorIS4_EEEEEEvPT_, symObjAddr: 0x94A8, symBinAddr: 0x10000BAA0, symSize: 0x10 }
  - { offsetInCU: 0x29467, offset: 0x29467, size: 0x8, addend: 0x0, symName: __ZNSt3__125__debug_db_invalidate_allB7v160006INS_10__list_impIPN6LLVMIR5L_stmENS_9allocatorIS4_EEEEEEvPT_, symObjAddr: 0x9634, symBinAddr: 0x10000BC2C, symSize: 0x10 }
  - { offsetInCU: 0x294CB, offset: 0x294CB, size: 0x8, addend: 0x0, symName: __ZNSt3__119__libcpp_deallocateB7v160006EPvmm, symObjAddr: 0x97A4, symBinAddr: 0x10000BD9C, symSize: 0x60 }
  - { offsetInCU: 0x29530, offset: 0x29530, size: 0x8, addend: 0x0, symName: __ZNSt3__124__is_overaligned_for_newB7v160006Em, symObjAddr: 0x9804, symBinAddr: 0x10000BDFC, symSize: 0x20 }
  - { offsetInCU: 0x2955E, offset: 0x2955E, size: 0x8, addend: 0x0, symName: __ZNSt3__127__do_deallocate_handle_sizeB7v160006IJSt11align_val_tEEEvPvmDpT_, symObjAddr: 0x9824, symBinAddr: 0x10000BE1C, symSize: 0x30 }
  - { offsetInCU: 0x295B1, offset: 0x295B1, size: 0x8, addend: 0x0, symName: __ZNSt3__127__do_deallocate_handle_sizeB7v160006IJEEEvPvmDpT_, symObjAddr: 0x9854, symBinAddr: 0x10000BE4C, symSize: 0x28 }
  - { offsetInCU: 0x295EF, offset: 0x295EF, size: 0x8, addend: 0x0, symName: __ZNSt3__124__libcpp_operator_deleteB7v160006IJPvSt11align_val_tEEEvDpT_, symObjAddr: 0x987C, symBinAddr: 0x10000BE74, symSize: 0x2C }
  - { offsetInCU: 0x29638, offset: 0x29638, size: 0x8, addend: 0x0, symName: __ZNSt3__124__libcpp_operator_deleteB7v160006IJPvEEEvDpT_, symObjAddr: 0x98A8, symBinAddr: 0x10000BEA0, symSize: 0x24 }
  - { offsetInCU: 0x2966D, offset: 0x2966D, size: 0x8, addend: 0x0, symName: __ZNSt3__1eqB7v160006IPP10Func_localEEbRKNS_11__wrap_iterIT_EES8_, symObjAddr: 0x98CC, symBinAddr: 0x10000BEC4, symSize: 0x48 }
  - { offsetInCU: 0x296B0, offset: 0x296B0, size: 0x8, addend: 0x0, symName: __ZNSt3__1eqB7v160006IPPN6LLVMIR6L_funcEEEbRKNS_11__wrap_iterIT_EES9_, symObjAddr: 0x992C, symBinAddr: 0x10000BF24, symSize: 0x48 }
  - { offsetInCU: 0x29726, offset: 0x29726, size: 0x8, addend: 0x0, symName: __ZNSt3__1eqB7v160006IPP18aA_programElement_EEbRKNS_11__wrap_iterIT_EES8_, symObjAddr: 0x9E40, symBinAddr: 0x10000C438, symSize: 0x48 }
  - { offsetInCU: 0x29769, offset: 0x29769, size: 0x8, addend: 0x0, symName: __ZNSt3__1eqB7v160006IPP12aA_rightVal_EEbRKNS_11__wrap_iterIT_EES8_, symObjAddr: 0x9EE8, symBinAddr: 0x10000C4E0, symSize: 0x48 }
  - { offsetInCU: 0x297AC, offset: 0x297AC, size: 0x8, addend: 0x0, symName: __ZNSt3__119__debug_db_insert_cB7v160006INS_13unordered_mapINS_12basic_stringIcNS_11char_traitsIcEENS_9allocatorIcEEEE10MemberInfoNS_4hashIS7_EENS_8equal_toIS7_EENS5_INS_4pairIKS7_S8_EEEEEEEEvPT_, symObjAddr: 0xA008, symBinAddr: 0x10000C600, symSize: 0x10 }
  - { offsetInCU: 0x297DD, offset: 0x297DD, size: 0x8, addend: 0x0, symName: __ZNSt3__1eqB7v160006IPP11aA_varDecl_EEbRKNS_11__wrap_iterIT_EES8_, symObjAddr: 0xA60C, symBinAddr: 0x10000CC04, symSize: 0x48 }
  - { offsetInCU: 0x29820, offset: 0x29820, size: 0x8, addend: 0x0, symName: __ZNSt3__118__debug_db_erase_cB7v160006INS_12__hash_tableINS_17__hash_value_typeINS_12basic_stringIcNS_11char_traitsIcEENS_9allocatorIcEEEE10MemberInfoEENS_22__unordered_map_hasherIS8_SA_NS_4hashIS8_EENS_8equal_toIS8_EELb1EEENS_21__unordered_map_equalIS8_SA_SF_SD_Lb1EEENS6_ISA_EEEEEEvPT_, symObjAddr: 0xA8BC, symBinAddr: 0x10000CEB4, symSize: 0x10 }
  - { offsetInCU: 0x29884, offset: 0x29884, size: 0x8, addend: 0x0, symName: __ZNSt3__17launderB7v160006INS_4pairIKNS_12basic_stringIcNS_11char_traitsIcEENS_9allocatorIcEEEE10MemberInfoEEEEPT_SC_, symObjAddr: 0xAA98, symBinAddr: 0x10000D090, symSize: 0x24 }
  - { offsetInCU: 0x298BB, offset: 0x298BB, size: 0x8, addend: 0x0, symName: __ZNSt3__19__launderB7v160006INS_4pairIKNS_12basic_stringIcNS_11char_traitsIcEENS_9allocatorIcEEEE10MemberInfoEEEEPT_SC_, symObjAddr: 0xAABC, symBinAddr: 0x10000D0B4, symSize: 0x14 }
  - { offsetInCU: 0x298F2, offset: 0x298F2, size: 0x8, addend: 0x0, symName: __ZNSt3__1eqB7v160006IPP17aA_codeBlockStmt_EEbRKNS_11__wrap_iterIT_EES8_, symObjAddr: 0xADF0, symBinAddr: 0x10000D3E8, symSize: 0x48 }
  - { offsetInCU: 0x29935, offset: 0x29935, size: 0x8, addend: 0x0, symName: __ZNSt3__118__debug_db_erase_cB7v160006INS_10__list_impIPN6LLVMIR7L_blockENS_9allocatorIS4_EEEEEEvPT_, symObjAddr: 0xB0D0, symBinAddr: 0x10000D6C8, symSize: 0x10 }
  - { offsetInCU: 0x29966, offset: 0x29966, size: 0x8, addend: 0x0, symName: __ZNSt3__125__debug_db_invalidate_allB7v160006INS_10__list_impIPN6LLVMIR7L_blockENS_9allocatorIS4_EEEEEEvPT_, symObjAddr: 0xB250, symBinAddr: 0x10000D848, symSize: 0x10 }
  - { offsetInCU: 0x299CA, offset: 0x299CA, size: 0x8, addend: 0x0, symName: __ZNSt3__121__convert_to_integralB7v160006El, symObjAddr: 0xB3E8, symBinAddr: 0x10000D9E0, symSize: 0x14 }
  - { offsetInCU: 0x299F6, offset: 0x299F6, size: 0x8, addend: 0x0, symName: __ZNSt3__19__advanceB7v160006INS_15__list_iteratorIPN6LLVMIR5L_stmEPvEEEEvRT_NS_15iterator_traitsIS7_E15difference_typeENS_26bidirectional_iterator_tagE, symObjAddr: 0xB3FC, symBinAddr: 0x10000D9F4, symSize: 0xA4 }
  - { offsetInCU: 0x29A3F, offset: 0x29A3F, size: 0x8, addend: 0x0, symName: __ZNSt3__119__debug_db_insert_cB7v160006INS_12basic_stringIcNS_11char_traitsIcEENS_9allocatorIcEEEEEEvPT_, symObjAddr: 0xB550, symBinAddr: 0x10000DB48, symSize: 0x10 }
  - { offsetInCU: 0x29A70, offset: 0x29A70, size: 0x8, addend: 0x0, symName: __ZNSt3__122__make_exception_guardB7v160006INS_6vectorIP9Temp_tempNS_9allocatorIS3_EEE16__destroy_vectorEEENS_28__exception_guard_exceptionsIT_EES9_, symObjAddr: 0xB7E4, symBinAddr: 0x10000DDDC, symSize: 0x40 }
  - { offsetInCU: 0x29AA5, offset: 0x29AA5, size: 0x8, addend: 0x0, symName: __ZNSt3__119__debug_db_insert_cB7v160006INS_6vectorIP9Temp_tempNS_9allocatorIS3_EEEEEEvPT_, symObjAddr: 0xB858, symBinAddr: 0x10000DE50, symSize: 0x10 }
  - { offsetInCU: 0x29AD6, offset: 0x29AD6, size: 0x8, addend: 0x0, symName: __ZNSt3__119__allocate_at_leastB7v160006INS_9allocatorIP9Temp_tempEEEENS_19__allocation_resultINS_16allocator_traitsIT_E7pointerEEERS7_m, symObjAddr: 0xBBB4, symBinAddr: 0x10000E1AC, symSize: 0x40 }
  - { offsetInCU: 0x29B19, offset: 0x29B19, size: 0x8, addend: 0x0, symName: __ZNSt3__13minB7v160006ImEERKT_S3_S3_, symObjAddr: 0xBCF0, symBinAddr: 0x10000E2E8, symSize: 0x2C }
  - { offsetInCU: 0x29D46, offset: 0x29D46, size: 0x8, addend: 0x0, symName: __ZNSt3__13minB7v160006ImNS_6__lessImmEEEERKT_S5_S5_T0_, symObjAddr: 0xBD54, symBinAddr: 0x10000E34C, symSize: 0x54 }
  - { offsetInCU: 0x29DDB, offset: 0x29DDB, size: 0x8, addend: 0x0, symName: __ZNSt3__120__throw_length_errorB7v160006EPKc, symObjAddr: 0xBDF8, symBinAddr: 0x10000E3F0, symSize: 0x64 }
  - { offsetInCU: 0x29E03, offset: 0x29E03, size: 0x8, addend: 0x0, symName: __ZNSt3__117__libcpp_allocateB7v160006Emm, symObjAddr: 0xBF68, symBinAddr: 0x10000E560, symSize: 0x60 }
  - { offsetInCU: 0x29E5D, offset: 0x29E5D, size: 0x8, addend: 0x0, symName: __ZNSt3__121__libcpp_operator_newB7v160006IJmSt11align_val_tEEEPvDpT_, symObjAddr: 0xBFC8, symBinAddr: 0x10000E5C0, symSize: 0x2C }
  - { offsetInCU: 0x29EAA, offset: 0x29EAA, size: 0x8, addend: 0x0, symName: __ZNSt3__121__libcpp_operator_newB7v160006IJmEEEPvDpT_, symObjAddr: 0xBFF4, symBinAddr: 0x10000E5EC, symSize: 0x24 }
  - { offsetInCU: 0x29EE3, offset: 0x29EE3, size: 0x8, addend: 0x0, symName: __ZNSt3__112__to_addressB7v160006IP9Temp_tempEEPT_S4_, symObjAddr: 0xC110, symBinAddr: 0x10000E708, symSize: 0x14 }
  - { offsetInCU: 0x29F18, offset: 0x29F18, size: 0x8, addend: 0x0, symName: __ZNSt3__130__uninitialized_allocator_copyB7v160006INS_9allocatorIP9Temp_tempEEPS3_S5_S5_EET2_RT_T0_T1_S6_, symObjAddr: 0xC1C0, symBinAddr: 0x10000E7B8, symSize: 0xF4 }
  - { offsetInCU: 0x29FB6, offset: 0x29FB6, size: 0x8, addend: 0x0, symName: __ZNSt3__122__make_exception_guardB7v160006INS_29_AllocatorDestroyRangeReverseINS_9allocatorIP9Temp_tempEEPS4_EEEENS_28__exception_guard_exceptionsIT_EES9_, symObjAddr: 0xC324, symBinAddr: 0x10000E91C, symSize: 0x4C }
  - { offsetInCU: 0x29FEC, offset: 0x29FEC, size: 0x8, addend: 0x0, symName: __ZNSt3__119__allocator_destroyB7v160006INS_9allocatorIP9Temp_tempEENS_16reverse_iteratorIPS3_EES7_EEvRT_T0_T1_, symObjAddr: 0xC5AC, symBinAddr: 0x10000EBA4, symSize: 0x70 }
  - { offsetInCU: 0x2A04F, offset: 0x2A04F, size: 0x8, addend: 0x0, symName: __ZNSt3__1neB7v160006IPP9Temp_tempS3_EEbRKNS_16reverse_iteratorIT_EERKNS4_IT0_EE, symObjAddr: 0xC650, symBinAddr: 0x10000EC48, symSize: 0x48 }
  - { offsetInCU: 0x2A09B, offset: 0x2A09B, size: 0x8, addend: 0x0, symName: __ZNSt3__112__to_addressB7v160006INS_16reverse_iteratorIPP9Temp_tempEEvEENS_5decayIDTclsr19__to_address_helperIT_EE6__callclsr3stdE7declvalIRKS7_EEEEE4typeES9_, symObjAddr: 0xC6C4, symBinAddr: 0x10000ECBC, symSize: 0x24 }
  - { offsetInCU: 0x2A0FA, offset: 0x2A0FA, size: 0x8, addend: 0x0, symName: __ZNSt3__118__debug_db_erase_cB7v160006INS_6vectorIP9Temp_tempNS_9allocatorIS3_EEEEEEvPT_, symObjAddr: 0xC9A4, symBinAddr: 0x10000EF9C, symSize: 0x10 }
  - { offsetInCU: 0x2A12B, offset: 0x2A12B, size: 0x8, addend: 0x0, symName: __ZNSt3__119__debug_db_insert_cB7v160006INS_4listIPN6LLVMIR5L_stmENS_9allocatorIS4_EEEEEEvPT_, symObjAddr: 0xCC50, symBinAddr: 0x10000F248, symSize: 0x10 }
  - { offsetInCU: 0x2A15C, offset: 0x2A15C, size: 0x8, addend: 0x0, symName: __ZNSt3__1neB7v160006ERKNS_21__list_const_iteratorIPN6LLVMIR5L_stmEPvEES7_, symObjAddr: 0xCCB8, symBinAddr: 0x10000F2B0, symSize: 0x34 }
  - { offsetInCU: 0x2A199, offset: 0x2A199, size: 0x8, addend: 0x0, symName: __ZNSt3__1eqB7v160006ERKNS_21__list_const_iteratorIPN6LLVMIR5L_stmEPvEES7_, symObjAddr: 0xCF4C, symBinAddr: 0x10000F544, symSize: 0x30 }
  - { offsetInCU: 0x2A1D6, offset: 0x2A1D6, size: 0x8, addend: 0x0, symName: __ZNSt3__119__debug_db_insert_cB7v160006INS_13unordered_mapINS_12basic_stringIcNS_11char_traitsIcEENS_9allocatorIcEEEEN6LLVMIR8FuncTypeENS_4hashIS7_EENS_8equal_toIS7_EENS5_INS_4pairIKS7_S9_EEEEEEEEvPT_, symObjAddr: 0xD028, symBinAddr: 0x10000F620, symSize: 0x10 }
  - { offsetInCU: 0x2A207, offset: 0x2A207, size: 0x8, addend: 0x0, symName: __ZNSt3__118__debug_db_erase_cB7v160006INS_12__hash_tableINS_17__hash_value_typeINS_12basic_stringIcNS_11char_traitsIcEENS_9allocatorIcEEEEN6LLVMIR8FuncTypeEEENS_22__unordered_map_hasherIS8_SB_NS_4hashIS8_EENS_8equal_toIS8_EELb1EEENS_21__unordered_map_equalIS8_SB_SG_SE_Lb1EEENS6_ISB_EEEEEEvPT_, symObjAddr: 0xD760, symBinAddr: 0x10000FD58, symSize: 0x10 }
  - { offsetInCU: 0x2A26B, offset: 0x2A26B, size: 0x8, addend: 0x0, symName: __ZNSt3__17launderB7v160006INS_4pairIKNS_12basic_stringIcNS_11char_traitsIcEENS_9allocatorIcEEEEN6LLVMIR8FuncTypeEEEEEPT_SD_, symObjAddr: 0xD93C, symBinAddr: 0x10000FF34, symSize: 0x24 }
  - { offsetInCU: 0x2A2A2, offset: 0x2A2A2, size: 0x8, addend: 0x0, symName: __ZNSt3__19__launderB7v160006INS_4pairIKNS_12basic_stringIcNS_11char_traitsIcEENS_9allocatorIcEEEEN6LLVMIR8FuncTypeEEEEEPT_SD_, symObjAddr: 0xD960, symBinAddr: 0x10000FF58, symSize: 0x14 }
  - { offsetInCU: 0x2A2D9, offset: 0x2A2D9, size: 0x8, addend: 0x0, symName: __ZNSt3__119__debug_db_insert_cB7v160006INS_13unordered_mapINS_12basic_stringIcNS_11char_traitsIcEENS_9allocatorIcEEEE10StructInfoNS_4hashIS7_EENS_8equal_toIS7_EENS5_INS_4pairIKS7_S8_EEEEEEEEvPT_, symObjAddr: 0xDCB4, symBinAddr: 0x1000102AC, symSize: 0x10 }
  - { offsetInCU: 0x2A30A, offset: 0x2A30A, size: 0x8, addend: 0x0, symName: __ZNSt3__118__debug_db_erase_cB7v160006INS_12__hash_tableINS_17__hash_value_typeINS_12basic_stringIcNS_11char_traitsIcEENS_9allocatorIcEEEE10StructInfoEENS_22__unordered_map_hasherIS8_SA_NS_4hashIS8_EENS_8equal_toIS8_EELb1EEENS_21__unordered_map_equalIS8_SA_SF_SD_Lb1EEENS6_ISA_EEEEEEvPT_, symObjAddr: 0xE3EC, symBinAddr: 0x1000109E4, symSize: 0x10 }
  - { offsetInCU: 0x2A36E, offset: 0x2A36E, size: 0x8, addend: 0x0, symName: __ZNSt3__17launderB7v160006INS_4pairIKNS_12basic_stringIcNS_11char_traitsIcEENS_9allocatorIcEEEE10StructInfoEEEEPT_SC_, symObjAddr: 0xE5C8, symBinAddr: 0x100010BC0, symSize: 0x24 }
  - { offsetInCU: 0x2A3A5, offset: 0x2A3A5, size: 0x8, addend: 0x0, symName: __ZNSt3__19__launderB7v160006INS_4pairIKNS_12basic_stringIcNS_11char_traitsIcEENS_9allocatorIcEEEE10StructInfoEEEEPT_SC_, symObjAddr: 0xE5EC, symBinAddr: 0x100010BE4, symSize: 0x14 }
  - { offsetInCU: 0x2A3DC, offset: 0x2A3DC, size: 0x8, addend: 0x0, symName: __ZNSt3__119__debug_db_insert_cB7v160006INS_13unordered_mapINS_12basic_stringIcNS_11char_traitsIcEENS_9allocatorIcEEEEP9Name_nameNS_4hashIS7_EENS_8equal_toIS7_EENS5_INS_4pairIKS7_S9_EEEEEEEEvPT_, symObjAddr: 0xE940, symBinAddr: 0x100010F38, symSize: 0x10 }
  - { offsetInCU: 0x2A40D, offset: 0x2A40D, size: 0x8, addend: 0x0, symName: __ZNSt3__118__debug_db_erase_cB7v160006INS_12__hash_tableINS_17__hash_value_typeINS_12basic_stringIcNS_11char_traitsIcEENS_9allocatorIcEEEEP9Name_nameEENS_22__unordered_map_hasherIS8_SB_NS_4hashIS8_EENS_8equal_toIS8_EELb1EEENS_21__unordered_map_equalIS8_SB_SG_SE_Lb1EEENS6_ISB_EEEEEEvPT_, symObjAddr: 0xF078, symBinAddr: 0x100011670, symSize: 0x10 }
  - { offsetInCU: 0x2A471, offset: 0x2A471, size: 0x8, addend: 0x0, symName: __ZNSt3__17launderB7v160006INS_4pairIKNS_12basic_stringIcNS_11char_traitsIcEENS_9allocatorIcEEEEP9Name_nameEEEEPT_SD_, symObjAddr: 0xF248, symBinAddr: 0x100011840, symSize: 0x24 }
  - { offsetInCU: 0x2A4A8, offset: 0x2A4A8, size: 0x8, addend: 0x0, symName: __ZNSt3__19__launderB7v160006INS_4pairIKNS_12basic_stringIcNS_11char_traitsIcEENS_9allocatorIcEEEEP9Name_nameEEEEPT_SD_, symObjAddr: 0xF26C, symBinAddr: 0x100011864, symSize: 0x14 }
  - { offsetInCU: 0x2A4DF, offset: 0x2A4DF, size: 0x8, addend: 0x0, symName: __ZNSt3__119__debug_db_insert_cB7v160006INS_13unordered_mapINS_12basic_stringIcNS_11char_traitsIcEENS_9allocatorIcEEEEP9Temp_tempNS_4hashIS7_EENS_8equal_toIS7_EENS5_INS_4pairIKS7_S9_EEEEEEEEvPT_, symObjAddr: 0xF5C0, symBinAddr: 0x100011BB8, symSize: 0x10 }
  - { offsetInCU: 0x2A510, offset: 0x2A510, size: 0x8, addend: 0x0, symName: __ZNSt3__118__debug_db_erase_cB7v160006INS_12__hash_tableINS_17__hash_value_typeINS_12basic_stringIcNS_11char_traitsIcEENS_9allocatorIcEEEEP9Temp_tempEENS_22__unordered_map_hasherIS8_SB_NS_4hashIS8_EENS_8equal_toIS8_EELb1EEENS_21__unordered_map_equalIS8_SB_SG_SE_Lb1EEENS6_ISB_EEEEEEvPT_, symObjAddr: 0xFCF8, symBinAddr: 0x1000122F0, symSize: 0x10 }
  - { offsetInCU: 0x2A574, offset: 0x2A574, size: 0x8, addend: 0x0, symName: __ZNSt3__17launderB7v160006INS_4pairIKNS_12basic_stringIcNS_11char_traitsIcEENS_9allocatorIcEEEEP9Temp_tempEEEEPT_SD_, symObjAddr: 0xFEC8, symBinAddr: 0x1000124C0, symSize: 0x24 }
  - { offsetInCU: 0x2A5AB, offset: 0x2A5AB, size: 0x8, addend: 0x0, symName: __ZNSt3__19__launderB7v160006INS_4pairIKNS_12basic_stringIcNS_11char_traitsIcEENS_9allocatorIcEEEEP9Temp_tempEEEEPT_SD_, symObjAddr: 0xFEEC, symBinAddr: 0x1000124E4, symSize: 0x14 }
  - { offsetInCU: 0x2A5E2, offset: 0x2A5E2, size: 0x8, addend: 0x0, symName: __ZNSt3__118__debug_db_erase_cB7v160006INS_6vectorIPN6LLVMIR5L_defENS_9allocatorIS4_EEEEEEvPT_, symObjAddr: 0x10530, symBinAddr: 0x100012B28, symSize: 0x10 }
  - { offsetInCU: 0x2A613, offset: 0x2A613, size: 0x8, addend: 0x0, symName: __ZNSt3__112__to_addressB7v160006IPN6LLVMIR5L_defEEEPT_S5_, symObjAddr: 0x10674, symBinAddr: 0x100012C6C, symSize: 0x14 }
  - { offsetInCU: 0x2A648, offset: 0x2A648, size: 0x8, addend: 0x0, symName: __ZNSt3__118__debug_db_erase_cB7v160006INS_6vectorIP10Func_localNS_9allocatorIS3_EEEEEEvPT_, symObjAddr: 0x10A18, symBinAddr: 0x100013010, symSize: 0x10 }
  - { offsetInCU: 0x2A679, offset: 0x2A679, size: 0x8, addend: 0x0, symName: __ZNSt3__112__to_addressB7v160006IP10Func_localEEPT_S4_, symObjAddr: 0x10B5C, symBinAddr: 0x100013154, symSize: 0x14 }
  - { offsetInCU: 0x2A6AE, offset: 0x2A6AE, size: 0x8, addend: 0x0, symName: __ZNSt3__119__debug_db_insert_cB7v160006INS_6vectorIPN6LLVMIR6L_funcENS_9allocatorIS4_EEEEEEvPT_, symObjAddr: 0x10DA8, symBinAddr: 0x1000133A0, symSize: 0x10 }
  - { offsetInCU: 0x2A6DF, offset: 0x2A6DF, size: 0x8, addend: 0x0, symName: __ZNSt3__118__debug_db_erase_cB7v160006INS_6vectorIPN6LLVMIR6L_funcENS_9allocatorIS4_EEEEEEvPT_, symObjAddr: 0x1106C, symBinAddr: 0x100013664, symSize: 0x10 }
  - { offsetInCU: 0x2A710, offset: 0x2A710, size: 0x8, addend: 0x0, symName: __ZNSt3__112__to_addressB7v160006IPN6LLVMIR6L_funcEEEPT_S5_, symObjAddr: 0x111B0, symBinAddr: 0x1000137A8, symSize: 0x14 }
  - { offsetInCU: 0x2A745, offset: 0x2A745, size: 0x8, addend: 0x0, symName: __ZNSt3__13maxB7v160006ImEERKT_S3_S3_, symObjAddr: 0x119A4, symBinAddr: 0x100013F9C, symSize: 0x2C }
  - { offsetInCU: 0x2A788, offset: 0x2A788, size: 0x8, addend: 0x0, symName: __ZNSt3__13maxB7v160006ImNS_6__lessImmEEEERKT_S5_S5_T0_, symObjAddr: 0x11A68, symBinAddr: 0x100014060, symSize: 0x54 }
  - { offsetInCU: 0x2A7E2, offset: 0x2A7E2, size: 0x8, addend: 0x0, symName: __ZNSt3__119__allocate_at_leastB7v160006INS_9allocatorIPN6LLVMIR6L_funcEEEEENS_19__allocation_resultINS_16allocator_traitsIT_E7pointerEEERS8_m, symObjAddr: 0x11BCC, symBinAddr: 0x1000141C4, symSize: 0x40 }
  - { offsetInCU: 0x2A825, offset: 0x2A825, size: 0x8, addend: 0x0, symName: __ZNSt3__142__uninitialized_allocator_move_if_noexceptB7v160006INS_9allocatorIPN6LLVMIR6L_funcEEENS_16reverse_iteratorIPS4_EES8_S4_vEET1_RT_T0_SC_S9_, symObjAddr: 0x11D80, symBinAddr: 0x100014378, symSize: 0x78 }
  - { offsetInCU: 0x2A8A2, offset: 0x2A8A2, size: 0x8, addend: 0x0, symName: __ZNSt3__14swapB7v160006IPPN6LLVMIR6L_funcEEENS_9enable_ifIXaasr21is_move_constructibleIT_EE5valuesr18is_move_assignableIS6_EE5valueEvE4typeERS6_S9_, symObjAddr: 0x11E44, symBinAddr: 0x10001443C, symSize: 0x3C }
  - { offsetInCU: 0x2A8F3, offset: 0x2A8F3, size: 0x8, addend: 0x0, symName: __ZNSt3__125__debug_db_invalidate_allB7v160006INS_6vectorIPN6LLVMIR6L_funcENS_9allocatorIS4_EEEEEEvPT_, symObjAddr: 0x11F2C, symBinAddr: 0x100014524, symSize: 0x10 }
  - { offsetInCU: 0x2A924, offset: 0x2A924, size: 0x8, addend: 0x0, symName: __ZNSt3__14moveB7v160006INS_16reverse_iteratorIPPN6LLVMIR6L_funcEEES6_EET0_T_S8_S7_, symObjAddr: 0x11F3C, symBinAddr: 0x100014534, symSize: 0x78 }
  - { offsetInCU: 0x2A97E, offset: 0x2A97E, size: 0x8, addend: 0x0, symName: __ZNSt3__16__moveB7v160006INS_17_ClassicAlgPolicyENS_16reverse_iteratorIPPN6LLVMIR6L_funcEEES7_S7_EENS_4pairIT0_T2_EES9_T1_SA_, symObjAddr: 0x11FB4, symBinAddr: 0x1000145AC, symSize: 0x64 }
  - { offsetInCU: 0x2A9EA, offset: 0x2A9EA, size: 0x8, addend: 0x0, symName: __ZNSt3__123__dispatch_copy_or_moveB7v160006INS_17_ClassicAlgPolicyENS_11__move_loopIS1_EENS_14__move_trivialENS_16reverse_iteratorIPPN6LLVMIR6L_funcEEESA_SA_EENS_4pairIT2_T4_EESC_T3_SD_, symObjAddr: 0x12018, symBinAddr: 0x100014610, symSize: 0x64 }
  - { offsetInCU: 0x2AA68, offset: 0x2AA68, size: 0x8, addend: 0x0, symName: __ZNSt3__121__unwrap_and_dispatchB7v160006INS_10__overloadINS_11__move_loopINS_17_ClassicAlgPolicyEEENS_14__move_trivialEEENS_16reverse_iteratorIPPN6LLVMIR6L_funcEEESC_SC_Li0EEENS_4pairIT0_T2_EESE_T1_SF_, symObjAddr: 0x1207C, symBinAddr: 0x100014674, symSize: 0x12C }
  - { offsetInCU: 0x2AAF8, offset: 0x2AAF8, size: 0x8, addend: 0x0, symName: __ZNSt3__114__unwrap_rangeB7v160006INS_16reverse_iteratorIPPN6LLVMIR6L_funcEEES6_EENS_4pairIT0_S8_EET_SA_, symObjAddr: 0x121A8, symBinAddr: 0x1000147A0, symSize: 0x84 }
  - { offsetInCU: 0x2ADAE, offset: 0x2ADAE, size: 0x8, addend: 0x0, symName: __ZNSt3__113__unwrap_iterB7v160006INS_16reverse_iteratorIPPN6LLVMIR6L_funcEEENS_18__unwrap_iter_implIS6_Lb0EEELi0EEEDTclsrT0_8__unwrapclsr3stdE7declvalIT_EEEESA_, symObjAddr: 0x122CC, symBinAddr: 0x1000148C4, symSize: 0x44 }
  - { offsetInCU: 0x2ADF2, offset: 0x2ADF2, size: 0x8, addend: 0x0, symName: __ZNSt3__19make_pairB7v160006INS_16reverse_iteratorIPPN6LLVMIR6L_funcEEES6_EENS_4pairINS_18__unwrap_ref_decayIT_E4typeENS8_IT0_E4typeEEEOS9_OSC_, symObjAddr: 0x12310, symBinAddr: 0x100014908, symSize: 0x38 }
  - { offsetInCU: 0x2AE41, offset: 0x2AE41, size: 0x8, addend: 0x0, symName: __ZNSt3__114__rewrap_rangeB7v160006INS_16reverse_iteratorIPPN6LLVMIR6L_funcEEES6_EET_S7_T0_, symObjAddr: 0x12348, symBinAddr: 0x100014940, symSize: 0x5C }
  - { offsetInCU: 0x2AE8D, offset: 0x2AE8D, size: 0x8, addend: 0x0, symName: __ZNSt3__113__rewrap_iterB7v160006INS_16reverse_iteratorIPPN6LLVMIR6L_funcEEES6_NS_18__unwrap_iter_implIS6_Lb0EEEEET_S9_T0_, symObjAddr: 0x123A4, symBinAddr: 0x10001499C, symSize: 0x74 }
  - { offsetInCU: 0x2AEE2, offset: 0x2AEE2, size: 0x8, addend: 0x0, symName: __ZNSt3__1neB7v160006IPPN6LLVMIR6L_funcES4_EEbRKNS_16reverse_iteratorIT_EERKNS5_IT0_EE, symObjAddr: 0x12418, symBinAddr: 0x100014A10, symSize: 0x48 }
  - { offsetInCU: 0x2B0DF, offset: 0x2B0DF, size: 0x8, addend: 0x0, symName: __ZNSt3__119__debug_db_insert_cB7v160006INS_6vectorIPN6LLVMIR5L_defENS_9allocatorIS4_EEEEEEvPT_, symObjAddr: 0x128D0, symBinAddr: 0x100014EC8, symSize: 0x10 }
  - { offsetInCU: 0x2B110, offset: 0x2B110, size: 0x8, addend: 0x0, symName: __ZNSt3__119__debug_db_insert_cB7v160006INS_6vectorI7TempDefNS_9allocatorIS2_EEEEEEvPT_, symObjAddr: 0x12A3C, symBinAddr: 0x100015034, symSize: 0x10 }
  - { offsetInCU: 0x2B141, offset: 0x2B141, size: 0x8, addend: 0x0, symName: __ZNSt3__118__debug_db_erase_cB7v160006INS_6vectorI7TempDefNS_9allocatorIS2_EEEEEEvPT_, symObjAddr: 0x12D00, symBinAddr: 0x1000152F8, symSize: 0x10 }
  - { offsetInCU: 0x2B172, offset: 0x2B172, size: 0x8, addend: 0x0, symName: __ZNSt3__112__to_addressB7v160006I7TempDefEEPT_S3_, symObjAddr: 0x12E44, symBinAddr: 0x10001543C, symSize: 0x14 }
  - { offsetInCU: 0x2B1A7, offset: 0x2B1A7, size: 0x8, addend: 0x0, symName: __ZNSt3__118__constexpr_strlenB7v160006EPKc, symObjAddr: 0x130A4, symBinAddr: 0x10001569C, symSize: 0x24 }
  - { offsetInCU: 0x2B1D3, offset: 0x2B1D3, size: 0x8, addend: 0x0, symName: __ZNSt3__119__allocate_at_leastB7v160006INS_9allocatorIPN6LLVMIR5L_defEEEEENS_19__allocation_resultINS_16allocator_traitsIT_E7pointerEEERS8_m, symObjAddr: 0x13818, symBinAddr: 0x100015E10, symSize: 0x40 }
  - { offsetInCU: 0x2B216, offset: 0x2B216, size: 0x8, addend: 0x0, symName: __ZNSt3__142__uninitialized_allocator_move_if_noexceptB7v160006INS_9allocatorIPN6LLVMIR5L_defEEENS_16reverse_iteratorIPS4_EES8_S4_vEET1_RT_T0_SC_S9_, symObjAddr: 0x139CC, symBinAddr: 0x100015FC4, symSize: 0x78 }
  - { offsetInCU: 0x2B293, offset: 0x2B293, size: 0x8, addend: 0x0, symName: __ZNSt3__14swapB7v160006IPPN6LLVMIR5L_defEEENS_9enable_ifIXaasr21is_move_constructibleIT_EE5valuesr18is_move_assignableIS6_EE5valueEvE4typeERS6_S9_, symObjAddr: 0x13A90, symBinAddr: 0x100016088, symSize: 0x3C }
  - { offsetInCU: 0x2B2E4, offset: 0x2B2E4, size: 0x8, addend: 0x0, symName: __ZNSt3__125__debug_db_invalidate_allB7v160006INS_6vectorIPN6LLVMIR5L_defENS_9allocatorIS4_EEEEEEvPT_, symObjAddr: 0x13B78, symBinAddr: 0x100016170, symSize: 0x10 }
  - { offsetInCU: 0x2B315, offset: 0x2B315, size: 0x8, addend: 0x0, symName: __ZNSt3__14moveB7v160006INS_16reverse_iteratorIPPN6LLVMIR5L_defEEES6_EET0_T_S8_S7_, symObjAddr: 0x13B88, symBinAddr: 0x100016180, symSize: 0x78 }
  - { offsetInCU: 0x2B36F, offset: 0x2B36F, size: 0x8, addend: 0x0, symName: __ZNSt3__16__moveB7v160006INS_17_ClassicAlgPolicyENS_16reverse_iteratorIPPN6LLVMIR5L_defEEES7_S7_EENS_4pairIT0_T2_EES9_T1_SA_, symObjAddr: 0x13C00, symBinAddr: 0x1000161F8, symSize: 0x64 }
  - { offsetInCU: 0x2B3DB, offset: 0x2B3DB, size: 0x8, addend: 0x0, symName: __ZNSt3__123__dispatch_copy_or_moveB7v160006INS_17_ClassicAlgPolicyENS_11__move_loopIS1_EENS_14__move_trivialENS_16reverse_iteratorIPPN6LLVMIR5L_defEEESA_SA_EENS_4pairIT2_T4_EESC_T3_SD_, symObjAddr: 0x13C64, symBinAddr: 0x10001625C, symSize: 0x64 }
  - { offsetInCU: 0x2B459, offset: 0x2B459, size: 0x8, addend: 0x0, symName: __ZNSt3__121__unwrap_and_dispatchB7v160006INS_10__overloadINS_11__move_loopINS_17_ClassicAlgPolicyEEENS_14__move_trivialEEENS_16reverse_iteratorIPPN6LLVMIR5L_defEEESC_SC_Li0EEENS_4pairIT0_T2_EESE_T1_SF_, symObjAddr: 0x13CC8, symBinAddr: 0x1000162C0, symSize: 0x12C }
  - { offsetInCU: 0x2B4E9, offset: 0x2B4E9, size: 0x8, addend: 0x0, symName: __ZNSt3__114__unwrap_rangeB7v160006INS_16reverse_iteratorIPPN6LLVMIR5L_defEEES6_EENS_4pairIT0_S8_EET_SA_, symObjAddr: 0x13DF4, symBinAddr: 0x1000163EC, symSize: 0x84 }
  - { offsetInCU: 0x2B609, offset: 0x2B609, size: 0x8, addend: 0x0, symName: __ZNSt3__113__unwrap_iterB7v160006INS_16reverse_iteratorIPPN6LLVMIR5L_defEEENS_18__unwrap_iter_implIS6_Lb0EEELi0EEEDTclsrT0_8__unwrapclsr3stdE7declvalIT_EEEESA_, symObjAddr: 0x13F18, symBinAddr: 0x100016510, symSize: 0x44 }
  - { offsetInCU: 0x2B64D, offset: 0x2B64D, size: 0x8, addend: 0x0, symName: __ZNSt3__19make_pairB7v160006INS_16reverse_iteratorIPPN6LLVMIR5L_defEEES6_EENS_4pairINS_18__unwrap_ref_decayIT_E4typeENS8_IT0_E4typeEEEOS9_OSC_, symObjAddr: 0x13F5C, symBinAddr: 0x100016554, symSize: 0x38 }
  - { offsetInCU: 0x2B69C, offset: 0x2B69C, size: 0x8, addend: 0x0, symName: __ZNSt3__114__rewrap_rangeB7v160006INS_16reverse_iteratorIPPN6LLVMIR5L_defEEES6_EET_S7_T0_, symObjAddr: 0x13F94, symBinAddr: 0x10001658C, symSize: 0x5C }
  - { offsetInCU: 0x2B6E8, offset: 0x2B6E8, size: 0x8, addend: 0x0, symName: __ZNSt3__113__rewrap_iterB7v160006INS_16reverse_iteratorIPPN6LLVMIR5L_defEEES6_NS_18__unwrap_iter_implIS6_Lb0EEEEET_S9_T0_, symObjAddr: 0x13FF0, symBinAddr: 0x1000165E8, symSize: 0x74 }
  - { offsetInCU: 0x2B73D, offset: 0x2B73D, size: 0x8, addend: 0x0, symName: __ZNSt3__1neB7v160006IPPN6LLVMIR5L_defES4_EEbRKNS_16reverse_iteratorIT_EERKNS5_IT0_EE, symObjAddr: 0x14064, symBinAddr: 0x10001665C, symSize: 0x48 }
  - { offsetInCU: 0x2B7F5, offset: 0x2B7F5, size: 0x8, addend: 0x0, symName: __ZNSt3__122__make_exception_guardB7v160006INS_6vectorI7TempDefNS_9allocatorIS2_EEE16__destroy_vectorEEENS_28__exception_guard_exceptionsIT_EES8_, symObjAddr: 0x1451C, symBinAddr: 0x100016B14, symSize: 0x40 }
  - { offsetInCU: 0x2B82A, offset: 0x2B82A, size: 0x8, addend: 0x0, symName: __ZNSt3__119__allocate_at_leastB7v160006INS_9allocatorI7TempDefEEEENS_19__allocation_resultINS_16allocator_traitsIT_E7pointerEEERS6_m, symObjAddr: 0x14800, symBinAddr: 0x100016DF8, symSize: 0x40 }
  - { offsetInCU: 0x2B86D, offset: 0x2B86D, size: 0x8, addend: 0x0, symName: __ZNSt3__130__uninitialized_allocator_copyB7v160006INS_9allocatorI7TempDefEEPKS2_S5_PS2_EET2_RT_T0_T1_S7_, symObjAddr: 0x14A78, symBinAddr: 0x100017070, symSize: 0xF4 }
  - { offsetInCU: 0x2B90B, offset: 0x2B90B, size: 0x8, addend: 0x0, symName: __ZNSt3__122__make_exception_guardB7v160006INS_29_AllocatorDestroyRangeReverseINS_9allocatorI7TempDefEEPS3_EEEENS_28__exception_guard_exceptionsIT_EES8_, symObjAddr: 0x14BDC, symBinAddr: 0x1000171D4, symSize: 0x4C }
  - { offsetInCU: 0x2B941, offset: 0x2B941, size: 0x8, addend: 0x0, symName: __ZNSt3__119__allocator_destroyB7v160006INS_9allocatorI7TempDefEENS_16reverse_iteratorIPS2_EES6_EEvRT_T0_T1_, symObjAddr: 0x14E6C, symBinAddr: 0x100017464, symSize: 0x70 }
  - { offsetInCU: 0x2B9A4, offset: 0x2B9A4, size: 0x8, addend: 0x0, symName: __ZNSt3__1neB7v160006IP7TempDefS2_EEbRKNS_16reverse_iteratorIT_EERKNS3_IT0_EE, symObjAddr: 0x14F10, symBinAddr: 0x100017508, symSize: 0x48 }
  - { offsetInCU: 0x2B9F0, offset: 0x2B9F0, size: 0x8, addend: 0x0, symName: __ZNSt3__112__to_addressB7v160006INS_16reverse_iteratorIP7TempDefEEvEENS_5decayIDTclsr19__to_address_helperIT_EE6__callclsr3stdE7declvalIRKS6_EEEEE4typeES8_, symObjAddr: 0x14F58, symBinAddr: 0x100017550, symSize: 0x24 }
  - { offsetInCU: 0x2BA86, offset: 0x2BA86, size: 0x8, addend: 0x0, symName: __ZNSt3__116forward_as_tupleB7v160006IJNS_12basic_stringIcNS_11char_traitsIcEENS_9allocatorIcEEEEEEENS_5tupleIJDpOT_EEESA_, symObjAddr: 0x155A0, symBinAddr: 0x100017B98, symSize: 0x2C }
  - { offsetInCU: 0x2BABF, offset: 0x2BABF, size: 0x8, addend: 0x0, symName: __ZNSt3__116forward_as_tupleB7v160006IJEEENS_5tupleIJDpOT_EEES4_, symObjAddr: 0x155CC, symBinAddr: 0x100017BC4, symSize: 0x4 }
  - { offsetInCU: 0x2BAE3, offset: 0x2BAE3, size: 0x8, addend: 0x0, symName: __ZNSt3__116__constrain_hashB7v160006Emm, symObjAddr: 0x1567C, symBinAddr: 0x100017C74, symSize: 0x98 }
  - { offsetInCU: 0x2BB1D, offset: 0x2BB1D, size: 0x8, addend: 0x0, symName: __ZNSt3__116__is_hash_power2B7v160006Em, symObjAddr: 0x1599C, symBinAddr: 0x100017F94, symSize: 0x50 }
  - { offsetInCU: 0x2BB49, offset: 0x2BB49, size: 0x8, addend: 0x0, symName: __ZNSt3__116__do_string_hashB7v160006IPKcEEmT_S3_, symObjAddr: 0x15BFC, symBinAddr: 0x1000181F4, symSize: 0x3C }
  - { offsetInCU: 0x2BB8F, offset: 0x2BB8F, size: 0x8, addend: 0x0, symName: __ZNSt3__110__loadwordB7v160006ImEET_PKv, symObjAddr: 0x1666C, symBinAddr: 0x100018C64, symSize: 0x20 }
  - { offsetInCU: 0x2BBD2, offset: 0x2BBD2, size: 0x8, addend: 0x0, symName: __ZNSt3__14swapB7v160006ImEENS_9enable_ifIXaasr21is_move_constructibleIT_EE5valuesr18is_move_assignableIS2_EE5valueEvE4typeERS2_S5_, symObjAddr: 0x16828, symBinAddr: 0x100018E20, symSize: 0x3C }
  - { offsetInCU: 0x2BC23, offset: 0x2BC23, size: 0x8, addend: 0x0, symName: __ZNSt3__110__loadwordB7v160006IjEET_PKv, symObjAddr: 0x168B8, symBinAddr: 0x100018EB0, symSize: 0x20 }
  - { offsetInCU: 0x2BC66, offset: 0x2BC66, size: 0x8, addend: 0x0, symName: __ZNSt3__112__to_addressB7v160006IKcEEPT_S3_, symObjAddr: 0x16A20, symBinAddr: 0x100019018, symSize: 0x14 }
  - { offsetInCU: 0x2BCCE, offset: 0x2BCCE, size: 0x8, addend: 0x0, symName: __ZNSt3__1eqB7v160006INS_9allocatorIcEEEEbRKNS_12basic_stringIcNS_11char_traitsIcEET_EES9_, symObjAddr: 0x16CBC, symBinAddr: 0x1000192B4, symSize: 0x148 }
  - { offsetInCU: 0x2BD41, offset: 0x2BD41, size: 0x8, addend: 0x0, symName: __ZNSt3__118__constexpr_memcmpB7v160006IcEEiPKT_S3_m, symObjAddr: 0x16E70, symBinAddr: 0x100019468, symSize: 0x34 }
  - { offsetInCU: 0x2BD92, offset: 0x2BD92, size: 0x8, addend: 0x0, symName: __ZNSt3__17launderB7v160006IKNS_4pairIKNS_12basic_stringIcNS_11char_traitsIcEENS_9allocatorIcEEEEN6LLVMIR8FuncTypeEEEEEPT_SE_, symObjAddr: 0x16EA4, symBinAddr: 0x10001949C, symSize: 0x24 }
  - { offsetInCU: 0x2BDC9, offset: 0x2BDC9, size: 0x8, addend: 0x0, symName: __ZNSt3__19__launderB7v160006IKNS_4pairIKNS_12basic_stringIcNS_11char_traitsIcEENS_9allocatorIcEEEEN6LLVMIR8FuncTypeEEEEEPT_SE_, symObjAddr: 0x16EC8, symBinAddr: 0x1000194C0, symSize: 0x14 }
  - { offsetInCU: 0x2BE29, offset: 0x2BE29, size: 0x8, addend: 0x0, symName: __ZNSt3__13getB7v160006ILm0EJONS_12basic_stringIcNS_11char_traitsIcEENS_9allocatorIcEEEEEEERNS_13tuple_elementIXT_ENS_5tupleIJDpT0_EEEE4typeERSC_, symObjAddr: 0x17334, symBinAddr: 0x10001992C, symSize: 0x24 }
  - { offsetInCU: 0x2BE6C, offset: 0x2BE6C, size: 0x8, addend: 0x0, symName: __ZNSt3__115__debug_db_swapB7v160006INS_12basic_stringIcNS_11char_traitsIcEENS_9allocatorIcEEEEEEvPT_S8_, symObjAddr: 0x17424, symBinAddr: 0x100019A1C, symSize: 0x14 }
  - { offsetInCU: 0x2BEAB, offset: 0x2BEAB, size: 0x8, addend: 0x0, symName: __ZNSt3__116__next_hash_pow2B7v160006Em, symObjAddr: 0x17908, symBinAddr: 0x100019F00, symSize: 0x6C }
  - { offsetInCU: 0x2BED7, offset: 0x2BED7, size: 0x8, addend: 0x0, symName: __ZNSt3__125__debug_db_invalidate_allB7v160006INS_12__hash_tableINS_17__hash_value_typeINS_12basic_stringIcNS_11char_traitsIcEENS_9allocatorIcEEEEN6LLVMIR8FuncTypeEEENS_22__unordered_map_hasherIS8_SB_NS_4hashIS8_EENS_8equal_toIS8_EELb1EEENS_21__unordered_map_equalIS8_SB_SG_SE_Lb1EEENS6_ISB_EEEEEEvPT_, symObjAddr: 0x17974, symBinAddr: 0x100019F6C, symSize: 0x10 }
  - { offsetInCU: 0x2BF24, offset: 0x2BF24, size: 0x8, addend: 0x0, symName: __ZNSt3__112__libcpp_clzB7v160006Em, symObjAddr: 0x17ADC, symBinAddr: 0x10001A0D4, symSize: 0x1C }
  - { offsetInCU: 0x2BFCB, offset: 0x2BFCB, size: 0x8, addend: 0x0, symName: __ZNSt3__17launderB7v160006IKNS_4pairIKNS_12basic_stringIcNS_11char_traitsIcEENS_9allocatorIcEEEEP9Name_nameEEEEPT_SE_, symObjAddr: 0x18990, symBinAddr: 0x10001AF88, symSize: 0x24 }
  - { offsetInCU: 0x2C002, offset: 0x2C002, size: 0x8, addend: 0x0, symName: __ZNSt3__19__launderB7v160006IKNS_4pairIKNS_12basic_stringIcNS_11char_traitsIcEENS_9allocatorIcEEEEP9Name_nameEEEEPT_SE_, symObjAddr: 0x189B4, symBinAddr: 0x10001AFAC, symSize: 0x14 }
  - { offsetInCU: 0x2C057, offset: 0x2C057, size: 0x8, addend: 0x0, symName: __ZNSt3__125__debug_db_invalidate_allB7v160006INS_12__hash_tableINS_17__hash_value_typeINS_12basic_stringIcNS_11char_traitsIcEENS_9allocatorIcEEEEP9Name_nameEENS_22__unordered_map_hasherIS8_SB_NS_4hashIS8_EENS_8equal_toIS8_EELb1EEENS_21__unordered_map_equalIS8_SB_SG_SE_Lb1EEENS6_ISB_EEEEEEvPT_, symObjAddr: 0x19230, symBinAddr: 0x10001B828, symSize: 0x10 }
  - { offsetInCU: 0x2C088, offset: 0x2C088, size: 0x8, addend: 0x0, symName: __ZNSt3__119__debug_db_insert_cB7v160006INS_6vectorIiNS_9allocatorIiEEEEEEvPT_, symObjAddr: 0x196D8, symBinAddr: 0x10001BCD0, symSize: 0x10 }
  - { offsetInCU: 0x2C0B9, offset: 0x2C0B9, size: 0x8, addend: 0x0, symName: __ZNSt3__118__debug_db_erase_cB7v160006INS_6vectorIiNS_9allocatorIiEEEEEEvPT_, symObjAddr: 0x1999C, symBinAddr: 0x10001BF94, symSize: 0x10 }
  - { offsetInCU: 0x2C0EA, offset: 0x2C0EA, size: 0x8, addend: 0x0, symName: __ZNSt3__112__to_addressB7v160006IiEEPT_S2_, symObjAddr: 0x19AE0, symBinAddr: 0x10001C0D8, symSize: 0x14 }
  - { offsetInCU: 0x2C11F, offset: 0x2C11F, size: 0x8, addend: 0x0, symName: __ZNSt3__119__allocate_at_leastB7v160006INS_9allocatorIiEEEENS_19__allocation_resultINS_16allocator_traitsIT_E7pointerEEERS5_m, symObjAddr: 0x1A3E8, symBinAddr: 0x10001C9E0, symSize: 0x40 }
  - { offsetInCU: 0x2C162, offset: 0x2C162, size: 0x8, addend: 0x0, symName: __ZNSt3__142__uninitialized_allocator_move_if_noexceptB7v160006INS_9allocatorIiEENS_16reverse_iteratorIPiEES5_ivEET1_RT_T0_S9_S6_, symObjAddr: 0x1A59C, symBinAddr: 0x10001CB94, symSize: 0x78 }
  - { offsetInCU: 0x2C1DF, offset: 0x2C1DF, size: 0x8, addend: 0x0, symName: __ZNSt3__14swapB7v160006IPiEENS_9enable_ifIXaasr21is_move_constructibleIT_EE5valuesr18is_move_assignableIS3_EE5valueEvE4typeERS3_S6_, symObjAddr: 0x1A660, symBinAddr: 0x10001CC58, symSize: 0x3C }
  - { offsetInCU: 0x2C230, offset: 0x2C230, size: 0x8, addend: 0x0, symName: __ZNSt3__125__debug_db_invalidate_allB7v160006INS_6vectorIiNS_9allocatorIiEEEEEEvPT_, symObjAddr: 0x1A748, symBinAddr: 0x10001CD40, symSize: 0x10 }
  - { offsetInCU: 0x2C261, offset: 0x2C261, size: 0x8, addend: 0x0, symName: __ZNSt3__14moveB7v160006INS_16reverse_iteratorIPiEES3_EET0_T_S5_S4_, symObjAddr: 0x1A758, symBinAddr: 0x10001CD50, symSize: 0x78 }
  - { offsetInCU: 0x2C2BB, offset: 0x2C2BB, size: 0x8, addend: 0x0, symName: __ZNSt3__16__moveB7v160006INS_17_ClassicAlgPolicyENS_16reverse_iteratorIPiEES4_S4_EENS_4pairIT0_T2_EES6_T1_S7_, symObjAddr: 0x1A7D0, symBinAddr: 0x10001CDC8, symSize: 0x64 }
  - { offsetInCU: 0x2C327, offset: 0x2C327, size: 0x8, addend: 0x0, symName: __ZNSt3__123__dispatch_copy_or_moveB7v160006INS_17_ClassicAlgPolicyENS_11__move_loopIS1_EENS_14__move_trivialENS_16reverse_iteratorIPiEES7_S7_EENS_4pairIT2_T4_EES9_T3_SA_, symObjAddr: 0x1A834, symBinAddr: 0x10001CE2C, symSize: 0x64 }
  - { offsetInCU: 0x2C3A5, offset: 0x2C3A5, size: 0x8, addend: 0x0, symName: __ZNSt3__121__unwrap_and_dispatchB7v160006INS_10__overloadINS_11__move_loopINS_17_ClassicAlgPolicyEEENS_14__move_trivialEEENS_16reverse_iteratorIPiEES9_S9_Li0EEENS_4pairIT0_T2_EESB_T1_SC_, symObjAddr: 0x1A898, symBinAddr: 0x10001CE90, symSize: 0x12C }
  - { offsetInCU: 0x2C435, offset: 0x2C435, size: 0x8, addend: 0x0, symName: __ZNSt3__114__unwrap_rangeB7v160006INS_16reverse_iteratorIPiEES3_EENS_4pairIT0_S5_EET_S7_, symObjAddr: 0x1A9C4, symBinAddr: 0x10001CFBC, symSize: 0x84 }
  - { offsetInCU: 0x2C555, offset: 0x2C555, size: 0x8, addend: 0x0, symName: __ZNSt3__113__unwrap_iterB7v160006INS_16reverse_iteratorIPiEENS_18__unwrap_iter_implIS3_Lb0EEELi0EEEDTclsrT0_8__unwrapclsr3stdE7declvalIT_EEEES7_, symObjAddr: 0x1AAE8, symBinAddr: 0x10001D0E0, symSize: 0x44 }
  - { offsetInCU: 0x2C599, offset: 0x2C599, size: 0x8, addend: 0x0, symName: __ZNSt3__19make_pairB7v160006INS_16reverse_iteratorIPiEES3_EENS_4pairINS_18__unwrap_ref_decayIT_E4typeENS5_IT0_E4typeEEEOS6_OS9_, symObjAddr: 0x1AB2C, symBinAddr: 0x10001D124, symSize: 0x38 }
  - { offsetInCU: 0x2C5E8, offset: 0x2C5E8, size: 0x8, addend: 0x0, symName: __ZNSt3__114__rewrap_rangeB7v160006INS_16reverse_iteratorIPiEES3_EET_S4_T0_, symObjAddr: 0x1AB64, symBinAddr: 0x10001D15C, symSize: 0x5C }
  - { offsetInCU: 0x2C634, offset: 0x2C634, size: 0x8, addend: 0x0, symName: __ZNSt3__113__rewrap_iterB7v160006INS_16reverse_iteratorIPiEES3_NS_18__unwrap_iter_implIS3_Lb0EEEEET_S6_T0_, symObjAddr: 0x1ABC0, symBinAddr: 0x10001D1B8, symSize: 0x74 }
  - { offsetInCU: 0x2C689, offset: 0x2C689, size: 0x8, addend: 0x0, symName: __ZNSt3__1neB7v160006IPiS1_EEbRKNS_16reverse_iteratorIT_EERKNS2_IT0_EE, symObjAddr: 0x1AC34, symBinAddr: 0x10001D22C, symSize: 0x48 }
  - { offsetInCU: 0x2C765, offset: 0x2C765, size: 0x8, addend: 0x0, symName: __ZNSt3__17launderB7v160006IKNS_4pairIKNS_12basic_stringIcNS_11char_traitsIcEENS_9allocatorIcEEEE10MemberInfoEEEEPT_SD_, symObjAddr: 0x1BBE4, symBinAddr: 0x10001E1DC, symSize: 0x24 }
  - { offsetInCU: 0x2C79C, offset: 0x2C79C, size: 0x8, addend: 0x0, symName: __ZNSt3__19__launderB7v160006IKNS_4pairIKNS_12basic_stringIcNS_11char_traitsIcEENS_9allocatorIcEEEE10MemberInfoEEEEPT_SD_, symObjAddr: 0x1BC08, symBinAddr: 0x10001E200, symSize: 0x14 }
  - { offsetInCU: 0x2C7F1, offset: 0x2C7F1, size: 0x8, addend: 0x0, symName: __ZNSt3__125__debug_db_invalidate_allB7v160006INS_12__hash_tableINS_17__hash_value_typeINS_12basic_stringIcNS_11char_traitsIcEENS_9allocatorIcEEEE10MemberInfoEENS_22__unordered_map_hasherIS8_SA_NS_4hashIS8_EENS_8equal_toIS8_EELb1EEENS_21__unordered_map_equalIS8_SA_SF_SD_Lb1EEENS6_ISA_EEEEEEvPT_, symObjAddr: 0x1C4B0, symBinAddr: 0x10001EAA8, symSize: 0x10 }
  - { offsetInCU: 0x2C822, offset: 0x2C822, size: 0x8, addend: 0x0, symName: __ZNSt3__142__uninitialized_allocator_move_if_noexceptB7v160006INS_9allocatorI7TempDefEENS_16reverse_iteratorIPS2_EES6_S6_EET2_RT_T0_T1_S7_, symObjAddr: 0x1CE94, symBinAddr: 0x10001F48C, symSize: 0x11C }
  - { offsetInCU: 0x2C8C2, offset: 0x2C8C2, size: 0x8, addend: 0x0, symName: __ZNSt3__14swapB7v160006IP7TempDefEENS_9enable_ifIXaasr21is_move_constructibleIT_EE5valuesr18is_move_assignableIS4_EE5valueEvE4typeERS4_S7_, symObjAddr: 0x1CFB0, symBinAddr: 0x10001F5A8, symSize: 0x3C }
  - { offsetInCU: 0x2C913, offset: 0x2C913, size: 0x8, addend: 0x0, symName: __ZNSt3__125__debug_db_invalidate_allB7v160006INS_6vectorI7TempDefNS_9allocatorIS2_EEEEEEvPT_, symObjAddr: 0x1CFEC, symBinAddr: 0x10001F5E4, symSize: 0x10 }
  - { offsetInCU: 0x2C944, offset: 0x2C944, size: 0x8, addend: 0x0, symName: __ZNSt3__122__make_exception_guardB7v160006INS_29_AllocatorDestroyRangeReverseINS_9allocatorI7TempDefEENS_16reverse_iteratorIPS3_EEEEEENS_28__exception_guard_exceptionsIT_EESA_, symObjAddr: 0x1CFFC, symBinAddr: 0x10001F5F4, symSize: 0x4C }
  - { offsetInCU: 0x2C97A, offset: 0x2C97A, size: 0x8, addend: 0x0, symName: __ZNSt3__119__allocator_destroyB7v160006INS_9allocatorI7TempDefEENS_16reverse_iteratorINS4_IPS2_EEEES7_EEvRT_T0_T1_, symObjAddr: 0x1D354, symBinAddr: 0x10001F94C, symSize: 0x70 }
  - { offsetInCU: 0x2C9DF, offset: 0x2C9DF, size: 0x8, addend: 0x0, symName: __ZNSt3__1neB7v160006INS_16reverse_iteratorIP7TempDefEES4_EEbRKNS1_IT_EERKNS1_IT0_EE, symObjAddr: 0x1D400, symBinAddr: 0x10001F9F8, symSize: 0x60 }
  - { offsetInCU: 0x2CA2B, offset: 0x2CA2B, size: 0x8, addend: 0x0, symName: __ZNSt3__112__to_addressB7v160006INS_16reverse_iteratorINS1_IP7TempDefEEEEvEENS_5decayIDTclsr19__to_address_helperIT_EE6__callclsr3stdE7declvalIRKS7_EEEEE4typeES9_, symObjAddr: 0x1D460, symBinAddr: 0x10001FA58, symSize: 0x24 }
  - { offsetInCU: 0x2CAAE, offset: 0x2CAAE, size: 0x8, addend: 0x0, symName: __ZNSt3__17launderB7v160006IKNS_4pairIKNS_12basic_stringIcNS_11char_traitsIcEENS_9allocatorIcEEEE10StructInfoEEEEPT_SD_, symObjAddr: 0x1E298, symBinAddr: 0x100020890, symSize: 0x24 }
  - { offsetInCU: 0x2CAE5, offset: 0x2CAE5, size: 0x8, addend: 0x0, symName: __ZNSt3__19__launderB7v160006IKNS_4pairIKNS_12basic_stringIcNS_11char_traitsIcEENS_9allocatorIcEEEE10StructInfoEEEEPT_SD_, symObjAddr: 0x1E2BC, symBinAddr: 0x1000208B4, symSize: 0x14 }
  - { offsetInCU: 0x2CB3A, offset: 0x2CB3A, size: 0x8, addend: 0x0, symName: __ZNSt3__115__debug_db_swapB7v160006INS_13unordered_mapINS_12basic_stringIcNS_11char_traitsIcEENS_9allocatorIcEEEE10MemberInfoNS_4hashIS7_EENS_8equal_toIS7_EENS5_INS_4pairIKS7_S8_EEEEEEEEvPT_SJ_, symObjAddr: 0x1E7A0, symBinAddr: 0x100020D98, symSize: 0x14 }
  - { offsetInCU: 0x2CB79, offset: 0x2CB79, size: 0x8, addend: 0x0, symName: __ZNSt3__125__debug_db_invalidate_allB7v160006INS_12__hash_tableINS_17__hash_value_typeINS_12basic_stringIcNS_11char_traitsIcEENS_9allocatorIcEEEE10StructInfoEENS_22__unordered_map_hasherIS8_SA_NS_4hashIS8_EENS_8equal_toIS8_EELb1EEENS_21__unordered_map_equalIS8_SA_SF_SD_Lb1EEENS6_ISA_EEEEEEvPT_, symObjAddr: 0x1EF98, symBinAddr: 0x100021590, symSize: 0x10 }
  - { offsetInCU: 0x2CBAA, offset: 0x2CBAA, size: 0x8, addend: 0x0, symName: __ZNSt3__1eqB7v160006ERKNS_15__hash_iteratorIPNS_11__hash_nodeINS_17__hash_value_typeINS_12basic_stringIcNS_11char_traitsIcEENS_9allocatorIcEEEEN6LLVMIR8FuncTypeEEEPvEEEESH_, symObjAddr: 0x1F5E4, symBinAddr: 0x100021BDC, symSize: 0x30 }
  - { offsetInCU: 0x2CC0B, offset: 0x2CC0B, size: 0x8, addend: 0x0, symName: __ZNSt3__119__debug_db_insert_cB7v160006INS_6vectorIP10Func_localNS_9allocatorIS3_EEEEEEvPT_, symObjAddr: 0x1FEC0, symBinAddr: 0x1000224B8, symSize: 0x10 }
  - { offsetInCU: 0x2CC3C, offset: 0x2CC3C, size: 0x8, addend: 0x0, symName: __ZNSt3__119__allocate_at_leastB7v160006INS_9allocatorIP10Func_localEEEENS_19__allocation_resultINS_16allocator_traitsIT_E7pointerEEERS7_m, symObjAddr: 0x206E8, symBinAddr: 0x100022CE0, symSize: 0x40 }
  - { offsetInCU: 0x2CC7F, offset: 0x2CC7F, size: 0x8, addend: 0x0, symName: __ZNSt3__142__uninitialized_allocator_move_if_noexceptB7v160006INS_9allocatorIP10Func_localEENS_16reverse_iteratorIPS3_EES7_S3_vEET1_RT_T0_SB_S8_, symObjAddr: 0x2089C, symBinAddr: 0x100022E94, symSize: 0x78 }
  - { offsetInCU: 0x2CCFC, offset: 0x2CCFC, size: 0x8, addend: 0x0, symName: __ZNSt3__14swapB7v160006IPP10Func_localEENS_9enable_ifIXaasr21is_move_constructibleIT_EE5valuesr18is_move_assignableIS5_EE5valueEvE4typeERS5_S8_, symObjAddr: 0x20960, symBinAddr: 0x100022F58, symSize: 0x3C }
  - { offsetInCU: 0x2CD4D, offset: 0x2CD4D, size: 0x8, addend: 0x0, symName: __ZNSt3__125__debug_db_invalidate_allB7v160006INS_6vectorIP10Func_localNS_9allocatorIS3_EEEEEEvPT_, symObjAddr: 0x20A48, symBinAddr: 0x100023040, symSize: 0x10 }
  - { offsetInCU: 0x2CD7E, offset: 0x2CD7E, size: 0x8, addend: 0x0, symName: __ZNSt3__14moveB7v160006INS_16reverse_iteratorIPP10Func_localEES5_EET0_T_S7_S6_, symObjAddr: 0x20A58, symBinAddr: 0x100023050, symSize: 0x78 }
  - { offsetInCU: 0x2CDD8, offset: 0x2CDD8, size: 0x8, addend: 0x0, symName: __ZNSt3__16__moveB7v160006INS_17_ClassicAlgPolicyENS_16reverse_iteratorIPP10Func_localEES6_S6_EENS_4pairIT0_T2_EES8_T1_S9_, symObjAddr: 0x20AD0, symBinAddr: 0x1000230C8, symSize: 0x64 }
  - { offsetInCU: 0x2CE44, offset: 0x2CE44, size: 0x8, addend: 0x0, symName: __ZNSt3__123__dispatch_copy_or_moveB7v160006INS_17_ClassicAlgPolicyENS_11__move_loopIS1_EENS_14__move_trivialENS_16reverse_iteratorIPP10Func_localEES9_S9_EENS_4pairIT2_T4_EESB_T3_SC_, symObjAddr: 0x20B34, symBinAddr: 0x10002312C, symSize: 0x64 }
  - { offsetInCU: 0x2CEC2, offset: 0x2CEC2, size: 0x8, addend: 0x0, symName: __ZNSt3__121__unwrap_and_dispatchB7v160006INS_10__overloadINS_11__move_loopINS_17_ClassicAlgPolicyEEENS_14__move_trivialEEENS_16reverse_iteratorIPP10Func_localEESB_SB_Li0EEENS_4pairIT0_T2_EESD_T1_SE_, symObjAddr: 0x20B98, symBinAddr: 0x100023190, symSize: 0x12C }
  - { offsetInCU: 0x2CF52, offset: 0x2CF52, size: 0x8, addend: 0x0, symName: __ZNSt3__114__unwrap_rangeB7v160006INS_16reverse_iteratorIPP10Func_localEES5_EENS_4pairIT0_S7_EET_S9_, symObjAddr: 0x20CC4, symBinAddr: 0x1000232BC, symSize: 0x84 }
  - { offsetInCU: 0x2D072, offset: 0x2D072, size: 0x8, addend: 0x0, symName: __ZNSt3__113__unwrap_iterB7v160006INS_16reverse_iteratorIPP10Func_localEENS_18__unwrap_iter_implIS5_Lb0EEELi0EEEDTclsrT0_8__unwrapclsr3stdE7declvalIT_EEEES9_, symObjAddr: 0x20DE8, symBinAddr: 0x1000233E0, symSize: 0x44 }
  - { offsetInCU: 0x2D0B6, offset: 0x2D0B6, size: 0x8, addend: 0x0, symName: __ZNSt3__19make_pairB7v160006INS_16reverse_iteratorIPP10Func_localEES5_EENS_4pairINS_18__unwrap_ref_decayIT_E4typeENS7_IT0_E4typeEEEOS8_OSB_, symObjAddr: 0x20E2C, symBinAddr: 0x100023424, symSize: 0x38 }
  - { offsetInCU: 0x2D105, offset: 0x2D105, size: 0x8, addend: 0x0, symName: __ZNSt3__114__rewrap_rangeB7v160006INS_16reverse_iteratorIPP10Func_localEES5_EET_S6_T0_, symObjAddr: 0x20E64, symBinAddr: 0x10002345C, symSize: 0x5C }
  - { offsetInCU: 0x2D151, offset: 0x2D151, size: 0x8, addend: 0x0, symName: __ZNSt3__113__rewrap_iterB7v160006INS_16reverse_iteratorIPP10Func_localEES5_NS_18__unwrap_iter_implIS5_Lb0EEEEET_S8_T0_, symObjAddr: 0x20EC0, symBinAddr: 0x1000234B8, symSize: 0x74 }
  - { offsetInCU: 0x2D1A6, offset: 0x2D1A6, size: 0x8, addend: 0x0, symName: __ZNSt3__1neB7v160006IPP10Func_localS3_EEbRKNS_16reverse_iteratorIT_EERKNS4_IT0_EE, symObjAddr: 0x20F34, symBinAddr: 0x10002352C, symSize: 0x48 }
  - { offsetInCU: 0x2D27C, offset: 0x2D27C, size: 0x8, addend: 0x0, symName: __ZNSt3__116forward_as_tupleB7v160006IJRKNS_12basic_stringIcNS_11char_traitsIcEENS_9allocatorIcEEEEEEENS_5tupleIJDpOT_EEESC_, symObjAddr: 0x21EA0, symBinAddr: 0x100024498, symSize: 0x2C }
  - { offsetInCU: 0x2D2B5, offset: 0x2D2B5, size: 0x8, addend: 0x0, symName: __ZNSt3__17launderB7v160006IKNS_4pairIKNS_12basic_stringIcNS_11char_traitsIcEENS_9allocatorIcEEEEP9Temp_tempEEEEPT_SE_, symObjAddr: 0x224D4, symBinAddr: 0x100024ACC, symSize: 0x24 }
  - { offsetInCU: 0x2D2EC, offset: 0x2D2EC, size: 0x8, addend: 0x0, symName: __ZNSt3__19__launderB7v160006IKNS_4pairIKNS_12basic_stringIcNS_11char_traitsIcEENS_9allocatorIcEEEEP9Temp_tempEEEEPT_SE_, symObjAddr: 0x224F8, symBinAddr: 0x100024AF0, symSize: 0x14 }
  - { offsetInCU: 0x2D341, offset: 0x2D341, size: 0x8, addend: 0x0, symName: __ZNSt3__13getB7v160006ILm0EJRKNS_12basic_stringIcNS_11char_traitsIcEENS_9allocatorIcEEEEEEERNS_13tuple_elementIXT_ENS_5tupleIJDpT0_EEEE4typeERSD_, symObjAddr: 0x2290C, symBinAddr: 0x100024F04, symSize: 0x24 }
  - { offsetInCU: 0x2D384, offset: 0x2D384, size: 0x8, addend: 0x0, symName: __ZNSt3__125__debug_db_invalidate_allB7v160006INS_12__hash_tableINS_17__hash_value_typeINS_12basic_stringIcNS_11char_traitsIcEENS_9allocatorIcEEEEP9Temp_tempEENS_22__unordered_map_hasherIS8_SB_NS_4hashIS8_EENS_8equal_toIS8_EELb1EEENS_21__unordered_map_equalIS8_SB_SG_SE_Lb1EEENS6_ISB_EEEEEEvPT_, symObjAddr: 0x22E04, symBinAddr: 0x1000253FC, symSize: 0x10 }
  - { offsetInCU: 0x2D3FD, offset: 0x2D3FD, size: 0x8, addend: 0x0, symName: __ZNSt3__142__uninitialized_allocator_move_if_noexceptB7v160006INS_9allocatorIP9Temp_tempEENS_16reverse_iteratorIPS3_EES7_S3_vEET1_RT_T0_SB_S8_, symObjAddr: 0x238A4, symBinAddr: 0x100025E9C, symSize: 0x78 }
  - { offsetInCU: 0x2D47A, offset: 0x2D47A, size: 0x8, addend: 0x0, symName: __ZNSt3__14swapB7v160006IPP9Temp_tempEENS_9enable_ifIXaasr21is_move_constructibleIT_EE5valuesr18is_move_assignableIS5_EE5valueEvE4typeERS5_S8_, symObjAddr: 0x2391C, symBinAddr: 0x100025F14, symSize: 0x3C }
  - { offsetInCU: 0x2D4CB, offset: 0x2D4CB, size: 0x8, addend: 0x0, symName: __ZNSt3__125__debug_db_invalidate_allB7v160006INS_6vectorIP9Temp_tempNS_9allocatorIS3_EEEEEEvPT_, symObjAddr: 0x23958, symBinAddr: 0x100025F50, symSize: 0x10 }
  - { offsetInCU: 0x2D4FC, offset: 0x2D4FC, size: 0x8, addend: 0x0, symName: __ZNSt3__14moveB7v160006INS_16reverse_iteratorIPP9Temp_tempEES5_EET0_T_S7_S6_, symObjAddr: 0x23968, symBinAddr: 0x100025F60, symSize: 0x78 }
  - { offsetInCU: 0x2D556, offset: 0x2D556, size: 0x8, addend: 0x0, symName: __ZNSt3__16__moveB7v160006INS_17_ClassicAlgPolicyENS_16reverse_iteratorIPP9Temp_tempEES6_S6_EENS_4pairIT0_T2_EES8_T1_S9_, symObjAddr: 0x239E0, symBinAddr: 0x100025FD8, symSize: 0x64 }
  - { offsetInCU: 0x2D5C2, offset: 0x2D5C2, size: 0x8, addend: 0x0, symName: __ZNSt3__123__dispatch_copy_or_moveB7v160006INS_17_ClassicAlgPolicyENS_11__move_loopIS1_EENS_14__move_trivialENS_16reverse_iteratorIPP9Temp_tempEES9_S9_EENS_4pairIT2_T4_EESB_T3_SC_, symObjAddr: 0x23A44, symBinAddr: 0x10002603C, symSize: 0x64 }
  - { offsetInCU: 0x2D640, offset: 0x2D640, size: 0x8, addend: 0x0, symName: __ZNSt3__121__unwrap_and_dispatchB7v160006INS_10__overloadINS_11__move_loopINS_17_ClassicAlgPolicyEEENS_14__move_trivialEEENS_16reverse_iteratorIPP9Temp_tempEESB_SB_Li0EEENS_4pairIT0_T2_EESD_T1_SE_, symObjAddr: 0x23AA8, symBinAddr: 0x1000260A0, symSize: 0x12C }
  - { offsetInCU: 0x2D6D0, offset: 0x2D6D0, size: 0x8, addend: 0x0, symName: __ZNSt3__114__unwrap_rangeB7v160006INS_16reverse_iteratorIPP9Temp_tempEES5_EENS_4pairIT0_S7_EET_S9_, symObjAddr: 0x23BD4, symBinAddr: 0x1000261CC, symSize: 0x84 }
  - { offsetInCU: 0x2D7F0, offset: 0x2D7F0, size: 0x8, addend: 0x0, symName: __ZNSt3__113__unwrap_iterB7v160006INS_16reverse_iteratorIPP9Temp_tempEENS_18__unwrap_iter_implIS5_Lb0EEELi0EEEDTclsrT0_8__unwrapclsr3stdE7declvalIT_EEEES9_, symObjAddr: 0x23CF8, symBinAddr: 0x1000262F0, symSize: 0x44 }
  - { offsetInCU: 0x2D834, offset: 0x2D834, size: 0x8, addend: 0x0, symName: __ZNSt3__19make_pairB7v160006INS_16reverse_iteratorIPP9Temp_tempEES5_EENS_4pairINS_18__unwrap_ref_decayIT_E4typeENS7_IT0_E4typeEEEOS8_OSB_, symObjAddr: 0x23D3C, symBinAddr: 0x100026334, symSize: 0x38 }
  - { offsetInCU: 0x2D883, offset: 0x2D883, size: 0x8, addend: 0x0, symName: __ZNSt3__114__rewrap_rangeB7v160006INS_16reverse_iteratorIPP9Temp_tempEES5_EET_S6_T0_, symObjAddr: 0x23D74, symBinAddr: 0x10002636C, symSize: 0x5C }
  - { offsetInCU: 0x2D8CF, offset: 0x2D8CF, size: 0x8, addend: 0x0, symName: __ZNSt3__113__rewrap_iterB7v160006INS_16reverse_iteratorIPP9Temp_tempEES5_NS_18__unwrap_iter_implIS5_Lb0EEEEET_S8_T0_, symObjAddr: 0x23DD0, symBinAddr: 0x1000263C8, symSize: 0x74 }
  - { offsetInCU: 0x2D990, offset: 0x2D990, size: 0x8, addend: 0x0, symName: __ZNSt3__119__debug_db_insert_cB7v160006INS_6vectorIP10AS_operandNS_9allocatorIS3_EEEEEEvPT_, symObjAddr: 0x24338, symBinAddr: 0x100026930, symSize: 0x10 }
  - { offsetInCU: 0x2D9C1, offset: 0x2D9C1, size: 0x8, addend: 0x0, symName: __ZNSt3__118__debug_db_erase_cB7v160006INS_6vectorIP10AS_operandNS_9allocatorIS3_EEEEEEvPT_, symObjAddr: 0x245FC, symBinAddr: 0x100026BF4, symSize: 0x10 }
  - { offsetInCU: 0x2D9F2, offset: 0x2D9F2, size: 0x8, addend: 0x0, symName: __ZNSt3__112__to_addressB7v160006IP10AS_operandEEPT_S4_, symObjAddr: 0x24740, symBinAddr: 0x100026D38, symSize: 0x14 }
  - { offsetInCU: 0x2DA27, offset: 0x2DA27, size: 0x8, addend: 0x0, symName: __ZNSt3__119__allocate_at_leastB7v160006INS_9allocatorIP10AS_operandEEEENS_19__allocation_resultINS_16allocator_traitsIT_E7pointerEEERS7_m, symObjAddr: 0x25048, symBinAddr: 0x100027640, symSize: 0x40 }
  - { offsetInCU: 0x2DA6A, offset: 0x2DA6A, size: 0x8, addend: 0x0, symName: __ZNSt3__142__uninitialized_allocator_move_if_noexceptB7v160006INS_9allocatorIP10AS_operandEENS_16reverse_iteratorIPS3_EES7_S3_vEET1_RT_T0_SB_S8_, symObjAddr: 0x251FC, symBinAddr: 0x1000277F4, symSize: 0x78 }
  - { offsetInCU: 0x2DAE7, offset: 0x2DAE7, size: 0x8, addend: 0x0, symName: __ZNSt3__14swapB7v160006IPP10AS_operandEENS_9enable_ifIXaasr21is_move_constructibleIT_EE5valuesr18is_move_assignableIS5_EE5valueEvE4typeERS5_S8_, symObjAddr: 0x252C0, symBinAddr: 0x1000278B8, symSize: 0x3C }
  - { offsetInCU: 0x2DB38, offset: 0x2DB38, size: 0x8, addend: 0x0, symName: __ZNSt3__125__debug_db_invalidate_allB7v160006INS_6vectorIP10AS_operandNS_9allocatorIS3_EEEEEEvPT_, symObjAddr: 0x253A8, symBinAddr: 0x1000279A0, symSize: 0x10 }
  - { offsetInCU: 0x2DB69, offset: 0x2DB69, size: 0x8, addend: 0x0, symName: __ZNSt3__14moveB7v160006INS_16reverse_iteratorIPP10AS_operandEES5_EET0_T_S7_S6_, symObjAddr: 0x253B8, symBinAddr: 0x1000279B0, symSize: 0x78 }
  - { offsetInCU: 0x2DBC3, offset: 0x2DBC3, size: 0x8, addend: 0x0, symName: __ZNSt3__16__moveB7v160006INS_17_ClassicAlgPolicyENS_16reverse_iteratorIPP10AS_operandEES6_S6_EENS_4pairIT0_T2_EES8_T1_S9_, symObjAddr: 0x25430, symBinAddr: 0x100027A28, symSize: 0x64 }
  - { offsetInCU: 0x2DC2F, offset: 0x2DC2F, size: 0x8, addend: 0x0, symName: __ZNSt3__123__dispatch_copy_or_moveB7v160006INS_17_ClassicAlgPolicyENS_11__move_loopIS1_EENS_14__move_trivialENS_16reverse_iteratorIPP10AS_operandEES9_S9_EENS_4pairIT2_T4_EESB_T3_SC_, symObjAddr: 0x25494, symBinAddr: 0x100027A8C, symSize: 0x64 }
  - { offsetInCU: 0x2DCAD, offset: 0x2DCAD, size: 0x8, addend: 0x0, symName: __ZNSt3__121__unwrap_and_dispatchB7v160006INS_10__overloadINS_11__move_loopINS_17_ClassicAlgPolicyEEENS_14__move_trivialEEENS_16reverse_iteratorIPP10AS_operandEESB_SB_Li0EEENS_4pairIT0_T2_EESD_T1_SE_, symObjAddr: 0x254F8, symBinAddr: 0x100027AF0, symSize: 0x12C }
  - { offsetInCU: 0x2DD3D, offset: 0x2DD3D, size: 0x8, addend: 0x0, symName: __ZNSt3__114__unwrap_rangeB7v160006INS_16reverse_iteratorIPP10AS_operandEES5_EENS_4pairIT0_S7_EET_S9_, symObjAddr: 0x25624, symBinAddr: 0x100027C1C, symSize: 0x84 }
  - { offsetInCU: 0x2DE5D, offset: 0x2DE5D, size: 0x8, addend: 0x0, symName: __ZNSt3__113__unwrap_iterB7v160006INS_16reverse_iteratorIPP10AS_operandEENS_18__unwrap_iter_implIS5_Lb0EEELi0EEEDTclsrT0_8__unwrapclsr3stdE7declvalIT_EEEES9_, symObjAddr: 0x25748, symBinAddr: 0x100027D40, symSize: 0x44 }
  - { offsetInCU: 0x2DEA1, offset: 0x2DEA1, size: 0x8, addend: 0x0, symName: __ZNSt3__19make_pairB7v160006INS_16reverse_iteratorIPP10AS_operandEES5_EENS_4pairINS_18__unwrap_ref_decayIT_E4typeENS7_IT0_E4typeEEEOS8_OSB_, symObjAddr: 0x2578C, symBinAddr: 0x100027D84, symSize: 0x38 }
  - { offsetInCU: 0x2DEF0, offset: 0x2DEF0, size: 0x8, addend: 0x0, symName: __ZNSt3__114__rewrap_rangeB7v160006INS_16reverse_iteratorIPP10AS_operandEES5_EET_S6_T0_, symObjAddr: 0x257C4, symBinAddr: 0x100027DBC, symSize: 0x5C }
  - { offsetInCU: 0x2DF3C, offset: 0x2DF3C, size: 0x8, addend: 0x0, symName: __ZNSt3__113__rewrap_iterB7v160006INS_16reverse_iteratorIPP10AS_operandEES5_NS_18__unwrap_iter_implIS5_Lb0EEEEET_S8_T0_, symObjAddr: 0x25820, symBinAddr: 0x100027E18, symSize: 0x74 }
  - { offsetInCU: 0x2DF91, offset: 0x2DF91, size: 0x8, addend: 0x0, symName: __ZNSt3__1neB7v160006IPP10AS_operandS3_EEbRKNS_16reverse_iteratorIT_EERKNS4_IT0_EE, symObjAddr: 0x25894, symBinAddr: 0x100027E8C, symSize: 0x48 }
  - { offsetInCU: 0x2E0AF, offset: 0x2E0AF, size: 0x8, addend: 0x0, symName: __ZNSt3__119__debug_db_insert_cB7v160006INS_4listIPN6LLVMIR7L_blockENS_9allocatorIS4_EEEEEEvPT_, symObjAddr: 0x26C40, symBinAddr: 0x100029238, symSize: 0x10 }
  - { offsetInCU: 0x2E0E0, offset: 0x2E0E0, size: 0x8, addend: 0x0, symName: __ZNSt3__1eqB7v160006ERKNS_15__list_iteratorIPN6LLVMIR5L_stmEPvEES7_, symObjAddr: 0x26E7C, symBinAddr: 0x100029474, symSize: 0x30 }
  - { offsetInCU: 0x2E13B, offset: 0x2E13B, size: 0x8, addend: 0x0, symName: __ZNSt3__1eqB7v160006ERKNS_15__list_iteratorIPN6LLVMIR7L_blockEPvEES7_, symObjAddr: 0x275E8, symBinAddr: 0x100029BE0, symSize: 0x30 }
  - { offsetInCU: 0x2E178, offset: 0x2E178, size: 0x8, addend: 0x0, symName: __ZNSt3__1neB7v160006ERKNS_15__hash_iteratorIPNS_11__hash_nodeINS_17__hash_value_typeINS_12basic_stringIcNS_11char_traitsIcEENS_9allocatorIcEEEEP9Temp_tempEEPvEEEESH_, symObjAddr: 0x278C4, symBinAddr: 0x100029EBC, symSize: 0x34 }
  - { offsetInCU: 0x2E1B5, offset: 0x2E1B5, size: 0x8, addend: 0x0, symName: __ZNSt3__1eqB7v160006ERKNS_15__hash_iteratorIPNS_11__hash_nodeINS_17__hash_value_typeINS_12basic_stringIcNS_11char_traitsIcEENS_9allocatorIcEEEEP9Temp_tempEEPvEEEESH_, symObjAddr: 0x278F8, symBinAddr: 0x100029EF0, symSize: 0x30 }
  - { offsetInCU: 0x2E1F2, offset: 0x2E1F2, size: 0x8, addend: 0x0, symName: __ZNSt3__1neB7v160006ERKNS_15__hash_iteratorIPNS_11__hash_nodeINS_17__hash_value_typeINS_12basic_stringIcNS_11char_traitsIcEENS_9allocatorIcEEEEP9Name_nameEEPvEEEESH_, symObjAddr: 0x27B0C, symBinAddr: 0x10002A104, symSize: 0x34 }
  - { offsetInCU: 0x2E22F, offset: 0x2E22F, size: 0x8, addend: 0x0, symName: __ZNSt3__1eqB7v160006ERKNS_15__hash_iteratorIPNS_11__hash_nodeINS_17__hash_value_typeINS_12basic_stringIcNS_11char_traitsIcEENS_9allocatorIcEEEEP9Name_nameEEPvEEEESH_, symObjAddr: 0x27B40, symBinAddr: 0x10002A138, symSize: 0x30 }
  - { offsetInCU: 0x2EA7B, offset: 0x2EA7B, size: 0x8, addend: 0x0, symName: __ZSt28__throw_bad_array_new_lengthB7v160006v, symObjAddr: 0xBF34, symBinAddr: 0x10000E52C, symSize: 0x34 }
  - { offsetInCU: 0x2F952, offset: 0x2F952, size: 0x8, addend: 0x0, symName: __ZL13structInfoMap, symObjAddr: 0x18B7D8, symBinAddr: 0x100080038, symSize: 0x0 }
  - { offsetInCU: 0x30429, offset: 0x30429, size: 0x8, addend: 0x0, symName: __ZL12globalVarMap, symObjAddr: 0x18B800, symBinAddr: 0x100080060, symSize: 0x0 }
  - { offsetInCU: 0x30994, offset: 0x30994, size: 0x8, addend: 0x0, symName: __ZL11localVarMap, symObjAddr: 0x18B828, symBinAddr: 0x100080088, symSize: 0x0 }
  - { offsetInCU: 0x30EC0, offset: 0x30EC0, size: 0x8, addend: 0x0, symName: __ZL8emit_irs, symObjAddr: 0x18B850, symBinAddr: 0x1000800B0, symSize: 0x0 }
  - { offsetInCU: 0x31480, offset: 0x31480, size: 0x8, addend: 0x0, symName: __ZL12funcParamMap, symObjAddr: 0x18B868, symBinAddr: 0x1000800C8, symSize: 0x0 }
  - { offsetInCU: 0x31499, offset: 0x31499, size: 0x8, addend: 0x0, symName: __ZL8isInFunc, symObjAddr: 0x18B890, symBinAddr: 0x1000800F0, symSize: 0x0 }
  - { offsetInCU: 0x3266D, offset: 0x3266D, size: 0x8, addend: 0x0, symName: __ZNSt3__16vectorIPN6LLVMIR6L_funcENS_9allocatorIS3_EEE26__swap_out_circular_bufferERNS_14__split_bufferIS3_RS5_EE, symObjAddr: 0x117E4, symBinAddr: 0x100013DDC, symSize: 0x118 }
  - { offsetInCU: 0x326C7, offset: 0x326C7, size: 0x8, addend: 0x0, symName: __ZNSt3__16vectorIPN6LLVMIR5L_defENS_9allocatorIS3_EEE26__swap_out_circular_bufferERNS_14__split_bufferIS3_RS5_EE, symObjAddr: 0x134B0, symBinAddr: 0x100015AA8, symSize: 0x118 }
  - { offsetInCU: 0x327E0, offset: 0x327E0, size: 0x8, addend: 0x0, symName: __ZNSt3__16vectorIiNS_9allocatorIiEEE26__swap_out_circular_bufferERNS_14__split_bufferIiRS2_EE, symObjAddr: 0x1A080, symBinAddr: 0x10001C678, symSize: 0x118 }
  - { offsetInCU: 0x32835, offset: 0x32835, size: 0x8, addend: 0x0, symName: __ZNSt3__16vectorI7TempDefNS_9allocatorIS1_EEE26__swap_out_circular_bufferERNS_14__split_bufferIS1_RS3_EE, symObjAddr: 0x1CB24, symBinAddr: 0x10001F11C, symSize: 0x118 }
  - { offsetInCU: 0x328B2, offset: 0x328B2, size: 0x8, addend: 0x0, symName: __ZNSt3__16vectorIP10Func_localNS_9allocatorIS2_EEE26__swap_out_circular_bufferERNS_14__split_bufferIS2_RS4_EE, symObjAddr: 0x20380, symBinAddr: 0x100022978, symSize: 0x118 }
  - { offsetInCU: 0x3295C, offset: 0x3295C, size: 0x8, addend: 0x0, symName: __ZNSt3__16vectorIP9Temp_tempNS_9allocatorIS2_EEE26__swap_out_circular_bufferERNS_14__split_bufferIS2_RS4_EE, symObjAddr: 0x23534, symBinAddr: 0x100025B2C, symSize: 0x118 }
  - { offsetInCU: 0x329A2, offset: 0x329A2, size: 0x8, addend: 0x0, symName: __ZNSt3__16vectorIP10AS_operandNS_9allocatorIS2_EEE26__swap_out_circular_bufferERNS_14__split_bufferIS2_RS4_EE, symObjAddr: 0x24CE0, symBinAddr: 0x1000272D8, symSize: 0x118 }
  - { offsetInCU: 0x34BE3, offset: 0x34BE3, size: 0x8, addend: 0x0, symName: __ZNSt3__113unordered_mapINS_12basic_stringIcNS_11char_traitsIcEENS_9allocatorIcEEEEN6LLVMIR8FuncTypeENS_4hashIS6_EENS_8equal_toIS6_EENS4_INS_4pairIKS6_S8_EEEEEC1B7v160006Ev, symObjAddr: 0x0, symBinAddr: 0x1000025F8, symSize: 0x2C }
  - { offsetInCU: 0x34C0C, offset: 0x34C0C, size: 0x8, addend: 0x0, symName: __ZNSt3__113unordered_mapINS_12basic_stringIcNS_11char_traitsIcEENS_9allocatorIcEEEEN6LLVMIR8FuncTypeENS_4hashIS6_EENS_8equal_toIS6_EENS4_INS_4pairIKS6_S8_EEEEED1B7v160006Ev, symObjAddr: 0x2C, symBinAddr: 0x100002624, symSize: 0x2C }
  - { offsetInCU: 0x34C35, offset: 0x34C35, size: 0x8, addend: 0x0, symName: __ZNSt3__113unordered_mapINS_12basic_stringIcNS_11char_traitsIcEENS_9allocatorIcEEEE10StructInfoNS_4hashIS6_EENS_8equal_toIS6_EENS4_INS_4pairIKS6_S7_EEEEEC1B7v160006Ev, symObjAddr: 0x58, symBinAddr: 0x100002650, symSize: 0x2C }
  - { offsetInCU: 0x34C5E, offset: 0x34C5E, size: 0x8, addend: 0x0, symName: __ZNSt3__113unordered_mapINS_12basic_stringIcNS_11char_traitsIcEENS_9allocatorIcEEEE10StructInfoNS_4hashIS6_EENS_8equal_toIS6_EENS4_INS_4pairIKS6_S7_EEEEED1B7v160006Ev, symObjAddr: 0x84, symBinAddr: 0x10000267C, symSize: 0x2C }
  - { offsetInCU: 0x34C87, offset: 0x34C87, size: 0x8, addend: 0x0, symName: __ZNSt3__113unordered_mapINS_12basic_stringIcNS_11char_traitsIcEENS_9allocatorIcEEEEP9Name_nameNS_4hashIS6_EENS_8equal_toIS6_EENS4_INS_4pairIKS6_S8_EEEEEC1B7v160006Ev, symObjAddr: 0xB0, symBinAddr: 0x1000026A8, symSize: 0x2C }
  - { offsetInCU: 0x34CB0, offset: 0x34CB0, size: 0x8, addend: 0x0, symName: __ZNSt3__113unordered_mapINS_12basic_stringIcNS_11char_traitsIcEENS_9allocatorIcEEEEP9Name_nameNS_4hashIS6_EENS_8equal_toIS6_EENS4_INS_4pairIKS6_S8_EEEEED1B7v160006Ev, symObjAddr: 0xDC, symBinAddr: 0x1000026D4, symSize: 0x2C }
  - { offsetInCU: 0x34CD9, offset: 0x34CD9, size: 0x8, addend: 0x0, symName: __ZNSt3__113unordered_mapINS_12basic_stringIcNS_11char_traitsIcEENS_9allocatorIcEEEEP9Temp_tempNS_4hashIS6_EENS_8equal_toIS6_EENS4_INS_4pairIKS6_S8_EEEEEC1B7v160006Ev, symObjAddr: 0x108, symBinAddr: 0x100002700, symSize: 0x2C }
  - { offsetInCU: 0x34D02, offset: 0x34D02, size: 0x8, addend: 0x0, symName: __ZNSt3__113unordered_mapINS_12basic_stringIcNS_11char_traitsIcEENS_9allocatorIcEEEEP9Temp_tempNS_4hashIS6_EENS_8equal_toIS6_EENS4_INS_4pairIKS6_S8_EEEEED1B7v160006Ev, symObjAddr: 0x134, symBinAddr: 0x10000272C, symSize: 0x2C }
  - { offsetInCU: 0x34D2B, offset: 0x34D2B, size: 0x8, addend: 0x0, symName: __ZNSt3__14listIPN6LLVMIR5L_stmENS_9allocatorIS3_EEEC1B7v160006Ev, symObjAddr: 0x160, symBinAddr: 0x100002758, symSize: 0x2C }
  - { offsetInCU: 0x34D54, offset: 0x34D54, size: 0x8, addend: 0x0, symName: __ZNSt3__14listIPN6LLVMIR5L_stmENS_9allocatorIS3_EEED1Ev, symObjAddr: 0x18C, symBinAddr: 0x100002784, symSize: 0x2C }
  - { offsetInCU: 0x34D7F, offset: 0x34D7F, size: 0x8, addend: 0x0, symName: __Z8ast2llvmP11aA_program_, symObjAddr: 0x1B8, symBinAddr: 0x1000027B0, symSize: 0x1C8 }
  - { offsetInCU: 0x34E6E, offset: 0x34E6E, size: 0x8, addend: 0x0, symName: __Z18ast2llvmProg_firstP11aA_program_, symObjAddr: 0x380, symBinAddr: 0x100002978, symSize: 0x34B4 }
  - { offsetInCU: 0x35234, offset: 0x35234, size: 0x8, addend: 0x0, symName: __Z19ast2llvmProg_secondP11aA_program_, symObjAddr: 0x3848, symBinAddr: 0x100005E40, symSize: 0x134 }
  - { offsetInCU: 0x352BE, offset: 0x352BE, size: 0x8, addend: 0x0, symName: __ZNSt3__16vectorIPN6LLVMIR6L_funcENS_9allocatorIS3_EEEC1B7v160006Ev, symObjAddr: 0x397C, symBinAddr: 0x100005F74, symSize: 0x2C }
  - { offsetInCU: 0x352E6, offset: 0x352E6, size: 0x8, addend: 0x0, symName: __ZNSt3__16vectorIP10Func_localNS_9allocatorIS2_EEE5beginB7v160006Ev, symObjAddr: 0x39A8, symBinAddr: 0x100005FA0, symSize: 0x30 }
  - { offsetInCU: 0x3530C, offset: 0x3530C, size: 0x8, addend: 0x0, symName: __ZNSt3__16vectorIP10Func_localNS_9allocatorIS2_EEE3endB7v160006Ev, symObjAddr: 0x39D8, symBinAddr: 0x100005FD0, symSize: 0x30 }
  - { offsetInCU: 0x35333, offset: 0x35333, size: 0x8, addend: 0x0, symName: __ZNKSt3__111__wrap_iterIPP10Func_localEdeB7v160006Ev, symObjAddr: 0x3A3C, symBinAddr: 0x100006034, symSize: 0x18 }
  - { offsetInCU: 0x35357, offset: 0x35357, size: 0x8, addend: 0x0, symName: __ZNSt3__16vectorIPN6LLVMIR6L_funcENS_9allocatorIS3_EEE9push_backB7v160006EOS3_, symObjAddr: 0x3A54, symBinAddr: 0x10000604C, symSize: 0x6C }
  - { offsetInCU: 0x3538C, offset: 0x3538C, size: 0x8, addend: 0x0, symName: __Z17ast2llvmFuncBlockP10Func_local, symObjAddr: 0x3AC0, symBinAddr: 0x1000060B8, symSize: 0x318 }
  - { offsetInCU: 0x35429, offset: 0x35429, size: 0x8, addend: 0x0, symName: __ZNSt3__111__wrap_iterIPP10Func_localEppB7v160006Ev, symObjAddr: 0x3DD8, symBinAddr: 0x1000063D0, symSize: 0x20 }
  - { offsetInCU: 0x3544D, offset: 0x3544D, size: 0x8, addend: 0x0, symName: __ZNSt3__16vectorIPN6LLVMIR6L_funcENS_9allocatorIS3_EEE5beginB7v160006Ev, symObjAddr: 0x3DF8, symBinAddr: 0x1000063F0, symSize: 0x30 }
  - { offsetInCU: 0x35473, offset: 0x35473, size: 0x8, addend: 0x0, symName: __ZNSt3__16vectorIPN6LLVMIR6L_funcENS_9allocatorIS3_EEE3endB7v160006Ev, symObjAddr: 0x3E28, symBinAddr: 0x100006420, symSize: 0x30 }
  - { offsetInCU: 0x3549A, offset: 0x3549A, size: 0x8, addend: 0x0, symName: __ZNKSt3__111__wrap_iterIPPN6LLVMIR6L_funcEEdeB7v160006Ev, symObjAddr: 0x3E8C, symBinAddr: 0x100006484, symSize: 0x18 }
  - { offsetInCU: 0x354BE, offset: 0x354BE, size: 0x8, addend: 0x0, symName: __Z19ast2llvm_moveAllocaPN6LLVMIR6L_funcE, symObjAddr: 0x3EA4, symBinAddr: 0x10000649C, symSize: 0x1A8 }
  - { offsetInCU: 0x355C2, offset: 0x355C2, size: 0x8, addend: 0x0, symName: __ZNSt3__111__wrap_iterIPPN6LLVMIR6L_funcEEppB7v160006Ev, symObjAddr: 0x404C, symBinAddr: 0x100006644, symSize: 0x20 }
  - { offsetInCU: 0x355E7, offset: 0x355E7, size: 0x8, addend: 0x0, symName: __ZNSt3__16vectorIPN6LLVMIR6L_funcENS_9allocatorIS3_EEED1B7v160006Ev, symObjAddr: 0x406C, symBinAddr: 0x100006664, symSize: 0x2C }
  - { offsetInCU: 0x35610, offset: 0x35610, size: 0x8, addend: 0x0, symName: __ZNSt3__16vectorIP10Func_localNS_9allocatorIS2_EEED1B7v160006Ev, symObjAddr: 0x4098, symBinAddr: 0x100006690, symSize: 0x2C }
  - { offsetInCU: 0x35639, offset: 0x35639, size: 0x8, addend: 0x0, symName: __ZNSt3__16vectorIPN6LLVMIR5L_defENS_9allocatorIS3_EEED1B7v160006Ev, symObjAddr: 0x40C4, symBinAddr: 0x1000066BC, symSize: 0x2C }
  - { offsetInCU: 0x35661, offset: 0x35661, size: 0x8, addend: 0x0, symName: __Z22ast2llvmRightVal_firstP12aA_rightVal_, symObjAddr: 0x40F0, symBinAddr: 0x1000066E8, symSize: 0xA0 }
  - { offsetInCU: 0x3568D, offset: 0x3568D, size: 0x8, addend: 0x0, symName: __Z23ast2llvmArithExpr_firstP13aA_arithExpr_, symObjAddr: 0x4190, symBinAddr: 0x100006788, symSize: 0x98 }
  - { offsetInCU: 0x356B9, offset: 0x356B9, size: 0x8, addend: 0x0, symName: __Z22ast2llvmBoolExpr_firstP12aA_boolExpr_, symObjAddr: 0x4228, symBinAddr: 0x100006820, symSize: 0x84 }
  - { offsetInCU: 0x356E5, offset: 0x356E5, size: 0x8, addend: 0x0, symName: __Z26ast2llvmBoolBiOpExpr_firstP16aA_boolBiOpExpr_, symObjAddr: 0x42AC, symBinAddr: 0x1000068A4, symSize: 0xD8 }
  - { offsetInCU: 0x3572D, offset: 0x3572D, size: 0x8, addend: 0x0, symName: __Z22ast2llvmBoolUnit_firstP12aA_boolUnit_, symObjAddr: 0x4384, symBinAddr: 0x10000697C, symSize: 0xAC }
  - { offsetInCU: 0x35759, offset: 0x35759, size: 0x8, addend: 0x0, symName: __Z25ast2llvmBoolUOpExpr_firstP15aA_boolUOpExpr_, symObjAddr: 0x4430, symBinAddr: 0x100006A28, symSize: 0x60 }
  - { offsetInCU: 0x35785, offset: 0x35785, size: 0x8, addend: 0x0, symName: __Z23ast2llvmComOpExpr_firstP11aA_comExpr_, symObjAddr: 0x4490, symBinAddr: 0x100006A88, symSize: 0x12C }
  - { offsetInCU: 0x357CD, offset: 0x357CD, size: 0x8, addend: 0x0, symName: __Z22ast2llvmExprUnit_firstP12aA_exprUnit_, symObjAddr: 0x45D4, symBinAddr: 0x100006BCC, symSize: 0xC0 }
  - { offsetInCU: 0x357F9, offset: 0x357F9, size: 0x8, addend: 0x0, symName: __Z27ast2llvmArithBiOpExpr_firstP17aA_arithBiOpExpr_, symObjAddr: 0x4694, symBinAddr: 0x100006C8C, symSize: 0xD4 }
  - { offsetInCU: 0x35841, offset: 0x35841, size: 0x8, addend: 0x0, symName: __Z24ast2llvmArithUExpr_firstP14aA_arithUExpr_, symObjAddr: 0x4778, symBinAddr: 0x100006D70, symSize: 0x5C }
  - { offsetInCU: 0x3586E, offset: 0x3586E, size: 0x8, addend: 0x0, symName: __ZNSt3__16vectorIPN6LLVMIR5L_defENS_9allocatorIS3_EEEC1B7v160006Ev, symObjAddr: 0x47D4, symBinAddr: 0x100006DCC, symSize: 0x2C }
  - { offsetInCU: 0x35896, offset: 0x35896, size: 0x8, addend: 0x0, symName: __ZNSt3__16vectorIPN6LLVMIR5L_defENS_9allocatorIS3_EEE9push_backB7v160006EOS3_, symObjAddr: 0x4800, symBinAddr: 0x100006DF8, symSize: 0x6C }
  - { offsetInCU: 0x358D1, offset: 0x358D1, size: 0x8, addend: 0x0, symName: __ZNSt3__112basic_stringIcNS_11char_traitsIcEENS_9allocatorIcEEEC1B7v160006IDnEEPKc, symObjAddr: 0x486C, symBinAddr: 0x100006E64, symSize: 0x34 }
  - { offsetInCU: 0x3590E, offset: 0x3590E, size: 0x8, addend: 0x0, symName: __ZNSt3__16vectorI7TempDefNS_9allocatorIS1_EEEC1B7v160006Ev, symObjAddr: 0x48A0, symBinAddr: 0x100006E98, symSize: 0x2C }
  - { offsetInCU: 0x35937, offset: 0x35937, size: 0x8, addend: 0x0, symName: __ZNSt3__112basic_stringIcNS_11char_traitsIcEENS_9allocatorIcEEEC1B7v160006Ev, symObjAddr: 0x48CC, symBinAddr: 0x100006EC4, symSize: 0x2C }
  - { offsetInCU: 0x35960, offset: 0x35960, size: 0x8, addend: 0x0, symName: __ZN6LLVMIR8FuncTypeC1ENS_10ReturnTypeENSt3__112basic_stringIcNS2_11char_traitsIcEENS2_9allocatorIcEEEE, symObjAddr: 0x48F8, symBinAddr: 0x100006EF0, symSize: 0x3C }
  - { offsetInCU: 0x359A6, offset: 0x359A6, size: 0x8, addend: 0x0, symName: __ZN6LLVMIR8FuncTypeD1Ev, symObjAddr: 0x4934, symBinAddr: 0x100006F2C, symSize: 0x2C }
  - { offsetInCU: 0x359D1, offset: 0x359D1, size: 0x8, addend: 0x0, symName: __ZNSt3__16vectorI7TempDefNS_9allocatorIS1_EEED1B7v160006Ev, symObjAddr: 0x4960, symBinAddr: 0x100006F58, symSize: 0x2C }
  - { offsetInCU: 0x359FA, offset: 0x359FA, size: 0x8, addend: 0x0, symName: __ZNSt3__16vectorI7TempDefNS_9allocatorIS1_EEEC1B7v160006ESt16initializer_listIS1_E, symObjAddr: 0x498C, symBinAddr: 0x100006F84, symSize: 0x3C }
  - { offsetInCU: 0x35A34, offset: 0x35A34, size: 0x8, addend: 0x0, symName: __ZN7TempDefD1Ev, symObjAddr: 0x49C8, symBinAddr: 0x100006FC0, symSize: 0x2C }
  - { offsetInCU: 0x35A5E, offset: 0x35A5E, size: 0x8, addend: 0x0, symName: __ZNSt3__113unordered_mapINS_12basic_stringIcNS_11char_traitsIcEENS_9allocatorIcEEEEN6LLVMIR8FuncTypeENS_4hashIS6_EENS_8equal_toIS6_EENS4_INS_4pairIKS6_S8_EEEEEixEOS6_, symObjAddr: 0x49F4, symBinAddr: 0x100006FEC, symSize: 0x80 }
  - { offsetInCU: 0x35A9E, offset: 0x35A9E, size: 0x8, addend: 0x0, symName: __ZN6LLVMIR8FuncTypeaSEOS0_, symObjAddr: 0x4A74, symBinAddr: 0x10000706C, symSize: 0x48 }
  - { offsetInCU: 0x36ADC, offset: 0x36ADC, size: 0x8, addend: 0x0, symName: __ZNSt3__16vectorIP18aA_programElement_NS_9allocatorIS2_EEE5beginB7v160006Ev, symObjAddr: 0x4ABC, symBinAddr: 0x1000070B4, symSize: 0x30 }
  - { offsetInCU: 0x36B02, offset: 0x36B02, size: 0x8, addend: 0x0, symName: __ZNSt3__16vectorIP18aA_programElement_NS_9allocatorIS2_EEE3endB7v160006Ev, symObjAddr: 0x4AEC, symBinAddr: 0x1000070E4, symSize: 0x30 }
  - { offsetInCU: 0x36B29, offset: 0x36B29, size: 0x8, addend: 0x0, symName: __ZNKSt3__111__wrap_iterIPP18aA_programElement_EdeB7v160006Ev, symObjAddr: 0x4B50, symBinAddr: 0x100007148, symSize: 0x18 }
  - { offsetInCU: 0x36B53, offset: 0x36B53, size: 0x8, addend: 0x0, symName: __ZNSt3__113unordered_mapINS_12basic_stringIcNS_11char_traitsIcEENS_9allocatorIcEEEEP9Name_nameNS_4hashIS6_EENS_8equal_toIS6_EENS4_INS_4pairIKS6_S8_EEEEE7emplaceB7v160006IJRS6_S8_EEENSD_INS_19__hash_map_iteratorINS_15__hash_iteratorIPNS_11__hash_nodeINS_17__hash_value_typeIS6_S8_EEPvEEEEEEbEEDpOT_, symObjAddr: 0x4B68, symBinAddr: 0x100007160, symSize: 0x54 }
  - { offsetInCU: 0x36BA6, offset: 0x36BA6, size: 0x8, addend: 0x0, symName: __ZN7TempDefC1ERKS_, symObjAddr: 0x4BBC, symBinAddr: 0x1000071B4, symSize: 0x34 }
  - { offsetInCU: 0x36BDA, offset: 0x36BDA, size: 0x8, addend: 0x0, symName: __ZNSt3__16vectorIiNS_9allocatorIiEEEC1B7v160006Ev, symObjAddr: 0x4BF0, symBinAddr: 0x1000071E8, symSize: 0x2C }
  - { offsetInCU: 0x36C03, offset: 0x36C03, size: 0x8, addend: 0x0, symName: __ZNSt3__16vectorIiNS_9allocatorIiEEED1B7v160006Ev, symObjAddr: 0x4C1C, symBinAddr: 0x100007214, symSize: 0x2C }
  - { offsetInCU: 0x36C2B, offset: 0x36C2B, size: 0x8, addend: 0x0, symName: __ZNSt3__16vectorIiNS_9allocatorIiEEE9push_backB7v160006EOi, symObjAddr: 0x4C48, symBinAddr: 0x100007240, symSize: 0x6C }
  - { offsetInCU: 0x36C60, offset: 0x36C60, size: 0x8, addend: 0x0, symName: __ZNSt3__16vectorIP12aA_rightVal_NS_9allocatorIS2_EEE5beginB7v160006Ev, symObjAddr: 0x4CB4, symBinAddr: 0x1000072AC, symSize: 0x30 }
  - { offsetInCU: 0x36C86, offset: 0x36C86, size: 0x8, addend: 0x0, symName: __ZNSt3__16vectorIP12aA_rightVal_NS_9allocatorIS2_EEE3endB7v160006Ev, symObjAddr: 0x4CE4, symBinAddr: 0x1000072DC, symSize: 0x30 }
  - { offsetInCU: 0x36CAD, offset: 0x36CAD, size: 0x8, addend: 0x0, symName: __ZNKSt3__111__wrap_iterIPP12aA_rightVal_EdeB7v160006Ev, symObjAddr: 0x4D48, symBinAddr: 0x100007340, symSize: 0x18 }
  - { offsetInCU: 0x36CD2, offset: 0x36CD2, size: 0x8, addend: 0x0, symName: __ZNSt3__111__wrap_iterIPP12aA_rightVal_EppB7v160006Ev, symObjAddr: 0x4D60, symBinAddr: 0x100007358, symSize: 0x20 }
  - { offsetInCU: 0x36CFC, offset: 0x36CFC, size: 0x8, addend: 0x0, symName: __ZN10StructInfoC1Ev, symObjAddr: 0x4D80, symBinAddr: 0x100007378, symSize: 0x2C }
  - { offsetInCU: 0x36D26, offset: 0x36D26, size: 0x8, addend: 0x0, symName: __ZNSt3__16vectorIP11aA_varDecl_NS_9allocatorIS2_EEE5beginB7v160006Ev, symObjAddr: 0x4DAC, symBinAddr: 0x1000073A4, symSize: 0x30 }
  - { offsetInCU: 0x36D4C, offset: 0x36D4C, size: 0x8, addend: 0x0, symName: __ZNSt3__16vectorIP11aA_varDecl_NS_9allocatorIS2_EEE3endB7v160006Ev, symObjAddr: 0x4DDC, symBinAddr: 0x1000073D4, symSize: 0x30 }
  - { offsetInCU: 0x36D73, offset: 0x36D73, size: 0x8, addend: 0x0, symName: __ZNKSt3__111__wrap_iterIPP11aA_varDecl_EdeB7v160006Ev, symObjAddr: 0x4E40, symBinAddr: 0x100007438, symSize: 0x18 }
  - { offsetInCU: 0x36D98, offset: 0x36D98, size: 0x8, addend: 0x0, symName: __ZN10MemberInfoC1Ei7TempDef, symObjAddr: 0x4E58, symBinAddr: 0x100007450, symSize: 0x3C }
  - { offsetInCU: 0x36DE3, offset: 0x36DE3, size: 0x8, addend: 0x0, symName: __ZNSt3__113unordered_mapINS_12basic_stringIcNS_11char_traitsIcEENS_9allocatorIcEEEE10MemberInfoNS_4hashIS6_EENS_8equal_toIS6_EENS4_INS_4pairIKS6_S7_EEEEE7emplaceB7v160006IJRS6_RS7_EEENSC_INS_19__hash_map_iteratorINS_15__hash_iteratorIPNS_11__hash_nodeINS_17__hash_value_typeIS6_S7_EEPvEEEEEEbEEDpOT_, symObjAddr: 0x4E94, symBinAddr: 0x10000748C, symSize: 0x54 }
  - { offsetInCU: 0x36E35, offset: 0x36E35, size: 0x8, addend: 0x0, symName: __ZNSt3__16vectorI7TempDefNS_9allocatorIS1_EEE9push_backB7v160006ERKS1_, symObjAddr: 0x4EE8, symBinAddr: 0x1000074E0, symSize: 0x6C }
  - { offsetInCU: 0x36E6B, offset: 0x36E6B, size: 0x8, addend: 0x0, symName: __ZN10MemberInfoD1Ev, symObjAddr: 0x4F54, symBinAddr: 0x10000754C, symSize: 0x2C }
  - { offsetInCU: 0x36E96, offset: 0x36E96, size: 0x8, addend: 0x0, symName: __ZNSt3__111__wrap_iterIPP11aA_varDecl_EppB7v160006Ev, symObjAddr: 0x4F80, symBinAddr: 0x100007578, symSize: 0x20 }
  - { offsetInCU: 0x36EC0, offset: 0x36EC0, size: 0x8, addend: 0x0, symName: __ZNSt3__113unordered_mapINS_12basic_stringIcNS_11char_traitsIcEENS_9allocatorIcEEEE10StructInfoNS_4hashIS6_EENS_8equal_toIS6_EENS4_INS_4pairIKS6_S7_EEEEE7emplaceB7v160006IJRS6_S7_EEENSC_INS_19__hash_map_iteratorINS_15__hash_iteratorIPNS_11__hash_nodeINS_17__hash_value_typeIS6_S7_EEPvEEEEEEbEEDpOT_, symObjAddr: 0x4FA0, symBinAddr: 0x100007598, symSize: 0x54 }
  - { offsetInCU: 0x36F13, offset: 0x36F13, size: 0x8, addend: 0x0, symName: __ZN10StructInfoD1Ev, symObjAddr: 0x4FF4, symBinAddr: 0x1000075EC, symSize: 0x2C }
  - { offsetInCU: 0x36F3E, offset: 0x36F3E, size: 0x8, addend: 0x0, symName: __ZNSt3__113unordered_mapINS_12basic_stringIcNS_11char_traitsIcEENS_9allocatorIcEEEEN6LLVMIR8FuncTypeENS_4hashIS6_EENS_8equal_toIS6_EENS4_INS_4pairIKS6_S8_EEEEE4findB7v160006ERSE_, symObjAddr: 0x5050, symBinAddr: 0x100007648, symSize: 0x40 }
  - { offsetInCU: 0x36F72, offset: 0x36F72, size: 0x8, addend: 0x0, symName: __ZNSt3__113unordered_mapINS_12basic_stringIcNS_11char_traitsIcEENS_9allocatorIcEEEEN6LLVMIR8FuncTypeENS_4hashIS6_EENS_8equal_toIS6_EENS4_INS_4pairIKS6_S8_EEEEE3endB7v160006Ev, symObjAddr: 0x5090, symBinAddr: 0x100007688, symSize: 0x38 }
  - { offsetInCU: 0x36F97, offset: 0x36F97, size: 0x8, addend: 0x0, symName: __ZNSt3__113unordered_mapINS_12basic_stringIcNS_11char_traitsIcEENS_9allocatorIcEEEEN6LLVMIR8FuncTypeENS_4hashIS6_EENS_8equal_toIS6_EENS4_INS_4pairIKS6_S8_EEEEE7emplaceB7v160006IJRS6_S8_EEENSD_INS_19__hash_map_iteratorINS_15__hash_iteratorIPNS_11__hash_nodeINS_17__hash_value_typeIS6_S8_EEPvEEEEEEbEEDpOT_, symObjAddr: 0x50C8, symBinAddr: 0x1000076C0, symSize: 0x54 }
  - { offsetInCU: 0x36FF4, offset: 0x36FF4, size: 0x8, addend: 0x0, symName: __ZN6LLVMIR8FuncTypeC1ERKS0_, symObjAddr: 0x511C, symBinAddr: 0x100007714, symSize: 0x34 }
  - { offsetInCU: 0x37028, offset: 0x37028, size: 0x8, addend: 0x0, symName: __ZNSt3__111__wrap_iterIPP18aA_programElement_EppB7v160006Ev, symObjAddr: 0x5150, symBinAddr: 0x100007748, symSize: 0x20 }
  - { offsetInCU: 0x3704D, offset: 0x3704D, size: 0x8, addend: 0x0, symName: __ZNSt3__16vectorIP10Func_localNS_9allocatorIS2_EEEC1B7v160006Ev, symObjAddr: 0x5170, symBinAddr: 0x100007768, symSize: 0x2C }
  - { offsetInCU: 0x37075, offset: 0x37075, size: 0x8, addend: 0x0, symName: __ZNSt3__16vectorIP10Func_localNS_9allocatorIS2_EEE9push_backB7v160006EOS2_, symObjAddr: 0x519C, symBinAddr: 0x100007794, symSize: 0x6C }
  - { offsetInCU: 0x370AA, offset: 0x370AA, size: 0x8, addend: 0x0, symName: __Z12ast2llvmFuncP9aA_fnDef_, symObjAddr: 0x5208, symBinAddr: 0x100007800, symSize: 0x830 }
  - { offsetInCU: 0x37252, offset: 0x37252, size: 0x8, addend: 0x0, symName: __ZNSt3__14listIPN6LLVMIR5L_stmENS_9allocatorIS3_EEE12emplace_backIJS3_EEERS3_DpOT_, symObjAddr: 0x5A38, symBinAddr: 0x100008030, symSize: 0xF8 }
  - { offsetInCU: 0x372C0, offset: 0x372C0, size: 0x8, addend: 0x0, symName: __ZNSt3__16vectorIP9Temp_tempNS_9allocatorIS2_EEEC1B7v160006Ev, symObjAddr: 0x5B30, symBinAddr: 0x100008128, symSize: 0x2C }
  - { offsetInCU: 0x372E8, offset: 0x372E8, size: 0x8, addend: 0x0, symName: __ZNSt3__113unordered_mapINS_12basic_stringIcNS_11char_traitsIcEENS_9allocatorIcEEEEP9Temp_tempNS_4hashIS6_EENS_8equal_toIS6_EENS4_INS_4pairIKS6_S8_EEEEEixERSE_, symObjAddr: 0x5B5C, symBinAddr: 0x100008154, symSize: 0x80 }
  - { offsetInCU: 0x3731D, offset: 0x3731D, size: 0x8, addend: 0x0, symName: __ZNSt3__16vectorIP9Temp_tempNS_9allocatorIS2_EEE9push_backB7v160006ERKS2_, symObjAddr: 0x5BDC, symBinAddr: 0x1000081D4, symSize: 0x6C }
  - { offsetInCU: 0x37352, offset: 0x37352, size: 0x8, addend: 0x0, symName: __ZNSt3__16vectorIP17aA_codeBlockStmt_NS_9allocatorIS2_EEE5beginB7v160006Ev, symObjAddr: 0x5C48, symBinAddr: 0x100008240, symSize: 0x30 }
  - { offsetInCU: 0x37378, offset: 0x37378, size: 0x8, addend: 0x0, symName: __ZNSt3__16vectorIP17aA_codeBlockStmt_NS_9allocatorIS2_EEE3endB7v160006Ev, symObjAddr: 0x5C78, symBinAddr: 0x100008270, symSize: 0x30 }
  - { offsetInCU: 0x3739F, offset: 0x3739F, size: 0x8, addend: 0x0, symName: __ZNKSt3__111__wrap_iterIPP17aA_codeBlockStmt_EdeB7v160006Ev, symObjAddr: 0x5CDC, symBinAddr: 0x1000082D4, symSize: 0x18 }
  - { offsetInCU: 0x373C3, offset: 0x373C3, size: 0x8, addend: 0x0, symName: __Z13ast2llvmBlockP17aA_codeBlockStmt_P10Temp_labelS2_, symObjAddr: 0x5CF4, symBinAddr: 0x1000082EC, symSize: 0xB5C }
  - { offsetInCU: 0x3788D, offset: 0x3788D, size: 0x8, addend: 0x0, symName: __ZNSt3__111__wrap_iterIPP17aA_codeBlockStmt_EppB7v160006Ev, symObjAddr: 0x6850, symBinAddr: 0x100008E48, symSize: 0x20 }
  - { offsetInCU: 0x378B2, offset: 0x378B2, size: 0x8, addend: 0x0, symName: __ZNSt3__14listIPN6LLVMIR5L_stmENS_9allocatorIS3_EEE4backB7v160006Ev, symObjAddr: 0x6870, symBinAddr: 0x100008E68, symSize: 0x2C }
  - { offsetInCU: 0x378D6, offset: 0x378D6, size: 0x8, addend: 0x0, symName: __ZNSt3__14listIPN6LLVMIR5L_stmENS_9allocatorIS3_EEE9push_backEOS3_, symObjAddr: 0x689C, symBinAddr: 0x100008E94, symSize: 0xEC }
  - { offsetInCU: 0x3792A, offset: 0x3792A, size: 0x8, addend: 0x0, symName: __ZN10Func_localC1ENSt3__112basic_stringIcNS0_11char_traitsIcEENS0_9allocatorIcEEEEN6LLVMIR8FuncTypeERKNS0_6vectorIP9Temp_tempNS4_ISB_EEEERKNS0_4listIPNS7_5L_stmENS4_ISI_EEEE, symObjAddr: 0x6988, symBinAddr: 0x100008F80, symSize: 0x4C }
  - { offsetInCU: 0x3798D, offset: 0x3798D, size: 0x8, addend: 0x0, symName: __ZNKSt3__112basic_stringIcNS_11char_traitsIcEENS_9allocatorIcEEE5c_strB7v160006Ev, symObjAddr: 0x69D4, symBinAddr: 0x100008FCC, symSize: 0x24 }
  - { offsetInCU: 0x379B2, offset: 0x379B2, size: 0x8, addend: 0x0, symName: __ZNKSt3__14listIPN6LLVMIR5L_stmENS_9allocatorIS3_EEE4sizeB7v160006Ev, symObjAddr: 0x69F8, symBinAddr: 0x100008FF0, symSize: 0x28 }
  - { offsetInCU: 0x379D7, offset: 0x379D7, size: 0x8, addend: 0x0, symName: __ZNSt3__14listIPN6LLVMIR5L_stmENS_9allocatorIS3_EEE5clearB7v160006Ev, symObjAddr: 0x6A20, symBinAddr: 0x100009018, symSize: 0x24 }
  - { offsetInCU: 0x379FC, offset: 0x379FC, size: 0x8, addend: 0x0, symName: __ZNSt3__113unordered_mapINS_12basic_stringIcNS_11char_traitsIcEENS_9allocatorIcEEEEP9Temp_tempNS_4hashIS6_EENS_8equal_toIS6_EENS4_INS_4pairIKS6_S8_EEEEE5clearB7v160006Ev, symObjAddr: 0x6A44, symBinAddr: 0x10000903C, symSize: 0x24 }
  - { offsetInCU: 0x37A21, offset: 0x37A21, size: 0x8, addend: 0x0, symName: __ZNSt3__16vectorIP9Temp_tempNS_9allocatorIS2_EEED1B7v160006Ev, symObjAddr: 0x6A68, symBinAddr: 0x100009060, symSize: 0x2C }
  - { offsetInCU: 0x37A49, offset: 0x37A49, size: 0x8, addend: 0x0, symName: __Z16ast2llvmRightValP12aA_rightVal_, symObjAddr: 0x6A94, symBinAddr: 0x10000908C, symSize: 0x1F0 }
  - { offsetInCU: 0x37AD0, offset: 0x37AD0, size: 0x8, addend: 0x0, symName: __Z15ast2llvmLeftValP11aA_leftVal_, symObjAddr: 0x6C84, symBinAddr: 0x10000927C, symSize: 0x120 }
  - { offsetInCU: 0x37AFF, offset: 0x37AFF, size: 0x8, addend: 0x0, symName: __ZNSt3__16vectorIP10AS_operandNS_9allocatorIS2_EEEC1B7v160006Ev, symObjAddr: 0x6DA4, symBinAddr: 0x10000939C, symSize: 0x2C }
  - { offsetInCU: 0x37B27, offset: 0x37B27, size: 0x8, addend: 0x0, symName: __ZNSt3__16vectorIP10AS_operandNS_9allocatorIS2_EEE9push_backB7v160006EOS2_, symObjAddr: 0x6DD0, symBinAddr: 0x1000093C8, symSize: 0x6C }
  - { offsetInCU: 0x37B5D, offset: 0x37B5D, size: 0x8, addend: 0x0, symName: __ZNSt3__16vectorIP10AS_operandNS_9allocatorIS2_EEED1B7v160006Ev, symObjAddr: 0x6E3C, symBinAddr: 0x100009434, symSize: 0x2C }
  - { offsetInCU: 0x37B85, offset: 0x37B85, size: 0x8, addend: 0x0, symName: __Z16ast2llvmBoolExprP12aA_boolExpr_P10Temp_labelS2_, symObjAddr: 0x6E68, symBinAddr: 0x100009460, symSize: 0x78 }
  - { offsetInCU: 0x37BD1, offset: 0x37BD1, size: 0x8, addend: 0x0, symName: __Z17ast2llvmArithExprP13aA_arithExpr_, symObjAddr: 0x6EE0, symBinAddr: 0x1000094D8, symSize: 0x7C }
  - { offsetInCU: 0x37BFF, offset: 0x37BFF, size: 0x8, addend: 0x0, symName: __Z14ast2llvmIdExprNSt3__112basic_stringIcNS_11char_traitsIcEENS_9allocatorIcEEEEb, symObjAddr: 0x6F5C, symBinAddr: 0x100009554, symSize: 0x364 }
  - { offsetInCU: 0x37C6C, offset: 0x37C6C, size: 0x8, addend: 0x0, symName: __Z17ast2llvmArrayExprP13aA_arrayExpr_b, symObjAddr: 0x72C0, symBinAddr: 0x1000098B8, symSize: 0x278 }
  - { offsetInCU: 0x37D1F, offset: 0x37D1F, size: 0x8, addend: 0x0, symName: __Z18ast2llvmMemberExprP14aA_memberExpr_b, symObjAddr: 0x7538, symBinAddr: 0x100009B30, symSize: 0x514 }
  - { offsetInCU: 0x37E42, offset: 0x37E42, size: 0x8, addend: 0x0, symName: __Z17ast2llvmIndexExprP13aA_indexExpr_, symObjAddr: 0x7A4C, symBinAddr: 0x10000A044, symSize: 0xE4 }
  - { offsetInCU: 0x37E70, offset: 0x37E70, size: 0x8, addend: 0x0, symName: __Z20ast2llvmBoolBiOpExprP16aA_boolBiOpExpr_P10Temp_labelS2_, symObjAddr: 0x7B30, symBinAddr: 0x10000A128, symSize: 0x1D8 }
  - { offsetInCU: 0x37F20, offset: 0x37F20, size: 0x8, addend: 0x0, symName: __Z16ast2llvmBoolUnitP12aA_boolUnit_P10Temp_labelS2_, symObjAddr: 0x7D08, symBinAddr: 0x10000A300, symSize: 0xE4 }
  - { offsetInCU: 0x37F6C, offset: 0x37F6C, size: 0x8, addend: 0x0, symName: __Z17ast2llvmComOpExprP11aA_comExpr_P10Temp_labelS2_, symObjAddr: 0x7DEC, symBinAddr: 0x10000A3E4, symSize: 0x204 }
  - { offsetInCU: 0x37FE5, offset: 0x37FE5, size: 0x8, addend: 0x0, symName: __Z19ast2llvmBoolUOpExprP15aA_boolUOpExpr_P10Temp_labelS2_, symObjAddr: 0x7FF0, symBinAddr: 0x10000A5E8, symSize: 0x38 }
  - { offsetInCU: 0x38031, offset: 0x38031, size: 0x8, addend: 0x0, symName: __Z16ast2llvmExprUnitP12aA_exprUnit_, symObjAddr: 0x8028, symBinAddr: 0x10000A620, symSize: 0x1B8 }
  - { offsetInCU: 0x3807C, offset: 0x3807C, size: 0x8, addend: 0x0, symName: __Z21ast2llvmArithBiOpExprP17aA_arithBiOpExpr_, symObjAddr: 0x81E0, symBinAddr: 0x10000A7D8, symSize: 0x1AC }
  - { offsetInCU: 0x380E6, offset: 0x380E6, size: 0x8, addend: 0x0, symName: __Z18ast2llvmArithUExprP14aA_arithUExpr_, symObjAddr: 0x838C, symBinAddr: 0x10000A984, symSize: 0x70 }
  - { offsetInCU: 0x38141, offset: 0x38141, size: 0x8, addend: 0x0, symName: __Z16ast2llvmCallExprP10aA_fnCall_, symObjAddr: 0x83FC, symBinAddr: 0x10000A9F4, symSize: 0x14C }
  - { offsetInCU: 0x381D8, offset: 0x381D8, size: 0x8, addend: 0x0, symName: __ZNSt3__113unordered_mapINS_12basic_stringIcNS_11char_traitsIcEENS_9allocatorIcEEEE10StructInfoNS_4hashIS6_EENS_8equal_toIS6_EENS4_INS_4pairIKS6_S7_EEEEEixERSD_, symObjAddr: 0x8548, symBinAddr: 0x10000AB40, symSize: 0x80 }
  - { offsetInCU: 0x3820D, offset: 0x3820D, size: 0x8, addend: 0x0, symName: __ZNSt3__113unordered_mapINS_12basic_stringIcNS_11char_traitsIcEENS_9allocatorIcEEEE10MemberInfoNS_4hashIS6_EENS_8equal_toIS6_EENS4_INS_4pairIKS6_S7_EEEEEixERSD_, symObjAddr: 0x85C8, symBinAddr: 0x10000ABC0, symSize: 0x80 }
  - { offsetInCU: 0x3824D, offset: 0x3824D, size: 0x8, addend: 0x0, symName: __ZN10MemberInfoC1ERKS_, symObjAddr: 0x8648, symBinAddr: 0x10000AC40, symSize: 0x34 }
  - { offsetInCU: 0x38280, offset: 0x38280, size: 0x8, addend: 0x0, symName: __Z18sameTypeButNewTempP10AS_operand, symObjAddr: 0x867C, symBinAddr: 0x10000AC74, symSize: 0x25C }
  - { offsetInCU: 0x382AE, offset: 0x382AE, size: 0x8, addend: 0x0, symName: __Z17getVarNameOperandNSt3__112basic_stringIcNS_11char_traitsIcEENS_9allocatorIcEEEE, symObjAddr: 0x88D8, symBinAddr: 0x10000AED0, symSize: 0x1C0 }
  - { offsetInCU: 0x382ED, offset: 0x382ED, size: 0x8, addend: 0x0, symName: __ZNSt3__14listIPN6LLVMIR7L_blockENS_9allocatorIS3_EEEC1B7v160006Ev, symObjAddr: 0x8A98, symBinAddr: 0x10000B090, symSize: 0x2C }
  - { offsetInCU: 0x38316, offset: 0x38316, size: 0x8, addend: 0x0, symName: __ZNSt3__14listIPN6LLVMIR5L_stmENS_9allocatorIS3_EEE5beginB7v160006Ev, symObjAddr: 0x8AC4, symBinAddr: 0x10000B0BC, symSize: 0x2C }
  - { offsetInCU: 0x3833B, offset: 0x3833B, size: 0x8, addend: 0x0, symName: __ZNSt3__14listIPN6LLVMIR5L_stmENS_9allocatorIS3_EEE3endB7v160006Ev, symObjAddr: 0x8AF0, symBinAddr: 0x10000B0E8, symSize: 0x2C }
  - { offsetInCU: 0x38360, offset: 0x38360, size: 0x8, addend: 0x0, symName: __ZNKSt3__115__list_iteratorIPN6LLVMIR5L_stmEPvEdeB7v160006Ev, symObjAddr: 0x8B50, symBinAddr: 0x10000B148, symSize: 0x2C }
  - { offsetInCU: 0x38384, offset: 0x38384, size: 0x8, addend: 0x0, symName: __ZNSt3__14listIPN6LLVMIR7L_blockENS_9allocatorIS3_EEE9push_backEOS3_, symObjAddr: 0x8B7C, symBinAddr: 0x10000B174, symSize: 0xF4 }
  - { offsetInCU: 0x383D8, offset: 0x383D8, size: 0x8, addend: 0x0, symName: __ZNSt3__14listIPN6LLVMIR5L_stmENS_9allocatorIS3_EEEC1ERKS6_, symObjAddr: 0x8C70, symBinAddr: 0x10000B268, symSize: 0x34 }
  - { offsetInCU: 0x38411, offset: 0x38411, size: 0x8, addend: 0x0, symName: __ZNSt3__14listIPN6LLVMIR5L_stmENS_9allocatorIS3_EEE9push_backERKS3_, symObjAddr: 0x8CA4, symBinAddr: 0x10000B29C, symSize: 0xEC }
  - { offsetInCU: 0x38465, offset: 0x38465, size: 0x8, addend: 0x0, symName: __ZNSt3__115__list_iteratorIPN6LLVMIR5L_stmEPvEppB7v160006Ev, symObjAddr: 0x8D90, symBinAddr: 0x10000B388, symSize: 0x20 }
  - { offsetInCU: 0x3848A, offset: 0x3848A, size: 0x8, addend: 0x0, symName: __ZNSt3__16vectorIP9Temp_tempNS_9allocatorIS2_EEEC1ERKS5_, symObjAddr: 0x8DB0, symBinAddr: 0x10000B3A8, symSize: 0x34 }
  - { offsetInCU: 0x384C4, offset: 0x384C4, size: 0x8, addend: 0x0, symName: __ZNSt3__14listIPN6LLVMIR7L_blockENS_9allocatorIS3_EEED1Ev, symObjAddr: 0x8DE4, symBinAddr: 0x10000B3DC, symSize: 0x2C }
  - { offsetInCU: 0x384F0, offset: 0x384F0, size: 0x8, addend: 0x0, symName: __ZNSt3__14listIPN6LLVMIR7L_blockENS_9allocatorIS3_EEE5frontB7v160006Ev, symObjAddr: 0x8E10, symBinAddr: 0x10000B408, symSize: 0x2C }
  - { offsetInCU: 0x38515, offset: 0x38515, size: 0x8, addend: 0x0, symName: __ZNSt3__14listIPN6LLVMIR7L_blockENS_9allocatorIS3_EEE5beginB7v160006Ev, symObjAddr: 0x8E3C, symBinAddr: 0x10000B434, symSize: 0x2C }
  - { offsetInCU: 0x3853A, offset: 0x3853A, size: 0x8, addend: 0x0, symName: __ZNSt3__14listIPN6LLVMIR7L_blockENS_9allocatorIS3_EEE3endB7v160006Ev, symObjAddr: 0x8E68, symBinAddr: 0x10000B460, symSize: 0x2C }
  - { offsetInCU: 0x3855F, offset: 0x3855F, size: 0x8, addend: 0x0, symName: __ZNKSt3__115__list_iteratorIPN6LLVMIR7L_blockEPvEdeB7v160006Ev, symObjAddr: 0x8EC8, symBinAddr: 0x10000B4C0, symSize: 0x2C }
  - { offsetInCU: 0x38583, offset: 0x38583, size: 0x8, addend: 0x0, symName: __ZNSt3__14listIPN6LLVMIR5L_stmENS_9allocatorIS3_EEE6insertENS_21__list_const_iteratorIS3_PvEERKS3_, symObjAddr: 0x8F44, symBinAddr: 0x10000B53C, symSize: 0x114 }
  - { offsetInCU: 0x385E6, offset: 0x385E6, size: 0x8, addend: 0x0, symName: __ZNSt3__121__list_const_iteratorIPN6LLVMIR5L_stmEPvEC1B7v160006ERKNS_15__list_iteratorIS3_S4_EE, symObjAddr: 0x9058, symBinAddr: 0x10000B650, symSize: 0x34 }
  - { offsetInCU: 0x3861D, offset: 0x3861D, size: 0x8, addend: 0x0, symName: __ZNSt3__14listIPN6LLVMIR5L_stmENS_9allocatorIS3_EEE5eraseENS_21__list_const_iteratorIS3_PvEE, symObjAddr: 0x908C, symBinAddr: 0x10000B684, symSize: 0xA4 }
  - { offsetInCU: 0x3868F, offset: 0x3868F, size: 0x8, addend: 0x0, symName: __ZNSt3__115__list_iteratorIPN6LLVMIR5L_stmEPvEppB7v160006Ei, symObjAddr: 0x9130, symBinAddr: 0x10000B728, symSize: 0x34 }
  - { offsetInCU: 0x386CE, offset: 0x386CE, size: 0x8, addend: 0x0, symName: __ZNSt3__115__list_iteratorIPN6LLVMIR7L_blockEPvEppB7v160006Ev, symObjAddr: 0x9164, symBinAddr: 0x10000B75C, symSize: 0x20 }
  - { offsetInCU: 0x386F3, offset: 0x386F3, size: 0x8, addend: 0x0, symName: __ZNSt3__113unordered_mapINS_12basic_stringIcNS_11char_traitsIcEENS_9allocatorIcEEEEP9Temp_tempNS_4hashIS6_EENS_8equal_toIS6_EENS4_INS_4pairIKS6_S8_EEEEE4findB7v160006ERSE_, symObjAddr: 0x91B4, symBinAddr: 0x10000B7AC, symSize: 0x40 }
  - { offsetInCU: 0x38727, offset: 0x38727, size: 0x8, addend: 0x0, symName: __ZNSt3__113unordered_mapINS_12basic_stringIcNS_11char_traitsIcEENS_9allocatorIcEEEEP9Temp_tempNS_4hashIS6_EENS_8equal_toIS6_EENS4_INS_4pairIKS6_S8_EEEEE3endB7v160006Ev, symObjAddr: 0x91F4, symBinAddr: 0x10000B7EC, symSize: 0x38 }
  - { offsetInCU: 0x3874C, offset: 0x3874C, size: 0x8, addend: 0x0, symName: __ZNSt3__113unordered_mapINS_12basic_stringIcNS_11char_traitsIcEENS_9allocatorIcEEEEP9Name_nameNS_4hashIS6_EENS_8equal_toIS6_EENS4_INS_4pairIKS6_S8_EEEEE4findB7v160006ERSE_, symObjAddr: 0x925C, symBinAddr: 0x10000B854, symSize: 0x40 }
  - { offsetInCU: 0x38780, offset: 0x38780, size: 0x8, addend: 0x0, symName: __ZNSt3__113unordered_mapINS_12basic_stringIcNS_11char_traitsIcEENS_9allocatorIcEEEEP9Name_nameNS_4hashIS6_EENS_8equal_toIS6_EENS4_INS_4pairIKS6_S8_EEEEE3endB7v160006Ev, symObjAddr: 0x929C, symBinAddr: 0x10000B894, symSize: 0x38 }
  - { offsetInCU: 0x387A4, offset: 0x387A4, size: 0x8, addend: 0x0, symName: __ZNSt3__113unordered_mapINS_12basic_stringIcNS_11char_traitsIcEENS_9allocatorIcEEEEP9Name_nameNS_4hashIS6_EENS_8equal_toIS6_EENS4_INS_4pairIKS6_S8_EEEEEixERSE_, symObjAddr: 0x92D4, symBinAddr: 0x10000B8CC, symSize: 0x80 }
  - { offsetInCU: 0x387DA, offset: 0x387DA, size: 0x8, addend: 0x0, symName: __ZNSt3__14listIPN6LLVMIR5L_stmENS_9allocatorIS3_EEED2Ev, symObjAddr: 0x9354, symBinAddr: 0x10000B94C, symSize: 0x2C }
  - { offsetInCU: 0x38806, offset: 0x38806, size: 0x8, addend: 0x0, symName: __ZNSt3__110__list_impIPN6LLVMIR5L_stmENS_9allocatorIS3_EEED2Ev, symObjAddr: 0x9380, symBinAddr: 0x10000B978, symSize: 0x3C }
  - { offsetInCU: 0x38830, offset: 0x38830, size: 0x8, addend: 0x0, symName: __ZNSt3__110__list_impIPN6LLVMIR5L_stmENS_9allocatorIS3_EEE5clearEv, symObjAddr: 0x93BC, symBinAddr: 0x10000B9B4, symSize: 0xEC }
  - { offsetInCU: 0x388A1, offset: 0x388A1, size: 0x8, addend: 0x0, symName: __ZNKSt3__110__list_impIPN6LLVMIR5L_stmENS_9allocatorIS3_EEE5emptyB7v160006Ev, symObjAddr: 0x94C4, symBinAddr: 0x10000BABC, symSize: 0x34 }
  - { offsetInCU: 0x388C6, offset: 0x388C6, size: 0x8, addend: 0x0, symName: __ZNSt3__110__list_impIPN6LLVMIR5L_stmENS_9allocatorIS3_EEE12__node_allocB7v160006Ev, symObjAddr: 0x94F8, symBinAddr: 0x10000BAF0, symSize: 0x28 }
  - { offsetInCU: 0x388EB, offset: 0x388EB, size: 0x8, addend: 0x0, symName: __ZNKSt3__110__list_impIPN6LLVMIR5L_stmENS_9allocatorIS3_EEE13__end_as_linkB7v160006Ev, symObjAddr: 0x9520, symBinAddr: 0x10000BB18, symSize: 0x44 }
  - { offsetInCU: 0x38910, offset: 0x38910, size: 0x8, addend: 0x0, symName: __ZNSt3__110__list_impIPN6LLVMIR5L_stmENS_9allocatorIS3_EEE14__unlink_nodesEPNS_16__list_node_baseIS3_PvEESA_, symObjAddr: 0x9564, symBinAddr: 0x10000BB5C, symSize: 0x3C }
  - { offsetInCU: 0x38945, offset: 0x38945, size: 0x8, addend: 0x0, symName: __ZNSt3__110__list_impIPN6LLVMIR5L_stmENS_9allocatorIS3_EEE4__szB7v160006Ev, symObjAddr: 0x95A0, symBinAddr: 0x10000BB98, symSize: 0x28 }
  - { offsetInCU: 0x3896A, offset: 0x3896A, size: 0x8, addend: 0x0, symName: __ZNSt3__116__list_node_baseIPN6LLVMIR5L_stmEPvE9__as_nodeB7v160006Ev, symObjAddr: 0x95C8, symBinAddr: 0x10000BBC0, symSize: 0x24 }
  - { offsetInCU: 0x3898F, offset: 0x3898F, size: 0x8, addend: 0x0, symName: __ZNSt3__116allocator_traitsINS_9allocatorINS_11__list_nodeIPN6LLVMIR5L_stmEPvEEEEE7destroyB7v160006IS5_vvEEvRS8_PT_, symObjAddr: 0x95EC, symBinAddr: 0x10000BBE4, symSize: 0x14 }
  - { offsetInCU: 0x389C9, offset: 0x389C9, size: 0x8, addend: 0x0, symName: __ZNSt3__116allocator_traitsINS_9allocatorINS_11__list_nodeIPN6LLVMIR5L_stmEPvEEEEE10deallocateB7v160006ERS8_PS7_m, symObjAddr: 0x9600, symBinAddr: 0x10000BBF8, symSize: 0x34 }
  - { offsetInCU: 0x38A0B, offset: 0x38A0B, size: 0x8, addend: 0x0, symName: __ZNKSt3__110__list_impIPN6LLVMIR5L_stmENS_9allocatorIS3_EEE4__szB7v160006Ev, symObjAddr: 0x9644, symBinAddr: 0x10000BC3C, symSize: 0x28 }
  - { offsetInCU: 0x38A30, offset: 0x38A30, size: 0x8, addend: 0x0, symName: __ZNKSt3__117__compressed_pairImNS_9allocatorINS_11__list_nodeIPN6LLVMIR5L_stmEPvEEEEE5firstB7v160006Ev, symObjAddr: 0x966C, symBinAddr: 0x10000BC64, symSize: 0x24 }
  - { offsetInCU: 0x38A55, offset: 0x38A55, size: 0x8, addend: 0x0, symName: __ZNKSt3__122__compressed_pair_elemImLi0ELb0EE5__getB7v160006Ev, symObjAddr: 0x9690, symBinAddr: 0x10000BC88, symSize: 0x14 }
  - { offsetInCU: 0x38A7A, offset: 0x38A7A, size: 0x8, addend: 0x0, symName: __ZNSt3__117__compressed_pairImNS_9allocatorINS_11__list_nodeIPN6LLVMIR5L_stmEPvEEEEE6secondB7v160006Ev, symObjAddr: 0x96A4, symBinAddr: 0x10000BC9C, symSize: 0x24 }
  - { offsetInCU: 0x38A9F, offset: 0x38A9F, size: 0x8, addend: 0x0, symName: __ZNSt3__122__compressed_pair_elemINS_9allocatorINS_11__list_nodeIPN6LLVMIR5L_stmEPvEEEELi1ELb1EE5__getB7v160006Ev, symObjAddr: 0x96C8, symBinAddr: 0x10000BCC0, symSize: 0x14 }
  - { offsetInCU: 0x38AC4, offset: 0x38AC4, size: 0x8, addend: 0x0, symName: __ZNSt3__126__list_node_pointer_traitsIPN6LLVMIR5L_stmEPvE26__unsafe_link_pointer_castB7v160006EPNS_16__list_node_baseIS3_S4_EE, symObjAddr: 0x96DC, symBinAddr: 0x10000BCD4, symSize: 0x14 }
  - { offsetInCU: 0x38AE8, offset: 0x38AE8, size: 0x8, addend: 0x0, symName: __ZNSt3__116__list_node_baseIPN6LLVMIR5L_stmEPvE6__selfB7v160006Ev, symObjAddr: 0x96F0, symBinAddr: 0x10000BCE8, symSize: 0x24 }
  - { offsetInCU: 0x38B12, offset: 0x38B12, size: 0x8, addend: 0x0, symName: __ZNSt3__114pointer_traitsIPNS_16__list_node_baseIPN6LLVMIR5L_stmEPvEEE10pointer_toB7v160006ERS6_, symObjAddr: 0x9714, symBinAddr: 0x10000BD0C, symSize: 0x14 }
  - { offsetInCU: 0x38B35, offset: 0x38B35, size: 0x8, addend: 0x0, symName: __ZNSt3__117__compressed_pairImNS_9allocatorINS_11__list_nodeIPN6LLVMIR5L_stmEPvEEEEE5firstB7v160006Ev, symObjAddr: 0x9728, symBinAddr: 0x10000BD20, symSize: 0x24 }
  - { offsetInCU: 0x38B5A, offset: 0x38B5A, size: 0x8, addend: 0x0, symName: __ZNSt3__122__compressed_pair_elemImLi0ELb0EE5__getB7v160006Ev, symObjAddr: 0x974C, symBinAddr: 0x10000BD44, symSize: 0x14 }
  - { offsetInCU: 0x38B7F, offset: 0x38B7F, size: 0x8, addend: 0x0, symName: __ZNSt3__19allocatorINS_11__list_nodeIPN6LLVMIR5L_stmEPvEEE10deallocateB7v160006EPS6_m, symObjAddr: 0x9760, symBinAddr: 0x10000BD58, symSize: 0x44 }
  - { offsetInCU: 0x38BC0, offset: 0x38BC0, size: 0x8, addend: 0x0, symName: __ZNKSt3__111__wrap_iterIPP10Func_localE4baseB7v160006Ev, symObjAddr: 0x9914, symBinAddr: 0x10000BF0C, symSize: 0x18 }
  - { offsetInCU: 0x38BE5, offset: 0x38BE5, size: 0x8, addend: 0x0, symName: __ZNKSt3__111__wrap_iterIPPN6LLVMIR6L_funcEE4baseB7v160006Ev, symObjAddr: 0x9974, symBinAddr: 0x10000BF6C, symSize: 0x18 }
  - { offsetInCU: 0x38C0A, offset: 0x38C0A, size: 0x8, addend: 0x0, symName: __ZN6LLVMIR8FuncTypeC2ENS_10ReturnTypeENSt3__112basic_stringIcNS2_11char_traitsIcEENS2_9allocatorIcEEEE, symObjAddr: 0x998C, symBinAddr: 0x10000BF84, symSize: 0x4C }
  - { offsetInCU: 0x38C50, offset: 0x38C50, size: 0x8, addend: 0x0, symName: __ZN6LLVMIR8FuncTypeD2Ev, symObjAddr: 0x99D8, symBinAddr: 0x10000BFD0, symSize: 0x30 }
  - { offsetInCU: 0x38C7B, offset: 0x38C7B, size: 0x8, addend: 0x0, symName: __ZN7TempDefD2Ev, symObjAddr: 0x9A08, symBinAddr: 0x10000C000, symSize: 0x30 }
  - { offsetInCU: 0x38CA6, offset: 0x38CA6, size: 0x8, addend: 0x0, symName: __ZNSt3__112basic_stringIcNS_11char_traitsIcEENS_9allocatorIcEEEaSB7v160006EOS5_, symObjAddr: 0x9A38, symBinAddr: 0x10000C030, symSize: 0x34 }
  - { offsetInCU: 0x38CD9, offset: 0x38CD9, size: 0x8, addend: 0x0, symName: __ZNSt3__112basic_stringIcNS_11char_traitsIcEENS_9allocatorIcEEE13__move_assignB7v160006ERS5_NS_17integral_constantIbLb1EEE, symObjAddr: 0x9A6C, symBinAddr: 0x10000C064, symSize: 0xC8 }
  - { offsetInCU: 0x38D1A, offset: 0x38D1A, size: 0x8, addend: 0x0, symName: __ZNKSt3__112basic_stringIcNS_11char_traitsIcEENS_9allocatorIcEEE9__is_longB7v160006Ev, symObjAddr: 0x9B34, symBinAddr: 0x10000C12C, symSize: 0x38 }
  - { offsetInCU: 0x38D3F, offset: 0x38D3F, size: 0x8, addend: 0x0, symName: __ZNSt3__116allocator_traitsINS_9allocatorIcEEE10deallocateB7v160006ERS2_Pcm, symObjAddr: 0x9B6C, symBinAddr: 0x10000C164, symSize: 0x34 }
  - { offsetInCU: 0x38D81, offset: 0x38D81, size: 0x8, addend: 0x0, symName: __ZNSt3__112basic_stringIcNS_11char_traitsIcEENS_9allocatorIcEEE7__allocB7v160006Ev, symObjAddr: 0x9BA0, symBinAddr: 0x10000C198, symSize: 0x24 }
  - { offsetInCU: 0x38DA6, offset: 0x38DA6, size: 0x8, addend: 0x0, symName: __ZNSt3__112basic_stringIcNS_11char_traitsIcEENS_9allocatorIcEEE18__get_long_pointerB7v160006Ev, symObjAddr: 0x9BC4, symBinAddr: 0x10000C1BC, symSize: 0x28 }
  - { offsetInCU: 0x38DCB, offset: 0x38DCB, size: 0x8, addend: 0x0, symName: __ZNKSt3__112basic_stringIcNS_11char_traitsIcEENS_9allocatorIcEEE14__get_long_capB7v160006Ev, symObjAddr: 0x9BEC, symBinAddr: 0x10000C1E4, symSize: 0x30 }
  - { offsetInCU: 0x38DF0, offset: 0x38DF0, size: 0x8, addend: 0x0, symName: __ZNSt3__112basic_stringIcNS_11char_traitsIcEENS_9allocatorIcEEE19__move_assign_allocB7v160006ERS5_, symObjAddr: 0x9C1C, symBinAddr: 0x10000C214, symSize: 0x2C }
  - { offsetInCU: 0x38E24, offset: 0x38E24, size: 0x8, addend: 0x0, symName: __ZNSt3__117__compressed_pairINS_12basic_stringIcNS_11char_traitsIcEENS_9allocatorIcEEE5__repES5_E5firstB7v160006Ev, symObjAddr: 0x9C48, symBinAddr: 0x10000C240, symSize: 0x24 }
  - { offsetInCU: 0x38E49, offset: 0x38E49, size: 0x8, addend: 0x0, symName: __ZNSt3__112basic_stringIcNS_11char_traitsIcEENS_9allocatorIcEEE16__set_short_sizeB7v160006Em, symObjAddr: 0x9C6C, symBinAddr: 0x10000C264, symSize: 0x78 }
  - { offsetInCU: 0x38E7D, offset: 0x38E7D, size: 0x8, addend: 0x0, symName: __ZNSt3__111char_traitsIcE6assignERcRKc, symObjAddr: 0x9CE4, symBinAddr: 0x10000C2DC, symSize: 0x24 }
  - { offsetInCU: 0x38EAE, offset: 0x38EAE, size: 0x8, addend: 0x0, symName: __ZNSt3__112basic_stringIcNS_11char_traitsIcEENS_9allocatorIcEEE19__get_short_pointerB7v160006Ev, symObjAddr: 0x9D08, symBinAddr: 0x10000C300, symSize: 0x28 }
  - { offsetInCU: 0x38ED3, offset: 0x38ED3, size: 0x8, addend: 0x0, symName: __ZNKSt3__117__compressed_pairINS_12basic_stringIcNS_11char_traitsIcEENS_9allocatorIcEEE5__repES5_E5firstB7v160006Ev, symObjAddr: 0x9D30, symBinAddr: 0x10000C328, symSize: 0x24 }
  - { offsetInCU: 0x38EF8, offset: 0x38EF8, size: 0x8, addend: 0x0, symName: __ZNKSt3__122__compressed_pair_elemINS_12basic_stringIcNS_11char_traitsIcEENS_9allocatorIcEEE5__repELi0ELb0EE5__getB7v160006Ev, symObjAddr: 0x9D54, symBinAddr: 0x10000C34C, symSize: 0x14 }
  - { offsetInCU: 0x38F1D, offset: 0x38F1D, size: 0x8, addend: 0x0, symName: __ZNSt3__19allocatorIcE10deallocateB7v160006EPcm, symObjAddr: 0x9D68, symBinAddr: 0x10000C360, symSize: 0x40 }
  - { offsetInCU: 0x38F5E, offset: 0x38F5E, size: 0x8, addend: 0x0, symName: __ZNSt3__117__compressed_pairINS_12basic_stringIcNS_11char_traitsIcEENS_9allocatorIcEEE5__repES5_E6secondB7v160006Ev, symObjAddr: 0x9DA8, symBinAddr: 0x10000C3A0, symSize: 0x24 }
  - { offsetInCU: 0x38F83, offset: 0x38F83, size: 0x8, addend: 0x0, symName: __ZNSt3__122__compressed_pair_elemINS_9allocatorIcEELi1ELb1EE5__getB7v160006Ev, symObjAddr: 0x9DCC, symBinAddr: 0x10000C3C4, symSize: 0x14 }
  - { offsetInCU: 0x38FA8, offset: 0x38FA8, size: 0x8, addend: 0x0, symName: __ZNSt3__112basic_stringIcNS_11char_traitsIcEENS_9allocatorIcEEE19__move_assign_allocB7v160006ERS5_NS_17integral_constantIbLb1EEE, symObjAddr: 0x9DE0, symBinAddr: 0x10000C3D8, symSize: 0x38 }
  - { offsetInCU: 0x38FE7, offset: 0x38FE7, size: 0x8, addend: 0x0, symName: __ZNSt3__122__compressed_pair_elemINS_12basic_stringIcNS_11char_traitsIcEENS_9allocatorIcEEE5__repELi0ELb0EE5__getB7v160006Ev, symObjAddr: 0x9E18, symBinAddr: 0x10000C410, symSize: 0x14 }
  - { offsetInCU: 0x3900C, offset: 0x3900C, size: 0x8, addend: 0x0, symName: __ZNSt3__114pointer_traitsIPcE10pointer_toB7v160006ERc, symObjAddr: 0x9E2C, symBinAddr: 0x10000C424, symSize: 0x14 }
  - { offsetInCU: 0x3902F, offset: 0x3902F, size: 0x8, addend: 0x0, symName: __ZNKSt3__111__wrap_iterIPP18aA_programElement_E4baseB7v160006Ev, symObjAddr: 0x9E88, symBinAddr: 0x10000C480, symSize: 0x18 }
  - { offsetInCU: 0x39054, offset: 0x39054, size: 0x8, addend: 0x0, symName: __ZN7TempDefC2ERKS_, symObjAddr: 0x9EA0, symBinAddr: 0x10000C498, symSize: 0x48 }
  - { offsetInCU: 0x39088, offset: 0x39088, size: 0x8, addend: 0x0, symName: __ZNKSt3__111__wrap_iterIPP12aA_rightVal_E4baseB7v160006Ev, symObjAddr: 0x9F30, symBinAddr: 0x10000C528, symSize: 0x18 }
  - { offsetInCU: 0x390AD, offset: 0x390AD, size: 0x8, addend: 0x0, symName: __ZN10StructInfoC2Ev, symObjAddr: 0x9F48, symBinAddr: 0x10000C540, symSize: 0x2C }
  - { offsetInCU: 0x390D8, offset: 0x390D8, size: 0x8, addend: 0x0, symName: __ZNSt3__113unordered_mapINS_12basic_stringIcNS_11char_traitsIcEENS_9allocatorIcEEEE10MemberInfoNS_4hashIS6_EENS_8equal_toIS6_EENS4_INS_4pairIKS6_S7_EEEEEC1B7v160006Ev, symObjAddr: 0x9F74, symBinAddr: 0x10000C56C, symSize: 0x2C }
  - { offsetInCU: 0x39101, offset: 0x39101, size: 0x8, addend: 0x0, symName: __ZNSt3__113unordered_mapINS_12basic_stringIcNS_11char_traitsIcEENS_9allocatorIcEEEE10MemberInfoNS_4hashIS6_EENS_8equal_toIS6_EENS4_INS_4pairIKS6_S7_EEEEEC2B7v160006Ev, symObjAddr: 0x9FA0, symBinAddr: 0x10000C598, symSize: 0x3C }
  - { offsetInCU: 0x3912A, offset: 0x3912A, size: 0x8, addend: 0x0, symName: __ZNSt3__112__hash_tableINS_17__hash_value_typeINS_12basic_stringIcNS_11char_traitsIcEENS_9allocatorIcEEEE10MemberInfoEENS_22__unordered_map_hasherIS7_S9_NS_4hashIS7_EENS_8equal_toIS7_EELb1EEENS_21__unordered_map_equalIS7_S9_SE_SC_Lb1EEENS5_IS9_EEEC1Ev, symObjAddr: 0x9FDC, symBinAddr: 0x10000C5D4, symSize: 0x2C }
  - { offsetInCU: 0x39155, offset: 0x39155, size: 0x8, addend: 0x0, symName: __ZNSt3__112__hash_tableINS_17__hash_value_typeINS_12basic_stringIcNS_11char_traitsIcEENS_9allocatorIcEEEE10MemberInfoEENS_22__unordered_map_hasherIS7_S9_NS_4hashIS7_EENS_8equal_toIS7_EELb1EEENS_21__unordered_map_equalIS7_S9_SE_SC_Lb1EEENS5_IS9_EEEC2Ev, symObjAddr: 0xA018, symBinAddr: 0x10000C610, symSize: 0x7C }
  - { offsetInCU: 0x39180, offset: 0x39180, size: 0x8, addend: 0x0, symName: __ZNSt3__110unique_ptrIA_PNS_16__hash_node_baseIPNS_11__hash_nodeINS_17__hash_value_typeINS_12basic_stringIcNS_11char_traitsIcEENS_9allocatorIcEEEE10MemberInfoEEPvEEEENS_25__bucket_list_deallocatorINS7_ISG_EEEEEC1B7v160006ILb1EvEEv, symObjAddr: 0xA094, symBinAddr: 0x10000C68C, symSize: 0x2C }
  - { offsetInCU: 0x391B4, offset: 0x391B4, size: 0x8, addend: 0x0, symName: __ZNSt3__117__compressed_pairINS_16__hash_node_baseIPNS_11__hash_nodeINS_17__hash_value_typeINS_12basic_stringIcNS_11char_traitsIcEENS_9allocatorIcEEEE10MemberInfoEEPvEEEENS7_ISD_EEEC1B7v160006ILb1EvEEv, symObjAddr: 0xA0C0, symBinAddr: 0x10000C6B8, symSize: 0x2C }
  - { offsetInCU: 0x391F2, offset: 0x391F2, size: 0x8, addend: 0x0, symName: __ZNSt3__117__compressed_pairImNS_22__unordered_map_hasherINS_12basic_stringIcNS_11char_traitsIcEENS_9allocatorIcEEEENS_17__hash_value_typeIS7_10MemberInfoEENS_4hashIS7_EENS_8equal_toIS7_EELb1EEEEC1B7v160006IiNS_18__default_init_tagEEEOT_OT0_, symObjAddr: 0xA0EC, symBinAddr: 0x10000C6E4, symSize: 0x3C }
  - { offsetInCU: 0x3924E, offset: 0x3924E, size: 0x8, addend: 0x0, symName: __ZNSt3__117__compressed_pairIfNS_21__unordered_map_equalINS_12basic_stringIcNS_11char_traitsIcEENS_9allocatorIcEEEENS_17__hash_value_typeIS7_10MemberInfoEENS_8equal_toIS7_EENS_4hashIS7_EELb1EEEEC1B7v160006IfNS_18__default_init_tagEEEOT_OT0_, symObjAddr: 0xA128, symBinAddr: 0x10000C720, symSize: 0x3C }
  - { offsetInCU: 0x392A5, offset: 0x392A5, size: 0x8, addend: 0x0, symName: __ZNSt3__110unique_ptrIA_PNS_16__hash_node_baseIPNS_11__hash_nodeINS_17__hash_value_typeINS_12basic_stringIcNS_11char_traitsIcEENS_9allocatorIcEEEE10MemberInfoEEPvEEEENS_25__bucket_list_deallocatorINS7_ISG_EEEEEC2B7v160006ILb1EvEEv, symObjAddr: 0xA164, symBinAddr: 0x10000C75C, symSize: 0x3C }
  - { offsetInCU: 0x392DE, offset: 0x392DE, size: 0x8, addend: 0x0, symName: __ZNSt3__117__compressed_pairIPPNS_16__hash_node_baseIPNS_11__hash_nodeINS_17__hash_value_typeINS_12basic_stringIcNS_11char_traitsIcEENS_9allocatorIcEEEE10MemberInfoEEPvEEEENS_25__bucket_list_deallocatorINS7_ISG_EEEEEC1B7v160006INS_16__value_init_tagESN_EEOT_OT0_, symObjAddr: 0xA1A0, symBinAddr: 0x10000C798, symSize: 0x3C }
  - { offsetInCU: 0x39335, offset: 0x39335, size: 0x8, addend: 0x0, symName: __ZNSt3__117__compressed_pairIPPNS_16__hash_node_baseIPNS_11__hash_nodeINS_17__hash_value_typeINS_12basic_stringIcNS_11char_traitsIcEENS_9allocatorIcEEEE10MemberInfoEEPvEEEENS_25__bucket_list_deallocatorINS7_ISG_EEEEEC2B7v160006INS_16__value_init_tagESN_EEOT_OT0_, symObjAddr: 0xA1DC, symBinAddr: 0x10000C7D4, symSize: 0x40 }
  - { offsetInCU: 0x3938C, offset: 0x3938C, size: 0x8, addend: 0x0, symName: __ZNSt3__122__compressed_pair_elemIPPNS_16__hash_node_baseIPNS_11__hash_nodeINS_17__hash_value_typeINS_12basic_stringIcNS_11char_traitsIcEENS_9allocatorIcEEEE10MemberInfoEEPvEEEELi0ELb0EEC2B7v160006ENS_16__value_init_tagE, symObjAddr: 0xA21C, symBinAddr: 0x10000C814, symSize: 0x18 }
  - { offsetInCU: 0x393BF, offset: 0x393BF, size: 0x8, addend: 0x0, symName: __ZNSt3__122__compressed_pair_elemINS_25__bucket_list_deallocatorINS_9allocatorIPNS_16__hash_node_baseIPNS_11__hash_nodeINS_17__hash_value_typeINS_12basic_stringIcNS_11char_traitsIcEENS2_IcEEEE10MemberInfoEEPvEEEEEEEELi1ELb0EEC2B7v160006ENS_16__value_init_tagE, symObjAddr: 0xA234, symBinAddr: 0x10000C82C, symSize: 0x2C }
  - { offsetInCU: 0x393F2, offset: 0x393F2, size: 0x8, addend: 0x0, symName: __ZNSt3__125__bucket_list_deallocatorINS_9allocatorIPNS_16__hash_node_baseIPNS_11__hash_nodeINS_17__hash_value_typeINS_12basic_stringIcNS_11char_traitsIcEENS1_IcEEEE10MemberInfoEEPvEEEEEEEC1B7v160006Ev, symObjAddr: 0xA260, symBinAddr: 0x10000C858, symSize: 0x2C }
  - { offsetInCU: 0x3941B, offset: 0x3941B, size: 0x8, addend: 0x0, symName: __ZNSt3__125__bucket_list_deallocatorINS_9allocatorIPNS_16__hash_node_baseIPNS_11__hash_nodeINS_17__hash_value_typeINS_12basic_stringIcNS_11char_traitsIcEENS1_IcEEEE10MemberInfoEEPvEEEEEEEC2B7v160006Ev, symObjAddr: 0xA28C, symBinAddr: 0x10000C884, symSize: 0x40 }
  - { offsetInCU: 0x39444, offset: 0x39444, size: 0x8, addend: 0x0, symName: __ZNSt3__117__compressed_pairImNS_9allocatorIPNS_16__hash_node_baseIPNS_11__hash_nodeINS_17__hash_value_typeINS_12basic_stringIcNS_11char_traitsIcEENS1_IcEEEE10MemberInfoEEPvEEEEEEEC1B7v160006IiNS_18__default_init_tagEEEOT_OT0_, symObjAddr: 0xA2CC, symBinAddr: 0x10000C8C4, symSize: 0x3C }
  - { offsetInCU: 0x3949B, offset: 0x3949B, size: 0x8, addend: 0x0, symName: __ZNSt3__117__compressed_pairImNS_9allocatorIPNS_16__hash_node_baseIPNS_11__hash_nodeINS_17__hash_value_typeINS_12basic_stringIcNS_11char_traitsIcEENS1_IcEEEE10MemberInfoEEPvEEEEEEEC2B7v160006IiNS_18__default_init_tagEEEOT_OT0_, symObjAddr: 0xA308, symBinAddr: 0x10000C900, symSize: 0x40 }
  - { offsetInCU: 0x394F2, offset: 0x394F2, size: 0x8, addend: 0x0, symName: __ZNSt3__122__compressed_pair_elemImLi0ELb0EEC2B7v160006IivEEOT_, symObjAddr: 0xA348, symBinAddr: 0x10000C940, symSize: 0x24 }
  - { offsetInCU: 0x39533, offset: 0x39533, size: 0x8, addend: 0x0, symName: __ZNSt3__122__compressed_pair_elemINS_9allocatorIPNS_16__hash_node_baseIPNS_11__hash_nodeINS_17__hash_value_typeINS_12basic_stringIcNS_11char_traitsIcEENS1_IcEEEE10MemberInfoEEPvEEEEEELi1ELb1EEC2B7v160006ENS_18__default_init_tagE, symObjAddr: 0xA36C, symBinAddr: 0x10000C964, symSize: 0x2C }
  - { offsetInCU: 0x39566, offset: 0x39566, size: 0x8, addend: 0x0, symName: __ZNSt3__19allocatorIPNS_16__hash_node_baseIPNS_11__hash_nodeINS_17__hash_value_typeINS_12basic_stringIcNS_11char_traitsIcEENS0_IcEEEE10MemberInfoEEPvEEEEEC2B7v160006Ev, symObjAddr: 0xA398, symBinAddr: 0x10000C990, symSize: 0x2C }
  - { offsetInCU: 0x3958F, offset: 0x3958F, size: 0x8, addend: 0x0, symName: __ZNSt3__116__non_trivial_ifILb1ENS_9allocatorIPNS_16__hash_node_baseIPNS_11__hash_nodeINS_17__hash_value_typeINS_12basic_stringIcNS_11char_traitsIcEENS1_IcEEEE10MemberInfoEEPvEEEEEEEC2B7v160006Ev, symObjAddr: 0xA3C4, symBinAddr: 0x10000C9BC, symSize: 0x14 }
  - { offsetInCU: 0x395B8, offset: 0x395B8, size: 0x8, addend: 0x0, symName: __ZNSt3__117__compressed_pairINS_16__hash_node_baseIPNS_11__hash_nodeINS_17__hash_value_typeINS_12basic_stringIcNS_11char_traitsIcEENS_9allocatorIcEEEE10MemberInfoEEPvEEEENS7_ISD_EEEC2B7v160006ILb1EvEEv, symObjAddr: 0xA3D8, symBinAddr: 0x10000C9D0, symSize: 0x34 }
  - { offsetInCU: 0x395EC, offset: 0x395EC, size: 0x8, addend: 0x0, symName: __ZNSt3__122__compressed_pair_elemINS_16__hash_node_baseIPNS_11__hash_nodeINS_17__hash_value_typeINS_12basic_stringIcNS_11char_traitsIcEENS_9allocatorIcEEEE10MemberInfoEEPvEEEELi0ELb0EEC2B7v160006ENS_16__value_init_tagE, symObjAddr: 0xA40C, symBinAddr: 0x10000CA04, symSize: 0x2C }
  - { offsetInCU: 0x3961F, offset: 0x3961F, size: 0x8, addend: 0x0, symName: __ZNSt3__122__compressed_pair_elemINS_9allocatorINS_11__hash_nodeINS_17__hash_value_typeINS_12basic_stringIcNS_11char_traitsIcEENS1_IcEEEE10MemberInfoEEPvEEEELi1ELb1EEC2B7v160006ENS_16__value_init_tagE, symObjAddr: 0xA438, symBinAddr: 0x10000CA30, symSize: 0x2C }
  - { offsetInCU: 0x39652, offset: 0x39652, size: 0x8, addend: 0x0, symName: __ZNSt3__116__hash_node_baseIPNS_11__hash_nodeINS_17__hash_value_typeINS_12basic_stringIcNS_11char_traitsIcEENS_9allocatorIcEEEE10MemberInfoEEPvEEEC1B7v160006Ev, symObjAddr: 0xA464, symBinAddr: 0x10000CA5C, symSize: 0x2C }
  - { offsetInCU: 0x3967B, offset: 0x3967B, size: 0x8, addend: 0x0, symName: __ZNSt3__116__hash_node_baseIPNS_11__hash_nodeINS_17__hash_value_typeINS_12basic_stringIcNS_11char_traitsIcEENS_9allocatorIcEEEE10MemberInfoEEPvEEEC2B7v160006Ev, symObjAddr: 0xA490, symBinAddr: 0x10000CA88, symSize: 0x18 }
  - { offsetInCU: 0x396A4, offset: 0x396A4, size: 0x8, addend: 0x0, symName: __ZNSt3__19allocatorINS_11__hash_nodeINS_17__hash_value_typeINS_12basic_stringIcNS_11char_traitsIcEENS0_IcEEEE10MemberInfoEEPvEEEC2B7v160006Ev, symObjAddr: 0xA4A8, symBinAddr: 0x10000CAA0, symSize: 0x2C }
  - { offsetInCU: 0x396CD, offset: 0x396CD, size: 0x8, addend: 0x0, symName: __ZNSt3__116__non_trivial_ifILb1ENS_9allocatorINS_11__hash_nodeINS_17__hash_value_typeINS_12basic_stringIcNS_11char_traitsIcEENS1_IcEEEE10MemberInfoEEPvEEEEEC2B7v160006Ev, symObjAddr: 0xA4D4, symBinAddr: 0x10000CACC, symSize: 0x14 }
  - { offsetInCU: 0x396F6, offset: 0x396F6, size: 0x8, addend: 0x0, symName: __ZNSt3__117__compressed_pairImNS_22__unordered_map_hasherINS_12basic_stringIcNS_11char_traitsIcEENS_9allocatorIcEEEENS_17__hash_value_typeIS7_10MemberInfoEENS_4hashIS7_EENS_8equal_toIS7_EELb1EEEEC2B7v160006IiNS_18__default_init_tagEEEOT_OT0_, symObjAddr: 0xA4E8, symBinAddr: 0x10000CAE0, symSize: 0x40 }
  - { offsetInCU: 0x3974D, offset: 0x3974D, size: 0x8, addend: 0x0, symName: __ZNSt3__122__compressed_pair_elemINS_22__unordered_map_hasherINS_12basic_stringIcNS_11char_traitsIcEENS_9allocatorIcEEEENS_17__hash_value_typeIS7_10MemberInfoEENS_4hashIS7_EENS_8equal_toIS7_EELb1EEELi1ELb1EEC2B7v160006ENS_18__default_init_tagE, symObjAddr: 0xA528, symBinAddr: 0x10000CB20, symSize: 0x2C }
  - { offsetInCU: 0x39780, offset: 0x39780, size: 0x8, addend: 0x0, symName: __ZNSt3__122__unordered_map_hasherINS_12basic_stringIcNS_11char_traitsIcEENS_9allocatorIcEEEENS_17__hash_value_typeIS6_10MemberInfoEENS_4hashIS6_EENS_8equal_toIS6_EELb1EEC2B7v160006Ev, symObjAddr: 0xA554, symBinAddr: 0x10000CB4C, symSize: 0x14 }
  - { offsetInCU: 0x397A9, offset: 0x397A9, size: 0x8, addend: 0x0, symName: __ZNSt3__117__compressed_pairIfNS_21__unordered_map_equalINS_12basic_stringIcNS_11char_traitsIcEENS_9allocatorIcEEEENS_17__hash_value_typeIS7_10MemberInfoEENS_8equal_toIS7_EENS_4hashIS7_EELb1EEEEC2B7v160006IfNS_18__default_init_tagEEEOT_OT0_, symObjAddr: 0xA568, symBinAddr: 0x10000CB60, symSize: 0x40 }
  - { offsetInCU: 0x39800, offset: 0x39800, size: 0x8, addend: 0x0, symName: __ZNSt3__122__compressed_pair_elemIfLi0ELb0EEC2B7v160006IfvEEOT_, symObjAddr: 0xA5A8, symBinAddr: 0x10000CBA0, symSize: 0x24 }
  - { offsetInCU: 0x39841, offset: 0x39841, size: 0x8, addend: 0x0, symName: __ZNSt3__122__compressed_pair_elemINS_21__unordered_map_equalINS_12basic_stringIcNS_11char_traitsIcEENS_9allocatorIcEEEENS_17__hash_value_typeIS7_10MemberInfoEENS_8equal_toIS7_EENS_4hashIS7_EELb1EEELi1ELb1EEC2B7v160006ENS_18__default_init_tagE, symObjAddr: 0xA5CC, symBinAddr: 0x10000CBC4, symSize: 0x2C }
  - { offsetInCU: 0x39874, offset: 0x39874, size: 0x8, addend: 0x0, symName: __ZNSt3__121__unordered_map_equalINS_12basic_stringIcNS_11char_traitsIcEENS_9allocatorIcEEEENS_17__hash_value_typeIS6_10MemberInfoEENS_8equal_toIS6_EENS_4hashIS6_EELb1EEC2B7v160006Ev, symObjAddr: 0xA5F8, symBinAddr: 0x10000CBF0, symSize: 0x14 }
  - { offsetInCU: 0x3989D, offset: 0x3989D, size: 0x8, addend: 0x0, symName: __ZNKSt3__111__wrap_iterIPP11aA_varDecl_E4baseB7v160006Ev, symObjAddr: 0xA654, symBinAddr: 0x10000CC4C, symSize: 0x18 }
  - { offsetInCU: 0x398C2, offset: 0x398C2, size: 0x8, addend: 0x0, symName: __ZN10MemberInfoC2Ei7TempDef, symObjAddr: 0xA66C, symBinAddr: 0x10000CC64, symSize: 0x4C }
  - { offsetInCU: 0x39908, offset: 0x39908, size: 0x8, addend: 0x0, symName: __ZN10MemberInfoD2Ev, symObjAddr: 0xA6B8, symBinAddr: 0x10000CCB0, symSize: 0x30 }
  - { offsetInCU: 0x39933, offset: 0x39933, size: 0x8, addend: 0x0, symName: __ZN10StructInfoD2Ev, symObjAddr: 0xA6E8, symBinAddr: 0x10000CCE0, symSize: 0x2C }
  - { offsetInCU: 0x3995E, offset: 0x3995E, size: 0x8, addend: 0x0, symName: __ZNSt3__113unordered_mapINS_12basic_stringIcNS_11char_traitsIcEENS_9allocatorIcEEEE10MemberInfoNS_4hashIS6_EENS_8equal_toIS6_EENS4_INS_4pairIKS6_S7_EEEEED1B7v160006Ev, symObjAddr: 0xA714, symBinAddr: 0x10000CD0C, symSize: 0x2C }
  - { offsetInCU: 0x39987, offset: 0x39987, size: 0x8, addend: 0x0, symName: __ZNSt3__113unordered_mapINS_12basic_stringIcNS_11char_traitsIcEENS_9allocatorIcEEEE10MemberInfoNS_4hashIS6_EENS_8equal_toIS6_EENS4_INS_4pairIKS6_S7_EEEEED2B7v160006Ev, symObjAddr: 0xA740, symBinAddr: 0x10000CD38, symSize: 0x2C }
  - { offsetInCU: 0x399B0, offset: 0x399B0, size: 0x8, addend: 0x0, symName: __ZNSt3__112__hash_tableINS_17__hash_value_typeINS_12basic_stringIcNS_11char_traitsIcEENS_9allocatorIcEEEE10MemberInfoEENS_22__unordered_map_hasherIS7_S9_NS_4hashIS7_EENS_8equal_toIS7_EELb1EEENS_21__unordered_map_equalIS7_S9_SE_SC_Lb1EEENS5_IS9_EEED1Ev, symObjAddr: 0xA76C, symBinAddr: 0x10000CD64, symSize: 0x2C }
  - { offsetInCU: 0x399DB, offset: 0x399DB, size: 0x8, addend: 0x0, symName: __ZNSt3__112__hash_tableINS_17__hash_value_typeINS_12basic_stringIcNS_11char_traitsIcEENS_9allocatorIcEEEE10MemberInfoEENS_22__unordered_map_hasherIS7_S9_NS_4hashIS7_EENS_8equal_toIS7_EELb1EEENS_21__unordered_map_equalIS7_S9_SE_SC_Lb1EEENS5_IS9_EEED2Ev, symObjAddr: 0xA798, symBinAddr: 0x10000CD90, symSize: 0x58 }
  - { offsetInCU: 0x39A05, offset: 0x39A05, size: 0x8, addend: 0x0, symName: __ZNSt3__112__hash_tableINS_17__hash_value_typeINS_12basic_stringIcNS_11char_traitsIcEENS_9allocatorIcEEEE10MemberInfoEENS_22__unordered_map_hasherIS7_S9_NS_4hashIS7_EENS_8equal_toIS7_EELb1EEENS_21__unordered_map_equalIS7_S9_SE_SC_Lb1EEENS5_IS9_EEE17__deallocate_nodeEPNS_16__hash_node_baseIPNS_11__hash_nodeIS9_PvEEEE, symObjAddr: 0xA7F0, symBinAddr: 0x10000CDE8, symSize: 0xA8 }
  - { offsetInCU: 0x39A6F, offset: 0x39A6F, size: 0x8, addend: 0x0, symName: __ZNSt3__117__compressed_pairINS_16__hash_node_baseIPNS_11__hash_nodeINS_17__hash_value_typeINS_12basic_stringIcNS_11char_traitsIcEENS_9allocatorIcEEEE10MemberInfoEEPvEEEENS7_ISD_EEE5firstB7v160006Ev, symObjAddr: 0xA898, symBinAddr: 0x10000CE90, symSize: 0x24 }
  - { offsetInCU: 0x39A94, offset: 0x39A94, size: 0x8, addend: 0x0, symName: __ZNSt3__110unique_ptrIA_PNS_16__hash_node_baseIPNS_11__hash_nodeINS_17__hash_value_typeINS_12basic_stringIcNS_11char_traitsIcEENS_9allocatorIcEEEE10MemberInfoEEPvEEEENS_25__bucket_list_deallocatorINS7_ISG_EEEEED1B7v160006Ev, symObjAddr: 0xA8CC, symBinAddr: 0x10000CEC4, symSize: 0x2C }
  - { offsetInCU: 0x39ABD, offset: 0x39ABD, size: 0x8, addend: 0x0, symName: __ZNSt3__112__hash_tableINS_17__hash_value_typeINS_12basic_stringIcNS_11char_traitsIcEENS_9allocatorIcEEEE10MemberInfoEENS_22__unordered_map_hasherIS7_S9_NS_4hashIS7_EENS_8equal_toIS7_EELb1EEENS_21__unordered_map_equalIS7_S9_SE_SC_Lb1EEENS5_IS9_EEE12__node_allocB7v160006Ev, symObjAddr: 0xA8F8, symBinAddr: 0x10000CEF0, symSize: 0x28 }
  - { offsetInCU: 0x39AE2, offset: 0x39AE2, size: 0x8, addend: 0x0, symName: __ZNSt3__116__hash_node_baseIPNS_11__hash_nodeINS_17__hash_value_typeINS_12basic_stringIcNS_11char_traitsIcEENS_9allocatorIcEEEE10MemberInfoEEPvEEE8__upcastB7v160006Ev, symObjAddr: 0xA920, symBinAddr: 0x10000CF18, symSize: 0x24 }
  - { offsetInCU: 0x39B07, offset: 0x39B07, size: 0x8, addend: 0x0, symName: __ZNSt3__116allocator_traitsINS_9allocatorINS_11__hash_nodeINS_17__hash_value_typeINS_12basic_stringIcNS_11char_traitsIcEENS1_IcEEEE10MemberInfoEEPvEEEEE7destroyB7v160006INS_4pairIKS8_S9_EEvvEEvRSD_PT_, symObjAddr: 0xA944, symBinAddr: 0x10000CF3C, symSize: 0x28 }
  - { offsetInCU: 0x39B41, offset: 0x39B41, size: 0x8, addend: 0x0, symName: __ZNSt3__122__hash_key_value_typesINS_17__hash_value_typeINS_12basic_stringIcNS_11char_traitsIcEENS_9allocatorIcEEEE10MemberInfoEEE9__get_ptrB7v160006ERS9_, symObjAddr: 0xA96C, symBinAddr: 0x10000CF64, symSize: 0x24 }
  - { offsetInCU: 0x39B64, offset: 0x39B64, size: 0x8, addend: 0x0, symName: __ZNSt3__116allocator_traitsINS_9allocatorINS_11__hash_nodeINS_17__hash_value_typeINS_12basic_stringIcNS_11char_traitsIcEENS1_IcEEEE10MemberInfoEEPvEEEEE10deallocateB7v160006ERSD_PSC_m, symObjAddr: 0xA990, symBinAddr: 0x10000CF88, symSize: 0x34 }
  - { offsetInCU: 0x39BA6, offset: 0x39BA6, size: 0x8, addend: 0x0, symName: __ZNSt3__117__compressed_pairINS_16__hash_node_baseIPNS_11__hash_nodeINS_17__hash_value_typeINS_12basic_stringIcNS_11char_traitsIcEENS_9allocatorIcEEEE10MemberInfoEEPvEEEENS7_ISD_EEE6secondB7v160006Ev, symObjAddr: 0xA9C4, symBinAddr: 0x10000CFBC, symSize: 0x24 }
  - { offsetInCU: 0x39BCB, offset: 0x39BCB, size: 0x8, addend: 0x0, symName: __ZNSt3__122__compressed_pair_elemINS_9allocatorINS_11__hash_nodeINS_17__hash_value_typeINS_12basic_stringIcNS_11char_traitsIcEENS1_IcEEEE10MemberInfoEEPvEEEELi1ELb1EE5__getB7v160006Ev, symObjAddr: 0xA9E8, symBinAddr: 0x10000CFE0, symSize: 0x14 }
  - { offsetInCU: 0x39BF0, offset: 0x39BF0, size: 0x8, addend: 0x0, symName: __ZNSt3__114pointer_traitsIPNS_16__hash_node_baseIPNS_11__hash_nodeINS_17__hash_value_typeINS_12basic_stringIcNS_11char_traitsIcEENS_9allocatorIcEEEE10MemberInfoEEPvEEEEE10pointer_toB7v160006ERSF_, symObjAddr: 0xA9FC, symBinAddr: 0x10000CFF4, symSize: 0x14 }
  - { offsetInCU: 0x39C13, offset: 0x39C13, size: 0x8, addend: 0x0, symName: __ZNSt3__14pairIKNS_12basic_stringIcNS_11char_traitsIcEENS_9allocatorIcEEEE10MemberInfoED1Ev, symObjAddr: 0xAA10, symBinAddr: 0x10000D008, symSize: 0x2C }
  - { offsetInCU: 0x39C3E, offset: 0x39C3E, size: 0x8, addend: 0x0, symName: __ZNSt3__14pairIKNS_12basic_stringIcNS_11char_traitsIcEENS_9allocatorIcEEEE10MemberInfoED2Ev, symObjAddr: 0xAA3C, symBinAddr: 0x10000D034, symSize: 0x38 }
  - { offsetInCU: 0x39C69, offset: 0x39C69, size: 0x8, addend: 0x0, symName: __ZNSt3__117__hash_value_typeINS_12basic_stringIcNS_11char_traitsIcEENS_9allocatorIcEEEE10MemberInfoE11__get_valueB7v160006Ev, symObjAddr: 0xAA74, symBinAddr: 0x10000D06C, symSize: 0x24 }
  - { offsetInCU: 0x39C8E, offset: 0x39C8E, size: 0x8, addend: 0x0, symName: __ZNSt3__19allocatorINS_11__hash_nodeINS_17__hash_value_typeINS_12basic_stringIcNS_11char_traitsIcEENS0_IcEEEE10MemberInfoEEPvEEE10deallocateB7v160006EPSB_m, symObjAddr: 0xAAD0, symBinAddr: 0x10000D0C8, symSize: 0x44 }
  - { offsetInCU: 0x39CCF, offset: 0x39CCF, size: 0x8, addend: 0x0, symName: __ZNSt3__122__compressed_pair_elemINS_16__hash_node_baseIPNS_11__hash_nodeINS_17__hash_value_typeINS_12basic_stringIcNS_11char_traitsIcEENS_9allocatorIcEEEE10MemberInfoEEPvEEEELi0ELb0EE5__getB7v160006Ev, symObjAddr: 0xAB14, symBinAddr: 0x10000D10C, symSize: 0x14 }
  - { offsetInCU: 0x39CF4, offset: 0x39CF4, size: 0x8, addend: 0x0, symName: __ZNSt3__110unique_ptrIA_PNS_16__hash_node_baseIPNS_11__hash_nodeINS_17__hash_value_typeINS_12basic_stringIcNS_11char_traitsIcEENS_9allocatorIcEEEE10MemberInfoEEPvEEEENS_25__bucket_list_deallocatorINS7_ISG_EEEEED2B7v160006Ev, symObjAddr: 0xAB28, symBinAddr: 0x10000D120, symSize: 0x30 }
  - { offsetInCU: 0x39D1D, offset: 0x39D1D, size: 0x8, addend: 0x0, symName: __ZNSt3__110unique_ptrIA_PNS_16__hash_node_baseIPNS_11__hash_nodeINS_17__hash_value_typeINS_12basic_stringIcNS_11char_traitsIcEENS_9allocatorIcEEEE10MemberInfoEEPvEEEENS_25__bucket_list_deallocatorINS7_ISG_EEEEE5resetB7v160006EDn, symObjAddr: 0xAB58, symBinAddr: 0x10000D150, symSize: 0x6C }
  - { offsetInCU: 0x39D5C, offset: 0x39D5C, size: 0x8, addend: 0x0, symName: __ZNSt3__117__compressed_pairIPPNS_16__hash_node_baseIPNS_11__hash_nodeINS_17__hash_value_typeINS_12basic_stringIcNS_11char_traitsIcEENS_9allocatorIcEEEE10MemberInfoEEPvEEEENS_25__bucket_list_deallocatorINS7_ISG_EEEEE5firstB7v160006Ev, symObjAddr: 0xABC4, symBinAddr: 0x10000D1BC, symSize: 0x24 }
  - { offsetInCU: 0x39D81, offset: 0x39D81, size: 0x8, addend: 0x0, symName: __ZNSt3__117__compressed_pairIPPNS_16__hash_node_baseIPNS_11__hash_nodeINS_17__hash_value_typeINS_12basic_stringIcNS_11char_traitsIcEENS_9allocatorIcEEEE10MemberInfoEEPvEEEENS_25__bucket_list_deallocatorINS7_ISG_EEEEE6secondB7v160006Ev, symObjAddr: 0xABE8, symBinAddr: 0x10000D1E0, symSize: 0x28 }
  - { offsetInCU: 0x39DA6, offset: 0x39DA6, size: 0x8, addend: 0x0, symName: __ZNSt3__125__bucket_list_deallocatorINS_9allocatorIPNS_16__hash_node_baseIPNS_11__hash_nodeINS_17__hash_value_typeINS_12basic_stringIcNS_11char_traitsIcEENS1_IcEEEE10MemberInfoEEPvEEEEEEEclB7v160006EPSG_, symObjAddr: 0xAC10, symBinAddr: 0x10000D208, symSize: 0x58 }
  - { offsetInCU: 0x39DDA, offset: 0x39DDA, size: 0x8, addend: 0x0, symName: __ZNSt3__122__compressed_pair_elemIPPNS_16__hash_node_baseIPNS_11__hash_nodeINS_17__hash_value_typeINS_12basic_stringIcNS_11char_traitsIcEENS_9allocatorIcEEEE10MemberInfoEEPvEEEELi0ELb0EE5__getB7v160006Ev, symObjAddr: 0xAC68, symBinAddr: 0x10000D260, symSize: 0x14 }
  - { offsetInCU: 0x39DFF, offset: 0x39DFF, size: 0x8, addend: 0x0, symName: __ZNSt3__122__compressed_pair_elemINS_25__bucket_list_deallocatorINS_9allocatorIPNS_16__hash_node_baseIPNS_11__hash_nodeINS_17__hash_value_typeINS_12basic_stringIcNS_11char_traitsIcEENS2_IcEEEE10MemberInfoEEPvEEEEEEEELi1ELb0EE5__getB7v160006Ev, symObjAddr: 0xAC7C, symBinAddr: 0x10000D274, symSize: 0x14 }
  - { offsetInCU: 0x39E24, offset: 0x39E24, size: 0x8, addend: 0x0, symName: __ZNSt3__116allocator_traitsINS_9allocatorIPNS_16__hash_node_baseIPNS_11__hash_nodeINS_17__hash_value_typeINS_12basic_stringIcNS_11char_traitsIcEENS1_IcEEEE10MemberInfoEEPvEEEEEEE10deallocateB7v160006ERSH_PSG_m, symObjAddr: 0xAC90, symBinAddr: 0x10000D288, symSize: 0x34 }
  - { offsetInCU: 0x39E66, offset: 0x39E66, size: 0x8, addend: 0x0, symName: __ZNSt3__125__bucket_list_deallocatorINS_9allocatorIPNS_16__hash_node_baseIPNS_11__hash_nodeINS_17__hash_value_typeINS_12basic_stringIcNS_11char_traitsIcEENS1_IcEEEE10MemberInfoEEPvEEEEEEE7__allocB7v160006Ev, symObjAddr: 0xACC4, symBinAddr: 0x10000D2BC, symSize: 0x24 }
  - { offsetInCU: 0x39E8B, offset: 0x39E8B, size: 0x8, addend: 0x0, symName: __ZNSt3__125__bucket_list_deallocatorINS_9allocatorIPNS_16__hash_node_baseIPNS_11__hash_nodeINS_17__hash_value_typeINS_12basic_stringIcNS_11char_traitsIcEENS1_IcEEEE10MemberInfoEEPvEEEEEEE4sizeB7v160006Ev, symObjAddr: 0xACE8, symBinAddr: 0x10000D2E0, symSize: 0x24 }
  - { offsetInCU: 0x39EB0, offset: 0x39EB0, size: 0x8, addend: 0x0, symName: __ZNSt3__19allocatorIPNS_16__hash_node_baseIPNS_11__hash_nodeINS_17__hash_value_typeINS_12basic_stringIcNS_11char_traitsIcEENS0_IcEEEE10MemberInfoEEPvEEEEE10deallocateB7v160006EPSF_m, symObjAddr: 0xAD0C, symBinAddr: 0x10000D304, symSize: 0x40 }
  - { offsetInCU: 0x39EF1, offset: 0x39EF1, size: 0x8, addend: 0x0, symName: __ZNSt3__117__compressed_pairImNS_9allocatorIPNS_16__hash_node_baseIPNS_11__hash_nodeINS_17__hash_value_typeINS_12basic_stringIcNS_11char_traitsIcEENS1_IcEEEE10MemberInfoEEPvEEEEEEE6secondB7v160006Ev, symObjAddr: 0xAD4C, symBinAddr: 0x10000D344, symSize: 0x24 }
  - { offsetInCU: 0x39F16, offset: 0x39F16, size: 0x8, addend: 0x0, symName: __ZNSt3__122__compressed_pair_elemINS_9allocatorIPNS_16__hash_node_baseIPNS_11__hash_nodeINS_17__hash_value_typeINS_12basic_stringIcNS_11char_traitsIcEENS1_IcEEEE10MemberInfoEEPvEEEEEELi1ELb1EE5__getB7v160006Ev, symObjAddr: 0xAD70, symBinAddr: 0x10000D368, symSize: 0x14 }
  - { offsetInCU: 0x39F3B, offset: 0x39F3B, size: 0x8, addend: 0x0, symName: __ZNSt3__117__compressed_pairImNS_9allocatorIPNS_16__hash_node_baseIPNS_11__hash_nodeINS_17__hash_value_typeINS_12basic_stringIcNS_11char_traitsIcEENS1_IcEEEE10MemberInfoEEPvEEEEEEE5firstB7v160006Ev, symObjAddr: 0xAD84, symBinAddr: 0x10000D37C, symSize: 0x24 }
  - { offsetInCU: 0x39F60, offset: 0x39F60, size: 0x8, addend: 0x0, symName: __ZN6LLVMIR8FuncTypeC2ERKS0_, symObjAddr: 0xADA8, symBinAddr: 0x10000D3A0, symSize: 0x48 }
  - { offsetInCU: 0x39F94, offset: 0x39F94, size: 0x8, addend: 0x0, symName: __ZNKSt3__111__wrap_iterIPP17aA_codeBlockStmt_E4baseB7v160006Ev, symObjAddr: 0xAE38, symBinAddr: 0x10000D430, symSize: 0x18 }
  - { offsetInCU: 0x39FB9, offset: 0x39FB9, size: 0x8, addend: 0x0, symName: __ZN10Func_localC2ENSt3__112basic_stringIcNS0_11char_traitsIcEENS0_9allocatorIcEEEEN6LLVMIR8FuncTypeERKNS0_6vectorIP9Temp_tempNS4_ISB_EEEERKNS0_4listIPNS7_5L_stmENS4_ISI_EEEE, symObjAddr: 0xAE50, symBinAddr: 0x10000D448, symSize: 0xE4 }
  - { offsetInCU: 0x3A01C, offset: 0x3A01C, size: 0x8, addend: 0x0, symName: __ZN10MemberInfoC2ERKS_, symObjAddr: 0xAF34, symBinAddr: 0x10000D52C, symSize: 0x48 }
  - { offsetInCU: 0x3A050, offset: 0x3A050, size: 0x8, addend: 0x0, symName: __ZNSt3__14listIPN6LLVMIR7L_blockENS_9allocatorIS3_EEED2Ev, symObjAddr: 0xAF7C, symBinAddr: 0x10000D574, symSize: 0x2C }
  - { offsetInCU: 0x3A07C, offset: 0x3A07C, size: 0x8, addend: 0x0, symName: __ZNSt3__110__list_impIPN6LLVMIR7L_blockENS_9allocatorIS3_EEED2Ev, symObjAddr: 0xAFA8, symBinAddr: 0x10000D5A0, symSize: 0x3C }
  - { offsetInCU: 0x3A0A6, offset: 0x3A0A6, size: 0x8, addend: 0x0, symName: __ZNSt3__110__list_impIPN6LLVMIR7L_blockENS_9allocatorIS3_EEE5clearEv, symObjAddr: 0xAFE4, symBinAddr: 0x10000D5DC, symSize: 0xEC }
  - { offsetInCU: 0x3A117, offset: 0x3A117, size: 0x8, addend: 0x0, symName: __ZNKSt3__110__list_impIPN6LLVMIR7L_blockENS_9allocatorIS3_EEE5emptyB7v160006Ev, symObjAddr: 0xB0E0, symBinAddr: 0x10000D6D8, symSize: 0x34 }
  - { offsetInCU: 0x3A13C, offset: 0x3A13C, size: 0x8, addend: 0x0, symName: __ZNSt3__110__list_impIPN6LLVMIR7L_blockENS_9allocatorIS3_EEE12__node_allocB7v160006Ev, symObjAddr: 0xB114, symBinAddr: 0x10000D70C, symSize: 0x28 }
  - { offsetInCU: 0x3A161, offset: 0x3A161, size: 0x8, addend: 0x0, symName: __ZNKSt3__110__list_impIPN6LLVMIR7L_blockENS_9allocatorIS3_EEE13__end_as_linkB7v160006Ev, symObjAddr: 0xB13C, symBinAddr: 0x10000D734, symSize: 0x44 }
  - { offsetInCU: 0x3A186, offset: 0x3A186, size: 0x8, addend: 0x0, symName: __ZNSt3__110__list_impIPN6LLVMIR7L_blockENS_9allocatorIS3_EEE14__unlink_nodesEPNS_16__list_node_baseIS3_PvEESA_, symObjAddr: 0xB180, symBinAddr: 0x10000D778, symSize: 0x3C }
  - { offsetInCU: 0x3A1BB, offset: 0x3A1BB, size: 0x8, addend: 0x0, symName: __ZNSt3__110__list_impIPN6LLVMIR7L_blockENS_9allocatorIS3_EEE4__szB7v160006Ev, symObjAddr: 0xB1BC, symBinAddr: 0x10000D7B4, symSize: 0x28 }
  - { offsetInCU: 0x3A1E0, offset: 0x3A1E0, size: 0x8, addend: 0x0, symName: __ZNSt3__116__list_node_baseIPN6LLVMIR7L_blockEPvE9__as_nodeB7v160006Ev, symObjAddr: 0xB1E4, symBinAddr: 0x10000D7DC, symSize: 0x24 }
  - { offsetInCU: 0x3A205, offset: 0x3A205, size: 0x8, addend: 0x0, symName: __ZNSt3__116allocator_traitsINS_9allocatorINS_11__list_nodeIPN6LLVMIR7L_blockEPvEEEEE7destroyB7v160006IS5_vvEEvRS8_PT_, symObjAddr: 0xB208, symBinAddr: 0x10000D800, symSize: 0x14 }
  - { offsetInCU: 0x3A23F, offset: 0x3A23F, size: 0x8, addend: 0x0, symName: __ZNSt3__116allocator_traitsINS_9allocatorINS_11__list_nodeIPN6LLVMIR7L_blockEPvEEEEE10deallocateB7v160006ERS8_PS7_m, symObjAddr: 0xB21C, symBinAddr: 0x10000D814, symSize: 0x34 }
  - { offsetInCU: 0x3A281, offset: 0x3A281, size: 0x8, addend: 0x0, symName: __ZNKSt3__110__list_impIPN6LLVMIR7L_blockENS_9allocatorIS3_EEE4__szB7v160006Ev, symObjAddr: 0xB260, symBinAddr: 0x10000D858, symSize: 0x28 }
  - { offsetInCU: 0x3A2A6, offset: 0x3A2A6, size: 0x8, addend: 0x0, symName: __ZNKSt3__117__compressed_pairImNS_9allocatorINS_11__list_nodeIPN6LLVMIR7L_blockEPvEEEEE5firstB7v160006Ev, symObjAddr: 0xB288, symBinAddr: 0x10000D880, symSize: 0x24 }
  - { offsetInCU: 0x3A2CB, offset: 0x3A2CB, size: 0x8, addend: 0x0, symName: __ZNSt3__117__compressed_pairImNS_9allocatorINS_11__list_nodeIPN6LLVMIR7L_blockEPvEEEEE6secondB7v160006Ev, symObjAddr: 0xB2AC, symBinAddr: 0x10000D8A4, symSize: 0x24 }
  - { offsetInCU: 0x3A2F0, offset: 0x3A2F0, size: 0x8, addend: 0x0, symName: __ZNSt3__122__compressed_pair_elemINS_9allocatorINS_11__list_nodeIPN6LLVMIR7L_blockEPvEEEELi1ELb1EE5__getB7v160006Ev, symObjAddr: 0xB2D0, symBinAddr: 0x10000D8C8, symSize: 0x14 }
  - { offsetInCU: 0x3A315, offset: 0x3A315, size: 0x8, addend: 0x0, symName: __ZNSt3__126__list_node_pointer_traitsIPN6LLVMIR7L_blockEPvE26__unsafe_link_pointer_castB7v160006EPNS_16__list_node_baseIS3_S4_EE, symObjAddr: 0xB2E4, symBinAddr: 0x10000D8DC, symSize: 0x14 }
  - { offsetInCU: 0x3A339, offset: 0x3A339, size: 0x8, addend: 0x0, symName: __ZNSt3__116__list_node_baseIPN6LLVMIR7L_blockEPvE6__selfB7v160006Ev, symObjAddr: 0xB2F8, symBinAddr: 0x10000D8F0, symSize: 0x24 }
  - { offsetInCU: 0x3A363, offset: 0x3A363, size: 0x8, addend: 0x0, symName: __ZNSt3__114pointer_traitsIPNS_16__list_node_baseIPN6LLVMIR7L_blockEPvEEE10pointer_toB7v160006ERS6_, symObjAddr: 0xB31C, symBinAddr: 0x10000D914, symSize: 0x14 }
  - { offsetInCU: 0x3A386, offset: 0x3A386, size: 0x8, addend: 0x0, symName: __ZNSt3__117__compressed_pairImNS_9allocatorINS_11__list_nodeIPN6LLVMIR7L_blockEPvEEEEE5firstB7v160006Ev, symObjAddr: 0xB330, symBinAddr: 0x10000D928, symSize: 0x24 }
  - { offsetInCU: 0x3A3AB, offset: 0x3A3AB, size: 0x8, addend: 0x0, symName: __ZNSt3__19allocatorINS_11__list_nodeIPN6LLVMIR7L_blockEPvEEE10deallocateB7v160006EPS6_m, symObjAddr: 0xB354, symBinAddr: 0x10000D94C, symSize: 0x44 }
  - { offsetInCU: 0x3A3EC, offset: 0x3A3EC, size: 0x8, addend: 0x0, symName: __ZNSt3__115__list_iteratorIPN6LLVMIR5L_stmEPvEmmB7v160006Ev, symObjAddr: 0xB4A0, symBinAddr: 0x10000DA98, symSize: 0x20 }
  - { offsetInCU: 0x3A411, offset: 0x3A411, size: 0x8, addend: 0x0, symName: __ZNSt3__112basic_stringIcNS_11char_traitsIcEENS_9allocatorIcEEEC2B7v160006Ev, symObjAddr: 0xB4C0, symBinAddr: 0x10000DAB8, symSize: 0x54 }
  - { offsetInCU: 0x3A43A, offset: 0x3A43A, size: 0x8, addend: 0x0, symName: __ZNSt3__117__compressed_pairINS_12basic_stringIcNS_11char_traitsIcEENS_9allocatorIcEEE5__repES5_EC1B7v160006INS_18__default_init_tagESA_EEOT_OT0_, symObjAddr: 0xB514, symBinAddr: 0x10000DB0C, symSize: 0x3C }
  - { offsetInCU: 0x3A491, offset: 0x3A491, size: 0x8, addend: 0x0, symName: __ZNSt3__112basic_stringIcNS_11char_traitsIcEENS_9allocatorIcEEE14__default_initB7v160006Ev, symObjAddr: 0xB560, symBinAddr: 0x10000DB58, symSize: 0x40 }
  - { offsetInCU: 0x3A4B6, offset: 0x3A4B6, size: 0x8, addend: 0x0, symName: __ZNSt3__117__compressed_pairINS_12basic_stringIcNS_11char_traitsIcEENS_9allocatorIcEEE5__repES5_EC2B7v160006INS_18__default_init_tagESA_EEOT_OT0_, symObjAddr: 0xB5A0, symBinAddr: 0x10000DB98, symSize: 0x3C }
  - { offsetInCU: 0x3A50D, offset: 0x3A50D, size: 0x8, addend: 0x0, symName: __ZNSt3__122__compressed_pair_elemINS_12basic_stringIcNS_11char_traitsIcEENS_9allocatorIcEEE5__repELi0ELb0EEC2B7v160006ENS_18__default_init_tagE, symObjAddr: 0xB5DC, symBinAddr: 0x10000DBD4, symSize: 0x14 }
  - { offsetInCU: 0x3A540, offset: 0x3A540, size: 0x8, addend: 0x0, symName: __ZNSt3__122__compressed_pair_elemINS_9allocatorIcEELi1ELb1EEC2B7v160006ENS_18__default_init_tagE, symObjAddr: 0xB5F0, symBinAddr: 0x10000DBE8, symSize: 0x2C }
  - { offsetInCU: 0x3A573, offset: 0x3A573, size: 0x8, addend: 0x0, symName: __ZNSt3__19allocatorIcEC2B7v160006Ev, symObjAddr: 0xB61C, symBinAddr: 0x10000DC14, symSize: 0x2C }
  - { offsetInCU: 0x3A59C, offset: 0x3A59C, size: 0x8, addend: 0x0, symName: __ZNSt3__116__non_trivial_ifILb1ENS_9allocatorIcEEEC2B7v160006Ev, symObjAddr: 0xB648, symBinAddr: 0x10000DC40, symSize: 0x14 }
  - { offsetInCU: 0x3A5C5, offset: 0x3A5C5, size: 0x8, addend: 0x0, symName: __ZNSt3__16vectorIP9Temp_tempNS_9allocatorIS2_EEEC2ERKS5_, symObjAddr: 0xB65C, symBinAddr: 0x10000DC54, symSize: 0x114 }
  - { offsetInCU: 0x3A62E, offset: 0x3A62E, size: 0x8, addend: 0x0, symName: __ZNSt3__116allocator_traitsINS_9allocatorIP9Temp_tempEEE37select_on_container_copy_constructionB7v160006IS4_vvEES4_RKS4_, symObjAddr: 0xB770, symBinAddr: 0x10000DD68, symSize: 0x10 }
  - { offsetInCU: 0x3A65D, offset: 0x3A65D, size: 0x8, addend: 0x0, symName: __ZNKSt3__16vectorIP9Temp_tempNS_9allocatorIS2_EEE7__allocB7v160006Ev, symObjAddr: 0xB780, symBinAddr: 0x10000DD78, symSize: 0x28 }
  - { offsetInCU: 0x3A68C, offset: 0x3A68C, size: 0x8, addend: 0x0, symName: __ZNSt3__117__compressed_pairIPP9Temp_tempNS_9allocatorIS2_EEEC1B7v160006IDnS5_EEOT_OT0_, symObjAddr: 0xB7A8, symBinAddr: 0x10000DDA0, symSize: 0x3C }
  - { offsetInCU: 0x3A6E3, offset: 0x3A6E3, size: 0x8, addend: 0x0, symName: __ZNSt3__16vectorIP9Temp_tempNS_9allocatorIS2_EEE16__destroy_vectorC1ERS5_, symObjAddr: 0xB824, symBinAddr: 0x10000DE1C, symSize: 0x34 }
  - { offsetInCU: 0x3A71B, offset: 0x3A71B, size: 0x8, addend: 0x0, symName: __ZNKSt3__16vectorIP9Temp_tempNS_9allocatorIS2_EEE4sizeB7v160006Ev, symObjAddr: 0xB868, symBinAddr: 0x10000DE60, symSize: 0x28 }
  - { offsetInCU: 0x3A740, offset: 0x3A740, size: 0x8, addend: 0x0, symName: __ZNSt3__16vectorIP9Temp_tempNS_9allocatorIS2_EEE11__vallocateB7v160006Em, symObjAddr: 0xB890, symBinAddr: 0x10000DE88, symSize: 0xAC }
  - { offsetInCU: 0x3A782, offset: 0x3A782, size: 0x8, addend: 0x0, symName: __ZNSt3__16vectorIP9Temp_tempNS_9allocatorIS2_EEE18__construct_at_endIPS2_Li0EEEvT_S8_m, symObjAddr: 0xB93C, symBinAddr: 0x10000DF34, symSize: 0x8C }
  - { offsetInCU: 0x3A7F4, offset: 0x3A7F4, size: 0x8, addend: 0x0, symName: __ZNSt3__128__exception_guard_exceptionsINS_6vectorIP9Temp_tempNS_9allocatorIS3_EEE16__destroy_vectorEE10__completeB7v160006Ev, symObjAddr: 0xB9C8, symBinAddr: 0x10000DFC0, symSize: 0x1C }
  - { offsetInCU: 0x3A819, offset: 0x3A819, size: 0x8, addend: 0x0, symName: __ZNSt3__128__exception_guard_exceptionsINS_6vectorIP9Temp_tempNS_9allocatorIS3_EEE16__destroy_vectorEED1B7v160006Ev, symObjAddr: 0xB9E4, symBinAddr: 0x10000DFDC, symSize: 0x2C }
  - { offsetInCU: 0x3A842, offset: 0x3A842, size: 0x8, addend: 0x0, symName: __ZNKSt3__117__compressed_pairIPP9Temp_tempNS_9allocatorIS2_EEE6secondB7v160006Ev, symObjAddr: 0xBA10, symBinAddr: 0x10000E008, symSize: 0x24 }
  - { offsetInCU: 0x3A867, offset: 0x3A867, size: 0x8, addend: 0x0, symName: __ZNKSt3__122__compressed_pair_elemINS_9allocatorIP9Temp_tempEELi1ELb1EE5__getB7v160006Ev, symObjAddr: 0xBA34, symBinAddr: 0x10000E02C, symSize: 0x14 }
  - { offsetInCU: 0x3A88C, offset: 0x3A88C, size: 0x8, addend: 0x0, symName: __ZNSt3__117__compressed_pairIPP9Temp_tempNS_9allocatorIS2_EEEC2B7v160006IDnS5_EEOT_OT0_, symObjAddr: 0xBA48, symBinAddr: 0x10000E040, symSize: 0x44 }
  - { offsetInCU: 0x3A8E3, offset: 0x3A8E3, size: 0x8, addend: 0x0, symName: __ZNSt3__122__compressed_pair_elemIPP9Temp_tempLi0ELb0EEC2B7v160006IDnvEEOT_, symObjAddr: 0xBA8C, symBinAddr: 0x10000E084, symSize: 0x1C }
  - { offsetInCU: 0x3A924, offset: 0x3A924, size: 0x8, addend: 0x0, symName: __ZNSt3__122__compressed_pair_elemINS_9allocatorIP9Temp_tempEELi1ELb1EEC2B7v160006IS4_vEEOT_, symObjAddr: 0xBAA8, symBinAddr: 0x10000E0A0, symSize: 0x18 }
  - { offsetInCU: 0x3A965, offset: 0x3A965, size: 0x8, addend: 0x0, symName: __ZNSt3__128__exception_guard_exceptionsINS_6vectorIP9Temp_tempNS_9allocatorIS3_EEE16__destroy_vectorEEC1B7v160006ES7_, symObjAddr: 0xBAC0, symBinAddr: 0x10000E0B8, symSize: 0x34 }
  - { offsetInCU: 0x3A99C, offset: 0x3A99C, size: 0x8, addend: 0x0, symName: __ZNSt3__128__exception_guard_exceptionsINS_6vectorIP9Temp_tempNS_9allocatorIS3_EEE16__destroy_vectorEEC2B7v160006ES7_, symObjAddr: 0xBAF4, symBinAddr: 0x10000E0EC, symSize: 0x24 }
  - { offsetInCU: 0x3A9D3, offset: 0x3A9D3, size: 0x8, addend: 0x0, symName: __ZNSt3__16vectorIP9Temp_tempNS_9allocatorIS2_EEE16__destroy_vectorC2ERS5_, symObjAddr: 0xBB18, symBinAddr: 0x10000E110, symSize: 0x20 }
  - { offsetInCU: 0x3AA0A, offset: 0x3AA0A, size: 0x8, addend: 0x0, symName: __ZNKSt3__16vectorIP9Temp_tempNS_9allocatorIS2_EEE8max_sizeEv, symObjAddr: 0xBB38, symBinAddr: 0x10000E130, symSize: 0x60 }
  - { offsetInCU: 0x3AA31, offset: 0x3AA31, size: 0x8, addend: 0x0, symName: __ZNKSt3__16vectorIP9Temp_tempNS_9allocatorIS2_EEE20__throw_length_errorB7v160006Ev, symObjAddr: 0xBB98, symBinAddr: 0x10000E190, symSize: 0x1C }
  - { offsetInCU: 0x3AA56, offset: 0x3AA56, size: 0x8, addend: 0x0, symName: __ZNSt3__16vectorIP9Temp_tempNS_9allocatorIS2_EEE7__allocB7v160006Ev, symObjAddr: 0xBBF4, symBinAddr: 0x10000E1EC, symSize: 0x28 }
  - { offsetInCU: 0x3AA7B, offset: 0x3AA7B, size: 0x8, addend: 0x0, symName: __ZNSt3__16vectorIP9Temp_tempNS_9allocatorIS2_EEE9__end_capB7v160006Ev, symObjAddr: 0xBC1C, symBinAddr: 0x10000E214, symSize: 0x28 }
  - { offsetInCU: 0x3AAA0, offset: 0x3AAA0, size: 0x8, addend: 0x0, symName: __ZNKSt3__16vectorIP9Temp_tempNS_9allocatorIS2_EEE14__annotate_newB7v160006Em, symObjAddr: 0xBC44, symBinAddr: 0x10000E23C, symSize: 0xAC }
  - { offsetInCU: 0x3AAD4, offset: 0x3AAD4, size: 0x8, addend: 0x0, symName: __ZNSt3__116allocator_traitsINS_9allocatorIP9Temp_tempEEE8max_sizeB7v160006IS4_vEEmRKS4_, symObjAddr: 0xBD1C, symBinAddr: 0x10000E314, symSize: 0x24 }
  - { offsetInCU: 0x3AB02, offset: 0x3AB02, size: 0x8, addend: 0x0, symName: __ZNSt3__114numeric_limitsIlE3maxB7v160006Ev, symObjAddr: 0xBD40, symBinAddr: 0x10000E338, symSize: 0x14 }
  - { offsetInCU: 0x3AB20, offset: 0x3AB20, size: 0x8, addend: 0x0, symName: __ZNKSt3__16__lessImmEclB7v160006ERKmS3_, symObjAddr: 0xBDA8, symBinAddr: 0x10000E3A0, symSize: 0x34 }
  - { offsetInCU: 0x3AB61, offset: 0x3AB61, size: 0x8, addend: 0x0, symName: __ZNKSt3__19allocatorIP9Temp_tempE8max_sizeB7v160006Ev, symObjAddr: 0xBDDC, symBinAddr: 0x10000E3D4, symSize: 0x14 }
  - { offsetInCU: 0x3AB86, offset: 0x3AB86, size: 0x8, addend: 0x0, symName: __ZNSt3__123__libcpp_numeric_limitsIlLb1EE3maxB7v160006Ev, symObjAddr: 0xBDF0, symBinAddr: 0x10000E3E8, symSize: 0x8 }
  - { offsetInCU: 0x3AB9A, offset: 0x3AB9A, size: 0x8, addend: 0x0, symName: __ZNSt12length_errorC1B7v160006EPKc, symObjAddr: 0xBE5C, symBinAddr: 0x10000E454, symSize: 0x34 }
  - { offsetInCU: 0x3ABD1, offset: 0x3ABD1, size: 0x8, addend: 0x0, symName: __ZNSt12length_errorC2B7v160006EPKc, symObjAddr: 0xBE90, symBinAddr: 0x10000E488, symSize: 0x4C }
  - { offsetInCU: 0x3AC08, offset: 0x3AC08, size: 0x8, addend: 0x0, symName: __ZNSt3__19allocatorIP9Temp_tempE8allocateB7v160006Em, symObjAddr: 0xBEDC, symBinAddr: 0x10000E4D4, symSize: 0x58 }
  - { offsetInCU: 0x3AC3B, offset: 0x3AC3B, size: 0x8, addend: 0x0, symName: __ZNSt3__117__compressed_pairIPP9Temp_tempNS_9allocatorIS2_EEE6secondB7v160006Ev, symObjAddr: 0xC018, symBinAddr: 0x10000E610, symSize: 0x24 }
  - { offsetInCU: 0x3AC60, offset: 0x3AC60, size: 0x8, addend: 0x0, symName: __ZNSt3__122__compressed_pair_elemINS_9allocatorIP9Temp_tempEELi1ELb1EE5__getB7v160006Ev, symObjAddr: 0xC03C, symBinAddr: 0x10000E634, symSize: 0x14 }
  - { offsetInCU: 0x3AC85, offset: 0x3AC85, size: 0x8, addend: 0x0, symName: __ZNSt3__117__compressed_pairIPP9Temp_tempNS_9allocatorIS2_EEE5firstB7v160006Ev, symObjAddr: 0xC050, symBinAddr: 0x10000E648, symSize: 0x24 }
  - { offsetInCU: 0x3ACAA, offset: 0x3ACAA, size: 0x8, addend: 0x0, symName: __ZNSt3__122__compressed_pair_elemIPP9Temp_tempLi0ELb0EE5__getB7v160006Ev, symObjAddr: 0xC074, symBinAddr: 0x10000E66C, symSize: 0x14 }
  - { offsetInCU: 0x3ACCF, offset: 0x3ACCF, size: 0x8, addend: 0x0, symName: __ZNKSt3__16vectorIP9Temp_tempNS_9allocatorIS2_EEE31__annotate_contiguous_containerB7v160006EPKvS7_S7_S7_, symObjAddr: 0xC088, symBinAddr: 0x10000E680, symSize: 0x20 }
  - { offsetInCU: 0x3AD20, offset: 0x3AD20, size: 0x8, addend: 0x0, symName: __ZNKSt3__16vectorIP9Temp_tempNS_9allocatorIS2_EEE4dataB7v160006Ev, symObjAddr: 0xC0A8, symBinAddr: 0x10000E6A0, symSize: 0x28 }
  - { offsetInCU: 0x3AD45, offset: 0x3AD45, size: 0x8, addend: 0x0, symName: __ZNKSt3__16vectorIP9Temp_tempNS_9allocatorIS2_EEE8capacityB7v160006Ev, symObjAddr: 0xC0D0, symBinAddr: 0x10000E6C8, symSize: 0x40 }
  - { offsetInCU: 0x3AD6A, offset: 0x3AD6A, size: 0x8, addend: 0x0, symName: __ZNKSt3__16vectorIP9Temp_tempNS_9allocatorIS2_EEE9__end_capB7v160006Ev, symObjAddr: 0xC124, symBinAddr: 0x10000E71C, symSize: 0x28 }
  - { offsetInCU: 0x3AD8F, offset: 0x3AD8F, size: 0x8, addend: 0x0, symName: __ZNKSt3__117__compressed_pairIPP9Temp_tempNS_9allocatorIS2_EEE5firstB7v160006Ev, symObjAddr: 0xC14C, symBinAddr: 0x10000E744, symSize: 0x24 }
  - { offsetInCU: 0x3ADB4, offset: 0x3ADB4, size: 0x8, addend: 0x0, symName: __ZNKSt3__122__compressed_pair_elemIPP9Temp_tempLi0ELb0EE5__getB7v160006Ev, symObjAddr: 0xC170, symBinAddr: 0x10000E768, symSize: 0x14 }
  - { offsetInCU: 0x3ADF2, offset: 0x3ADF2, size: 0x8, addend: 0x0, symName: __ZNSt3__16vectorIP9Temp_tempNS_9allocatorIS2_EEE21_ConstructTransactionC1B7v160006ERS5_m, symObjAddr: 0xC184, symBinAddr: 0x10000E77C, symSize: 0x3C }
  - { offsetInCU: 0x3AE39, offset: 0x3AE39, size: 0x8, addend: 0x0, symName: __ZNSt3__16vectorIP9Temp_tempNS_9allocatorIS2_EEE21_ConstructTransactionD1B7v160006Ev, symObjAddr: 0xC2B4, symBinAddr: 0x10000E8AC, symSize: 0x2C }
  - { offsetInCU: 0x3AE62, offset: 0x3AE62, size: 0x8, addend: 0x0, symName: __ZNSt3__16vectorIP9Temp_tempNS_9allocatorIS2_EEE21_ConstructTransactionC2B7v160006ERS5_m, symObjAddr: 0xC2E0, symBinAddr: 0x10000E8D8, symSize: 0x44 }
  - { offsetInCU: 0x3AEA9, offset: 0x3AEA9, size: 0x8, addend: 0x0, symName: __ZNSt3__129_AllocatorDestroyRangeReverseINS_9allocatorIP9Temp_tempEEPS3_EC1B7v160006ERS4_RS5_S8_, symObjAddr: 0xC370, symBinAddr: 0x10000E968, symSize: 0x44 }
  - { offsetInCU: 0x3AEFF, offset: 0x3AEFF, size: 0x8, addend: 0x0, symName: __ZNSt3__116allocator_traitsINS_9allocatorIP9Temp_tempEEE9constructB7v160006IS3_JRS3_EvEEvRS4_PT_DpOT0_, symObjAddr: 0xC3B4, symBinAddr: 0x10000E9AC, symSize: 0x34 }
  - { offsetInCU: 0x3AF56, offset: 0x3AF56, size: 0x8, addend: 0x0, symName: __ZNSt3__128__exception_guard_exceptionsINS_29_AllocatorDestroyRangeReverseINS_9allocatorIP9Temp_tempEEPS4_EEE10__completeB7v160006Ev, symObjAddr: 0xC3E8, symBinAddr: 0x10000E9E0, symSize: 0x1C }
  - { offsetInCU: 0x3AF7B, offset: 0x3AF7B, size: 0x8, addend: 0x0, symName: __ZNSt3__128__exception_guard_exceptionsINS_29_AllocatorDestroyRangeReverseINS_9allocatorIP9Temp_tempEEPS4_EEED1B7v160006Ev, symObjAddr: 0xC404, symBinAddr: 0x10000E9FC, symSize: 0x2C }
  - { offsetInCU: 0x3AFA4, offset: 0x3AFA4, size: 0x8, addend: 0x0, symName: __ZNSt3__128__exception_guard_exceptionsINS_29_AllocatorDestroyRangeReverseINS_9allocatorIP9Temp_tempEEPS4_EEEC1B7v160006ES7_, symObjAddr: 0xC430, symBinAddr: 0x10000EA28, symSize: 0x34 }
  - { offsetInCU: 0x3AFDC, offset: 0x3AFDC, size: 0x8, addend: 0x0, symName: __ZNSt3__128__exception_guard_exceptionsINS_29_AllocatorDestroyRangeReverseINS_9allocatorIP9Temp_tempEEPS4_EEEC2B7v160006ES7_, symObjAddr: 0xC464, symBinAddr: 0x10000EA5C, symSize: 0x30 }
  - { offsetInCU: 0x3B014, offset: 0x3B014, size: 0x8, addend: 0x0, symName: __ZNSt3__129_AllocatorDestroyRangeReverseINS_9allocatorIP9Temp_tempEEPS3_EC2B7v160006ERS4_RS5_S8_, symObjAddr: 0xC494, symBinAddr: 0x10000EA8C, symSize: 0x38 }
  - { offsetInCU: 0x3B06A, offset: 0x3B06A, size: 0x8, addend: 0x0, symName: __ZNSt3__19allocatorIP9Temp_tempE9constructB7v160006IS2_JRS2_EEEvPT_DpOT0_, symObjAddr: 0xC4CC, symBinAddr: 0x10000EAC4, symSize: 0x28 }
  - { offsetInCU: 0x3B0BF, offset: 0x3B0BF, size: 0x8, addend: 0x0, symName: __ZNSt3__128__exception_guard_exceptionsINS_29_AllocatorDestroyRangeReverseINS_9allocatorIP9Temp_tempEEPS4_EEED2B7v160006Ev, symObjAddr: 0xC4F4, symBinAddr: 0x10000EAEC, symSize: 0x50 }
  - { offsetInCU: 0x3B0E8, offset: 0x3B0E8, size: 0x8, addend: 0x0, symName: __ZNKSt3__129_AllocatorDestroyRangeReverseINS_9allocatorIP9Temp_tempEEPS3_EclB7v160006Ev, symObjAddr: 0xC544, symBinAddr: 0x10000EB3C, symSize: 0x68 }
  - { offsetInCU: 0x3B10D, offset: 0x3B10D, size: 0x8, addend: 0x0, symName: __ZNSt3__116reverse_iteratorIPP9Temp_tempEC1B7v160006ES3_, symObjAddr: 0xC61C, symBinAddr: 0x10000EC14, symSize: 0x34 }
  - { offsetInCU: 0x3B144, offset: 0x3B144, size: 0x8, addend: 0x0, symName: __ZNSt3__116allocator_traitsINS_9allocatorIP9Temp_tempEEE7destroyB7v160006IS3_vEEvRS4_PT_, symObjAddr: 0xC698, symBinAddr: 0x10000EC90, symSize: 0x2C }
  - { offsetInCU: 0x3B181, offset: 0x3B181, size: 0x8, addend: 0x0, symName: __ZNSt3__116reverse_iteratorIPP9Temp_tempEppB7v160006Ev, symObjAddr: 0xC6E8, symBinAddr: 0x10000ECE0, symSize: 0x20 }
  - { offsetInCU: 0x3B1A6, offset: 0x3B1A6, size: 0x8, addend: 0x0, symName: __ZNKSt3__116reverse_iteratorIPP9Temp_tempE4baseB7v160006Ev, symObjAddr: 0xC708, symBinAddr: 0x10000ED00, symSize: 0x18 }
  - { offsetInCU: 0x3B1CB, offset: 0x3B1CB, size: 0x8, addend: 0x0, symName: __ZNSt3__19allocatorIP9Temp_tempE7destroyB7v160006EPS2_, symObjAddr: 0xC720, symBinAddr: 0x10000ED18, symSize: 0x14 }
  - { offsetInCU: 0x3B203, offset: 0x3B203, size: 0x8, addend: 0x0, symName: __ZNSt3__119__to_address_helperINS_16reverse_iteratorIPP9Temp_tempEEvE6__callB7v160006ERKS5_, symObjAddr: 0xC734, symBinAddr: 0x10000ED2C, symSize: 0x38 }
  - { offsetInCU: 0x3B226, offset: 0x3B226, size: 0x8, addend: 0x0, symName: __ZNKSt3__116reverse_iteratorIPP9Temp_tempEptB7v160006Ev, symObjAddr: 0xC76C, symBinAddr: 0x10000ED64, symSize: 0x24 }
  - { offsetInCU: 0x3B24B, offset: 0x3B24B, size: 0x8, addend: 0x0, symName: __ZNKSt3__116reverse_iteratorIPP9Temp_tempEdeB7v160006Ev, symObjAddr: 0xC790, symBinAddr: 0x10000ED88, symSize: 0x28 }
  - { offsetInCU: 0x3B27E, offset: 0x3B27E, size: 0x8, addend: 0x0, symName: __ZNSt3__116reverse_iteratorIPP9Temp_tempEC2B7v160006ES3_, symObjAddr: 0xC7B8, symBinAddr: 0x10000EDB0, symSize: 0x28 }
  - { offsetInCU: 0x3B2B5, offset: 0x3B2B5, size: 0x8, addend: 0x0, symName: __ZNSt3__16vectorIP9Temp_tempNS_9allocatorIS2_EEE21_ConstructTransactionD2B7v160006Ev, symObjAddr: 0xC7E0, symBinAddr: 0x10000EDD8, symSize: 0x20 }
  - { offsetInCU: 0x3B2DE, offset: 0x3B2DE, size: 0x8, addend: 0x0, symName: __ZNSt3__128__exception_guard_exceptionsINS_6vectorIP9Temp_tempNS_9allocatorIS3_EEE16__destroy_vectorEED2B7v160006Ev, symObjAddr: 0xC800, symBinAddr: 0x10000EDF8, symSize: 0x50 }
  - { offsetInCU: 0x3B307, offset: 0x3B307, size: 0x8, addend: 0x0, symName: __ZNSt3__16vectorIP9Temp_tempNS_9allocatorIS2_EEE16__destroy_vectorclB7v160006Ev, symObjAddr: 0xC850, symBinAddr: 0x10000EE48, symSize: 0x9C }
  - { offsetInCU: 0x3B32C, offset: 0x3B32C, size: 0x8, addend: 0x0, symName: __ZNKSt3__16vectorIP9Temp_tempNS_9allocatorIS2_EEE17__annotate_deleteB7v160006Ev, symObjAddr: 0xC8EC, symBinAddr: 0x10000EEE4, symSize: 0xB8 }
  - { offsetInCU: 0x3B351, offset: 0x3B351, size: 0x8, addend: 0x0, symName: __ZNSt3__16vectorIP9Temp_tempNS_9allocatorIS2_EEE7__clearB7v160006Ev, symObjAddr: 0xC9B4, symBinAddr: 0x10000EFAC, symSize: 0x28 }
  - { offsetInCU: 0x3B376, offset: 0x3B376, size: 0x8, addend: 0x0, symName: __ZNSt3__116allocator_traitsINS_9allocatorIP9Temp_tempEEE10deallocateB7v160006ERS4_PS3_m, symObjAddr: 0xC9DC, symBinAddr: 0x10000EFD4, symSize: 0x34 }
  - { offsetInCU: 0x3B3B8, offset: 0x3B3B8, size: 0x8, addend: 0x0, symName: __ZNSt3__16vectorIP9Temp_tempNS_9allocatorIS2_EEE22__base_destruct_at_endB7v160006EPS2_, symObjAddr: 0xCA10, symBinAddr: 0x10000F008, symSize: 0x8C }
  - { offsetInCU: 0x3B3FB, offset: 0x3B3FB, size: 0x8, addend: 0x0, symName: __ZNSt3__19allocatorIP9Temp_tempE10deallocateB7v160006EPS2_m, symObjAddr: 0xCA9C, symBinAddr: 0x10000F094, symSize: 0x40 }
  - { offsetInCU: 0x3B43C, offset: 0x3B43C, size: 0x8, addend: 0x0, symName: __ZNSt3__14listIPN6LLVMIR5L_stmENS_9allocatorIS3_EEEC2ERKS6_, symObjAddr: 0xCADC, symBinAddr: 0x10000F0D4, symSize: 0xE8 }
  - { offsetInCU: 0x3B4AC, offset: 0x3B4AC, size: 0x8, addend: 0x0, symName: __ZNSt3__116allocator_traitsINS_9allocatorINS_11__list_nodeIPN6LLVMIR5L_stmEPvEEEEE37select_on_container_copy_constructionB7v160006IS8_vvEES8_RKS8_, symObjAddr: 0xCBC4, symBinAddr: 0x10000F1BC, symSize: 0x10 }
  - { offsetInCU: 0x3B4DB, offset: 0x3B4DB, size: 0x8, addend: 0x0, symName: __ZNKSt3__110__list_impIPN6LLVMIR5L_stmENS_9allocatorIS3_EEE12__node_allocB7v160006Ev, symObjAddr: 0xCBD4, symBinAddr: 0x10000F1CC, symSize: 0x28 }
  - { offsetInCU: 0x3B500, offset: 0x3B500, size: 0x8, addend: 0x0, symName: __ZNSt3__110__list_impIPN6LLVMIR5L_stmENS_9allocatorIS3_EEEC2EONS4_INS_11__list_nodeIS3_PvEEEE, symObjAddr: 0xCBFC, symBinAddr: 0x10000F1F4, symSize: 0x54 }
  - { offsetInCU: 0x3B53A, offset: 0x3B53A, size: 0x8, addend: 0x0, symName: __ZNKSt3__14listIPN6LLVMIR5L_stmENS_9allocatorIS3_EEE5beginB7v160006Ev, symObjAddr: 0xCC60, symBinAddr: 0x10000F258, symSize: 0x2C }
  - { offsetInCU: 0x3B55F, offset: 0x3B55F, size: 0x8, addend: 0x0, symName: __ZNKSt3__14listIPN6LLVMIR5L_stmENS_9allocatorIS3_EEE3endB7v160006Ev, symObjAddr: 0xCC8C, symBinAddr: 0x10000F284, symSize: 0x2C }
  - { offsetInCU: 0x3B584, offset: 0x3B584, size: 0x8, addend: 0x0, symName: __ZNKSt3__121__list_const_iteratorIPN6LLVMIR5L_stmEPvEdeB7v160006Ev, symObjAddr: 0xCCEC, symBinAddr: 0x10000F2E4, symSize: 0x2C }
  - { offsetInCU: 0x3B5A9, offset: 0x3B5A9, size: 0x8, addend: 0x0, symName: __ZNSt3__121__list_const_iteratorIPN6LLVMIR5L_stmEPvEppB7v160006Ev, symObjAddr: 0xCD18, symBinAddr: 0x10000F310, symSize: 0x20 }
  - { offsetInCU: 0x3B5CE, offset: 0x3B5CE, size: 0x8, addend: 0x0, symName: __ZNKSt3__117__compressed_pairImNS_9allocatorINS_11__list_nodeIPN6LLVMIR5L_stmEPvEEEEE6secondB7v160006Ev, symObjAddr: 0xCD38, symBinAddr: 0x10000F330, symSize: 0x24 }
  - { offsetInCU: 0x3B5F3, offset: 0x3B5F3, size: 0x8, addend: 0x0, symName: __ZNKSt3__122__compressed_pair_elemINS_9allocatorINS_11__list_nodeIPN6LLVMIR5L_stmEPvEEEELi1ELb1EE5__getB7v160006Ev, symObjAddr: 0xCD5C, symBinAddr: 0x10000F354, symSize: 0x14 }
  - { offsetInCU: 0x3B618, offset: 0x3B618, size: 0x8, addend: 0x0, symName: __ZNSt3__116__list_node_baseIPN6LLVMIR5L_stmEPvEC1B7v160006Ev, symObjAddr: 0xCD70, symBinAddr: 0x10000F368, symSize: 0x2C }
  - { offsetInCU: 0x3B646, offset: 0x3B646, size: 0x8, addend: 0x0, symName: __ZNSt3__117__compressed_pairImNS_9allocatorINS_11__list_nodeIPN6LLVMIR5L_stmEPvEEEEEC1B7v160006IiS8_EEOT_OT0_, symObjAddr: 0xCD9C, symBinAddr: 0x10000F394, symSize: 0x3C }
  - { offsetInCU: 0x3B69D, offset: 0x3B69D, size: 0x8, addend: 0x0, symName: __ZNSt3__116__list_node_baseIPN6LLVMIR5L_stmEPvEC2B7v160006Ev, symObjAddr: 0xCDD8, symBinAddr: 0x10000F3D0, symSize: 0x4C }
  - { offsetInCU: 0x3B6C6, offset: 0x3B6C6, size: 0x8, addend: 0x0, symName: __ZNSt3__117__compressed_pairImNS_9allocatorINS_11__list_nodeIPN6LLVMIR5L_stmEPvEEEEEC2B7v160006IiS8_EEOT_OT0_, symObjAddr: 0xCE24, symBinAddr: 0x10000F41C, symSize: 0x44 }
  - { offsetInCU: 0x3B71D, offset: 0x3B71D, size: 0x8, addend: 0x0, symName: __ZNSt3__122__compressed_pair_elemINS_9allocatorINS_11__list_nodeIPN6LLVMIR5L_stmEPvEEEELi1ELb1EEC2B7v160006IS8_vEEOT_, symObjAddr: 0xCE68, symBinAddr: 0x10000F460, symSize: 0x18 }
  - { offsetInCU: 0x3B75E, offset: 0x3B75E, size: 0x8, addend: 0x0, symName: __ZNKSt3__110__list_impIPN6LLVMIR5L_stmENS_9allocatorIS3_EEE5beginB7v160006Ev, symObjAddr: 0xCE80, symBinAddr: 0x10000F478, symSize: 0x30 }
  - { offsetInCU: 0x3B783, offset: 0x3B783, size: 0x8, addend: 0x0, symName: __ZNSt3__121__list_const_iteratorIPN6LLVMIR5L_stmEPvEC1B7v160006EPNS_16__list_node_baseIS3_S4_EEPKv, symObjAddr: 0xCEB0, symBinAddr: 0x10000F4A8, symSize: 0x3C }
  - { offsetInCU: 0x3B7CA, offset: 0x3B7CA, size: 0x8, addend: 0x0, symName: __ZNSt3__121__list_const_iteratorIPN6LLVMIR5L_stmEPvEC2B7v160006EPNS_16__list_node_baseIS3_S4_EEPKv, symObjAddr: 0xCEEC, symBinAddr: 0x10000F4E4, symSize: 0x24 }
  - { offsetInCU: 0x3B811, offset: 0x3B811, size: 0x8, addend: 0x0, symName: __ZNKSt3__110__list_impIPN6LLVMIR5L_stmENS_9allocatorIS3_EEE3endB7v160006Ev, symObjAddr: 0xCF10, symBinAddr: 0x10000F508, symSize: 0x3C }
  - { offsetInCU: 0x3B836, offset: 0x3B836, size: 0x8, addend: 0x0, symName: __ZNSt3__16vectorIP9Temp_tempNS_9allocatorIS2_EEED2B7v160006Ev, symObjAddr: 0xCF7C, symBinAddr: 0x10000F574, symSize: 0x44 }
  - { offsetInCU: 0x3B85F, offset: 0x3B85F, size: 0x8, addend: 0x0, symName: __ZNSt3__113unordered_mapINS_12basic_stringIcNS_11char_traitsIcEENS_9allocatorIcEEEEN6LLVMIR8FuncTypeENS_4hashIS6_EENS_8equal_toIS6_EENS4_INS_4pairIKS6_S8_EEEEEC2B7v160006Ev, symObjAddr: 0xCFC0, symBinAddr: 0x10000F5B8, symSize: 0x3C }
  - { offsetInCU: 0x3B888, offset: 0x3B888, size: 0x8, addend: 0x0, symName: __ZNSt3__112__hash_tableINS_17__hash_value_typeINS_12basic_stringIcNS_11char_traitsIcEENS_9allocatorIcEEEEN6LLVMIR8FuncTypeEEENS_22__unordered_map_hasherIS7_SA_NS_4hashIS7_EENS_8equal_toIS7_EELb1EEENS_21__unordered_map_equalIS7_SA_SF_SD_Lb1EEENS5_ISA_EEEC1Ev, symObjAddr: 0xCFFC, symBinAddr: 0x10000F5F4, symSize: 0x2C }
  - { offsetInCU: 0x3B8B3, offset: 0x3B8B3, size: 0x8, addend: 0x0, symName: __ZNSt3__112__hash_tableINS_17__hash_value_typeINS_12basic_stringIcNS_11char_traitsIcEENS_9allocatorIcEEEEN6LLVMIR8FuncTypeEEENS_22__unordered_map_hasherIS7_SA_NS_4hashIS7_EENS_8equal_toIS7_EELb1EEENS_21__unordered_map_equalIS7_SA_SF_SD_Lb1EEENS5_ISA_EEEC2Ev, symObjAddr: 0xD038, symBinAddr: 0x10000F630, symSize: 0x7C }
  - { offsetInCU: 0x3B8DE, offset: 0x3B8DE, size: 0x8, addend: 0x0, symName: __ZNSt3__110unique_ptrIA_PNS_16__hash_node_baseIPNS_11__hash_nodeINS_17__hash_value_typeINS_12basic_stringIcNS_11char_traitsIcEENS_9allocatorIcEEEEN6LLVMIR8FuncTypeEEEPvEEEENS_25__bucket_list_deallocatorINS7_ISH_EEEEEC1B7v160006ILb1EvEEv, symObjAddr: 0xD0B4, symBinAddr: 0x10000F6AC, symSize: 0x2C }
  - { offsetInCU: 0x3B912, offset: 0x3B912, size: 0x8, addend: 0x0, symName: __ZNSt3__117__compressed_pairINS_16__hash_node_baseIPNS_11__hash_nodeINS_17__hash_value_typeINS_12basic_stringIcNS_11char_traitsIcEENS_9allocatorIcEEEEN6LLVMIR8FuncTypeEEEPvEEEENS7_ISE_EEEC1B7v160006ILb1EvEEv, symObjAddr: 0xD0E0, symBinAddr: 0x10000F6D8, symSize: 0x2C }
  - { offsetInCU: 0x3B946, offset: 0x3B946, size: 0x8, addend: 0x0, symName: __ZNSt3__117__compressed_pairImNS_22__unordered_map_hasherINS_12basic_stringIcNS_11char_traitsIcEENS_9allocatorIcEEEENS_17__hash_value_typeIS7_N6LLVMIR8FuncTypeEEENS_4hashIS7_EENS_8equal_toIS7_EELb1EEEEC1B7v160006IiNS_18__default_init_tagEEEOT_OT0_, symObjAddr: 0xD10C, symBinAddr: 0x10000F704, symSize: 0x3C }
  - { offsetInCU: 0x3B99D, offset: 0x3B99D, size: 0x8, addend: 0x0, symName: __ZNSt3__117__compressed_pairIfNS_21__unordered_map_equalINS_12basic_stringIcNS_11char_traitsIcEENS_9allocatorIcEEEENS_17__hash_value_typeIS7_N6LLVMIR8FuncTypeEEENS_8equal_toIS7_EENS_4hashIS7_EELb1EEEEC1B7v160006IfNS_18__default_init_tagEEEOT_OT0_, symObjAddr: 0xD148, symBinAddr: 0x10000F740, symSize: 0x3C }
  - { offsetInCU: 0x3B9F4, offset: 0x3B9F4, size: 0x8, addend: 0x0, symName: __ZNSt3__110unique_ptrIA_PNS_16__hash_node_baseIPNS_11__hash_nodeINS_17__hash_value_typeINS_12basic_stringIcNS_11char_traitsIcEENS_9allocatorIcEEEEN6LLVMIR8FuncTypeEEEPvEEEENS_25__bucket_list_deallocatorINS7_ISH_EEEEEC2B7v160006ILb1EvEEv, symObjAddr: 0xD184, symBinAddr: 0x10000F77C, symSize: 0x3C }
  - { offsetInCU: 0x3BA28, offset: 0x3BA28, size: 0x8, addend: 0x0, symName: __ZNSt3__117__compressed_pairIPPNS_16__hash_node_baseIPNS_11__hash_nodeINS_17__hash_value_typeINS_12basic_stringIcNS_11char_traitsIcEENS_9allocatorIcEEEEN6LLVMIR8FuncTypeEEEPvEEEENS_25__bucket_list_deallocatorINS7_ISH_EEEEEC1B7v160006INS_16__value_init_tagESO_EEOT_OT0_, symObjAddr: 0xD1C0, symBinAddr: 0x10000F7B8, symSize: 0x3C }
  - { offsetInCU: 0x3BA7F, offset: 0x3BA7F, size: 0x8, addend: 0x0, symName: __ZNSt3__117__compressed_pairIPPNS_16__hash_node_baseIPNS_11__hash_nodeINS_17__hash_value_typeINS_12basic_stringIcNS_11char_traitsIcEENS_9allocatorIcEEEEN6LLVMIR8FuncTypeEEEPvEEEENS_25__bucket_list_deallocatorINS7_ISH_EEEEEC2B7v160006INS_16__value_init_tagESO_EEOT_OT0_, symObjAddr: 0xD1FC, symBinAddr: 0x10000F7F4, symSize: 0x40 }
  - { offsetInCU: 0x3BAD6, offset: 0x3BAD6, size: 0x8, addend: 0x0, symName: __ZNSt3__122__compressed_pair_elemIPPNS_16__hash_node_baseIPNS_11__hash_nodeINS_17__hash_value_typeINS_12basic_stringIcNS_11char_traitsIcEENS_9allocatorIcEEEEN6LLVMIR8FuncTypeEEEPvEEEELi0ELb0EEC2B7v160006ENS_16__value_init_tagE, symObjAddr: 0xD23C, symBinAddr: 0x10000F834, symSize: 0x18 }
  - { offsetInCU: 0x3BB09, offset: 0x3BB09, size: 0x8, addend: 0x0, symName: __ZNSt3__122__compressed_pair_elemINS_25__bucket_list_deallocatorINS_9allocatorIPNS_16__hash_node_baseIPNS_11__hash_nodeINS_17__hash_value_typeINS_12basic_stringIcNS_11char_traitsIcEENS2_IcEEEEN6LLVMIR8FuncTypeEEEPvEEEEEEEELi1ELb0EEC2B7v160006ENS_16__value_init_tagE, symObjAddr: 0xD254, symBinAddr: 0x10000F84C, symSize: 0x2C }
  - { offsetInCU: 0x3BB3C, offset: 0x3BB3C, size: 0x8, addend: 0x0, symName: __ZNSt3__125__bucket_list_deallocatorINS_9allocatorIPNS_16__hash_node_baseIPNS_11__hash_nodeINS_17__hash_value_typeINS_12basic_stringIcNS_11char_traitsIcEENS1_IcEEEEN6LLVMIR8FuncTypeEEEPvEEEEEEEC1B7v160006Ev, symObjAddr: 0xD280, symBinAddr: 0x10000F878, symSize: 0x2C }
  - { offsetInCU: 0x3BB65, offset: 0x3BB65, size: 0x8, addend: 0x0, symName: __ZNSt3__125__bucket_list_deallocatorINS_9allocatorIPNS_16__hash_node_baseIPNS_11__hash_nodeINS_17__hash_value_typeINS_12basic_stringIcNS_11char_traitsIcEENS1_IcEEEEN6LLVMIR8FuncTypeEEEPvEEEEEEEC2B7v160006Ev, symObjAddr: 0xD2AC, symBinAddr: 0x10000F8A4, symSize: 0x40 }
  - { offsetInCU: 0x3BB8E, offset: 0x3BB8E, size: 0x8, addend: 0x0, symName: __ZNSt3__117__compressed_pairImNS_9allocatorIPNS_16__hash_node_baseIPNS_11__hash_nodeINS_17__hash_value_typeINS_12basic_stringIcNS_11char_traitsIcEENS1_IcEEEEN6LLVMIR8FuncTypeEEEPvEEEEEEEC1B7v160006IiNS_18__default_init_tagEEEOT_OT0_, symObjAddr: 0xD2EC, symBinAddr: 0x10000F8E4, symSize: 0x3C }
  - { offsetInCU: 0x3BBE5, offset: 0x3BBE5, size: 0x8, addend: 0x0, symName: __ZNSt3__117__compressed_pairImNS_9allocatorIPNS_16__hash_node_baseIPNS_11__hash_nodeINS_17__hash_value_typeINS_12basic_stringIcNS_11char_traitsIcEENS1_IcEEEEN6LLVMIR8FuncTypeEEEPvEEEEEEEC2B7v160006IiNS_18__default_init_tagEEEOT_OT0_, symObjAddr: 0xD328, symBinAddr: 0x10000F920, symSize: 0x40 }
  - { offsetInCU: 0x3BC3C, offset: 0x3BC3C, size: 0x8, addend: 0x0, symName: __ZNSt3__122__compressed_pair_elemINS_9allocatorIPNS_16__hash_node_baseIPNS_11__hash_nodeINS_17__hash_value_typeINS_12basic_stringIcNS_11char_traitsIcEENS1_IcEEEEN6LLVMIR8FuncTypeEEEPvEEEEEELi1ELb1EEC2B7v160006ENS_18__default_init_tagE, symObjAddr: 0xD368, symBinAddr: 0x10000F960, symSize: 0x2C }
  - { offsetInCU: 0x3BC6F, offset: 0x3BC6F, size: 0x8, addend: 0x0, symName: __ZNSt3__19allocatorIPNS_16__hash_node_baseIPNS_11__hash_nodeINS_17__hash_value_typeINS_12basic_stringIcNS_11char_traitsIcEENS0_IcEEEEN6LLVMIR8FuncTypeEEEPvEEEEEC2B7v160006Ev, symObjAddr: 0xD394, symBinAddr: 0x10000F98C, symSize: 0x2C }
  - { offsetInCU: 0x3BC98, offset: 0x3BC98, size: 0x8, addend: 0x0, symName: __ZNSt3__116__non_trivial_ifILb1ENS_9allocatorIPNS_16__hash_node_baseIPNS_11__hash_nodeINS_17__hash_value_typeINS_12basic_stringIcNS_11char_traitsIcEENS1_IcEEEEN6LLVMIR8FuncTypeEEEPvEEEEEEEC2B7v160006Ev, symObjAddr: 0xD3C0, symBinAddr: 0x10000F9B8, symSize: 0x14 }
  - { offsetInCU: 0x3BCC1, offset: 0x3BCC1, size: 0x8, addend: 0x0, symName: __ZNSt3__117__compressed_pairINS_16__hash_node_baseIPNS_11__hash_nodeINS_17__hash_value_typeINS_12basic_stringIcNS_11char_traitsIcEENS_9allocatorIcEEEEN6LLVMIR8FuncTypeEEEPvEEEENS7_ISE_EEEC2B7v160006ILb1EvEEv, symObjAddr: 0xD3D4, symBinAddr: 0x10000F9CC, symSize: 0x34 }
  - { offsetInCU: 0x3BCF5, offset: 0x3BCF5, size: 0x8, addend: 0x0, symName: __ZNSt3__122__compressed_pair_elemINS_16__hash_node_baseIPNS_11__hash_nodeINS_17__hash_value_typeINS_12basic_stringIcNS_11char_traitsIcEENS_9allocatorIcEEEEN6LLVMIR8FuncTypeEEEPvEEEELi0ELb0EEC2B7v160006ENS_16__value_init_tagE, symObjAddr: 0xD408, symBinAddr: 0x10000FA00, symSize: 0x2C }
  - { offsetInCU: 0x3BD28, offset: 0x3BD28, size: 0x8, addend: 0x0, symName: __ZNSt3__122__compressed_pair_elemINS_9allocatorINS_11__hash_nodeINS_17__hash_value_typeINS_12basic_stringIcNS_11char_traitsIcEENS1_IcEEEEN6LLVMIR8FuncTypeEEEPvEEEELi1ELb1EEC2B7v160006ENS_16__value_init_tagE, symObjAddr: 0xD434, symBinAddr: 0x10000FA2C, symSize: 0x2C }
  - { offsetInCU: 0x3BD5B, offset: 0x3BD5B, size: 0x8, addend: 0x0, symName: __ZNSt3__116__hash_node_baseIPNS_11__hash_nodeINS_17__hash_value_typeINS_12basic_stringIcNS_11char_traitsIcEENS_9allocatorIcEEEEN6LLVMIR8FuncTypeEEEPvEEEC1B7v160006Ev, symObjAddr: 0xD460, symBinAddr: 0x10000FA58, symSize: 0x2C }
  - { offsetInCU: 0x3BD84, offset: 0x3BD84, size: 0x8, addend: 0x0, symName: __ZNSt3__116__hash_node_baseIPNS_11__hash_nodeINS_17__hash_value_typeINS_12basic_stringIcNS_11char_traitsIcEENS_9allocatorIcEEEEN6LLVMIR8FuncTypeEEEPvEEEC2B7v160006Ev, symObjAddr: 0xD48C, symBinAddr: 0x10000FA84, symSize: 0x18 }
  - { offsetInCU: 0x3BDAD, offset: 0x3BDAD, size: 0x8, addend: 0x0, symName: __ZNSt3__19allocatorINS_11__hash_nodeINS_17__hash_value_typeINS_12basic_stringIcNS_11char_traitsIcEENS0_IcEEEEN6LLVMIR8FuncTypeEEEPvEEEC2B7v160006Ev, symObjAddr: 0xD4A4, symBinAddr: 0x10000FA9C, symSize: 0x2C }
  - { offsetInCU: 0x3BDD6, offset: 0x3BDD6, size: 0x8, addend: 0x0, symName: __ZNSt3__116__non_trivial_ifILb1ENS_9allocatorINS_11__hash_nodeINS_17__hash_value_typeINS_12basic_stringIcNS_11char_traitsIcEENS1_IcEEEEN6LLVMIR8FuncTypeEEEPvEEEEEC2B7v160006Ev, symObjAddr: 0xD4D0, symBinAddr: 0x10000FAC8, symSize: 0x14 }
  - { offsetInCU: 0x3BDFF, offset: 0x3BDFF, size: 0x8, addend: 0x0, symName: __ZNSt3__117__compressed_pairImNS_22__unordered_map_hasherINS_12basic_stringIcNS_11char_traitsIcEENS_9allocatorIcEEEENS_17__hash_value_typeIS7_N6LLVMIR8FuncTypeEEENS_4hashIS7_EENS_8equal_toIS7_EELb1EEEEC2B7v160006IiNS_18__default_init_tagEEEOT_OT0_, symObjAddr: 0xD4E4, symBinAddr: 0x10000FADC, symSize: 0x40 }
  - { offsetInCU: 0x3BE56, offset: 0x3BE56, size: 0x8, addend: 0x0, symName: __ZNSt3__122__compressed_pair_elemINS_22__unordered_map_hasherINS_12basic_stringIcNS_11char_traitsIcEENS_9allocatorIcEEEENS_17__hash_value_typeIS7_N6LLVMIR8FuncTypeEEENS_4hashIS7_EENS_8equal_toIS7_EELb1EEELi1ELb1EEC2B7v160006ENS_18__default_init_tagE, symObjAddr: 0xD524, symBinAddr: 0x10000FB1C, symSize: 0x2C }
  - { offsetInCU: 0x3BE89, offset: 0x3BE89, size: 0x8, addend: 0x0, symName: __ZNSt3__122__unordered_map_hasherINS_12basic_stringIcNS_11char_traitsIcEENS_9allocatorIcEEEENS_17__hash_value_typeIS6_N6LLVMIR8FuncTypeEEENS_4hashIS6_EENS_8equal_toIS6_EELb1EEC2B7v160006Ev, symObjAddr: 0xD550, symBinAddr: 0x10000FB48, symSize: 0x14 }
  - { offsetInCU: 0x3BEB2, offset: 0x3BEB2, size: 0x8, addend: 0x0, symName: __ZNSt3__117__compressed_pairIfNS_21__unordered_map_equalINS_12basic_stringIcNS_11char_traitsIcEENS_9allocatorIcEEEENS_17__hash_value_typeIS7_N6LLVMIR8FuncTypeEEENS_8equal_toIS7_EENS_4hashIS7_EELb1EEEEC2B7v160006IfNS_18__default_init_tagEEEOT_OT0_, symObjAddr: 0xD564, symBinAddr: 0x10000FB5C, symSize: 0x40 }
  - { offsetInCU: 0x3BF09, offset: 0x3BF09, size: 0x8, addend: 0x0, symName: __ZNSt3__122__compressed_pair_elemINS_21__unordered_map_equalINS_12basic_stringIcNS_11char_traitsIcEENS_9allocatorIcEEEENS_17__hash_value_typeIS7_N6LLVMIR8FuncTypeEEENS_8equal_toIS7_EENS_4hashIS7_EELb1EEELi1ELb1EEC2B7v160006ENS_18__default_init_tagE, symObjAddr: 0xD5A4, symBinAddr: 0x10000FB9C, symSize: 0x2C }
  - { offsetInCU: 0x3BF3C, offset: 0x3BF3C, size: 0x8, addend: 0x0, symName: __ZNSt3__121__unordered_map_equalINS_12basic_stringIcNS_11char_traitsIcEENS_9allocatorIcEEEENS_17__hash_value_typeIS6_N6LLVMIR8FuncTypeEEENS_8equal_toIS6_EENS_4hashIS6_EELb1EEC2B7v160006Ev, symObjAddr: 0xD5D0, symBinAddr: 0x10000FBC8, symSize: 0x14 }
  - { offsetInCU: 0x3BF65, offset: 0x3BF65, size: 0x8, addend: 0x0, symName: __ZNSt3__113unordered_mapINS_12basic_stringIcNS_11char_traitsIcEENS_9allocatorIcEEEEN6LLVMIR8FuncTypeENS_4hashIS6_EENS_8equal_toIS6_EENS4_INS_4pairIKS6_S8_EEEEED2B7v160006Ev, symObjAddr: 0xD5E4, symBinAddr: 0x10000FBDC, symSize: 0x2C }
  - { offsetInCU: 0x3BF8E, offset: 0x3BF8E, size: 0x8, addend: 0x0, symName: __ZNSt3__112__hash_tableINS_17__hash_value_typeINS_12basic_stringIcNS_11char_traitsIcEENS_9allocatorIcEEEEN6LLVMIR8FuncTypeEEENS_22__unordered_map_hasherIS7_SA_NS_4hashIS7_EENS_8equal_toIS7_EELb1EEENS_21__unordered_map_equalIS7_SA_SF_SD_Lb1EEENS5_ISA_EEED1Ev, symObjAddr: 0xD610, symBinAddr: 0x10000FC08, symSize: 0x2C }
  - { offsetInCU: 0x3BFB9, offset: 0x3BFB9, size: 0x8, addend: 0x0, symName: __ZNSt3__112__hash_tableINS_17__hash_value_typeINS_12basic_stringIcNS_11char_traitsIcEENS_9allocatorIcEEEEN6LLVMIR8FuncTypeEEENS_22__unordered_map_hasherIS7_SA_NS_4hashIS7_EENS_8equal_toIS7_EELb1EEENS_21__unordered_map_equalIS7_SA_SF_SD_Lb1EEENS5_ISA_EEED2Ev, symObjAddr: 0xD63C, symBinAddr: 0x10000FC34, symSize: 0x58 }
  - { offsetInCU: 0x3BFE3, offset: 0x3BFE3, size: 0x8, addend: 0x0, symName: __ZNSt3__112__hash_tableINS_17__hash_value_typeINS_12basic_stringIcNS_11char_traitsIcEENS_9allocatorIcEEEEN6LLVMIR8FuncTypeEEENS_22__unordered_map_hasherIS7_SA_NS_4hashIS7_EENS_8equal_toIS7_EELb1EEENS_21__unordered_map_equalIS7_SA_SF_SD_Lb1EEENS5_ISA_EEE17__deallocate_nodeEPNS_16__hash_node_baseIPNS_11__hash_nodeISA_PvEEEE, symObjAddr: 0xD694, symBinAddr: 0x10000FC8C, symSize: 0xA8 }
  - { offsetInCU: 0x3C04D, offset: 0x3C04D, size: 0x8, addend: 0x0, symName: __ZNSt3__117__compressed_pairINS_16__hash_node_baseIPNS_11__hash_nodeINS_17__hash_value_typeINS_12basic_stringIcNS_11char_traitsIcEENS_9allocatorIcEEEEN6LLVMIR8FuncTypeEEEPvEEEENS7_ISE_EEE5firstB7v160006Ev, symObjAddr: 0xD73C, symBinAddr: 0x10000FD34, symSize: 0x24 }
  - { offsetInCU: 0x3C072, offset: 0x3C072, size: 0x8, addend: 0x0, symName: __ZNSt3__110unique_ptrIA_PNS_16__hash_node_baseIPNS_11__hash_nodeINS_17__hash_value_typeINS_12basic_stringIcNS_11char_traitsIcEENS_9allocatorIcEEEEN6LLVMIR8FuncTypeEEEPvEEEENS_25__bucket_list_deallocatorINS7_ISH_EEEEED1B7v160006Ev, symObjAddr: 0xD770, symBinAddr: 0x10000FD68, symSize: 0x2C }
  - { offsetInCU: 0x3C09B, offset: 0x3C09B, size: 0x8, addend: 0x0, symName: __ZNSt3__112__hash_tableINS_17__hash_value_typeINS_12basic_stringIcNS_11char_traitsIcEENS_9allocatorIcEEEEN6LLVMIR8FuncTypeEEENS_22__unordered_map_hasherIS7_SA_NS_4hashIS7_EENS_8equal_toIS7_EELb1EEENS_21__unordered_map_equalIS7_SA_SF_SD_Lb1EEENS5_ISA_EEE12__node_allocB7v160006Ev, symObjAddr: 0xD79C, symBinAddr: 0x10000FD94, symSize: 0x28 }
  - { offsetInCU: 0x3C0C0, offset: 0x3C0C0, size: 0x8, addend: 0x0, symName: __ZNSt3__116__hash_node_baseIPNS_11__hash_nodeINS_17__hash_value_typeINS_12basic_stringIcNS_11char_traitsIcEENS_9allocatorIcEEEEN6LLVMIR8FuncTypeEEEPvEEE8__upcastB7v160006Ev, symObjAddr: 0xD7C4, symBinAddr: 0x10000FDBC, symSize: 0x24 }
  - { offsetInCU: 0x3C0E5, offset: 0x3C0E5, size: 0x8, addend: 0x0, symName: __ZNSt3__116allocator_traitsINS_9allocatorINS_11__hash_nodeINS_17__hash_value_typeINS_12basic_stringIcNS_11char_traitsIcEENS1_IcEEEEN6LLVMIR8FuncTypeEEEPvEEEEE7destroyB7v160006INS_4pairIKS8_SA_EEvvEEvRSE_PT_, symObjAddr: 0xD7E8, symBinAddr: 0x10000FDE0, symSize: 0x28 }
  - { offsetInCU: 0x3C11F, offset: 0x3C11F, size: 0x8, addend: 0x0, symName: __ZNSt3__122__hash_key_value_typesINS_17__hash_value_typeINS_12basic_stringIcNS_11char_traitsIcEENS_9allocatorIcEEEEN6LLVMIR8FuncTypeEEEE9__get_ptrB7v160006ERSA_, symObjAddr: 0xD810, symBinAddr: 0x10000FE08, symSize: 0x24 }
  - { offsetInCU: 0x3C142, offset: 0x3C142, size: 0x8, addend: 0x0, symName: __ZNSt3__116allocator_traitsINS_9allocatorINS_11__hash_nodeINS_17__hash_value_typeINS_12basic_stringIcNS_11char_traitsIcEENS1_IcEEEEN6LLVMIR8FuncTypeEEEPvEEEEE10deallocateB7v160006ERSE_PSD_m, symObjAddr: 0xD834, symBinAddr: 0x10000FE2C, symSize: 0x34 }
  - { offsetInCU: 0x3C184, offset: 0x3C184, size: 0x8, addend: 0x0, symName: __ZNSt3__117__compressed_pairINS_16__hash_node_baseIPNS_11__hash_nodeINS_17__hash_value_typeINS_12basic_stringIcNS_11char_traitsIcEENS_9allocatorIcEEEEN6LLVMIR8FuncTypeEEEPvEEEENS7_ISE_EEE6secondB7v160006Ev, symObjAddr: 0xD868, symBinAddr: 0x10000FE60, symSize: 0x24 }
  - { offsetInCU: 0x3C1A9, offset: 0x3C1A9, size: 0x8, addend: 0x0, symName: __ZNSt3__122__compressed_pair_elemINS_9allocatorINS_11__hash_nodeINS_17__hash_value_typeINS_12basic_stringIcNS_11char_traitsIcEENS1_IcEEEEN6LLVMIR8FuncTypeEEEPvEEEELi1ELb1EE5__getB7v160006Ev, symObjAddr: 0xD88C, symBinAddr: 0x10000FE84, symSize: 0x14 }
  - { offsetInCU: 0x3C1CE, offset: 0x3C1CE, size: 0x8, addend: 0x0, symName: __ZNSt3__114pointer_traitsIPNS_16__hash_node_baseIPNS_11__hash_nodeINS_17__hash_value_typeINS_12basic_stringIcNS_11char_traitsIcEENS_9allocatorIcEEEEN6LLVMIR8FuncTypeEEEPvEEEEE10pointer_toB7v160006ERSG_, symObjAddr: 0xD8A0, symBinAddr: 0x10000FE98, symSize: 0x14 }
  - { offsetInCU: 0x3C1F1, offset: 0x3C1F1, size: 0x8, addend: 0x0, symName: __ZNSt3__14pairIKNS_12basic_stringIcNS_11char_traitsIcEENS_9allocatorIcEEEEN6LLVMIR8FuncTypeEED1Ev, symObjAddr: 0xD8B4, symBinAddr: 0x10000FEAC, symSize: 0x2C }
  - { offsetInCU: 0x3C21C, offset: 0x3C21C, size: 0x8, addend: 0x0, symName: __ZNSt3__14pairIKNS_12basic_stringIcNS_11char_traitsIcEENS_9allocatorIcEEEEN6LLVMIR8FuncTypeEED2Ev, symObjAddr: 0xD8E0, symBinAddr: 0x10000FED8, symSize: 0x38 }
  - { offsetInCU: 0x3C247, offset: 0x3C247, size: 0x8, addend: 0x0, symName: __ZNSt3__117__hash_value_typeINS_12basic_stringIcNS_11char_traitsIcEENS_9allocatorIcEEEEN6LLVMIR8FuncTypeEE11__get_valueB7v160006Ev, symObjAddr: 0xD918, symBinAddr: 0x10000FF10, symSize: 0x24 }
  - { offsetInCU: 0x3C26C, offset: 0x3C26C, size: 0x8, addend: 0x0, symName: __ZNSt3__19allocatorINS_11__hash_nodeINS_17__hash_value_typeINS_12basic_stringIcNS_11char_traitsIcEENS0_IcEEEEN6LLVMIR8FuncTypeEEEPvEEE10deallocateB7v160006EPSC_m, symObjAddr: 0xD974, symBinAddr: 0x10000FF6C, symSize: 0x44 }
  - { offsetInCU: 0x3C2AD, offset: 0x3C2AD, size: 0x8, addend: 0x0, symName: __ZNSt3__122__compressed_pair_elemINS_16__hash_node_baseIPNS_11__hash_nodeINS_17__hash_value_typeINS_12basic_stringIcNS_11char_traitsIcEENS_9allocatorIcEEEEN6LLVMIR8FuncTypeEEEPvEEEELi0ELb0EE5__getB7v160006Ev, symObjAddr: 0xD9B8, symBinAddr: 0x10000FFB0, symSize: 0x14 }
  - { offsetInCU: 0x3C2D2, offset: 0x3C2D2, size: 0x8, addend: 0x0, symName: __ZNSt3__110unique_ptrIA_PNS_16__hash_node_baseIPNS_11__hash_nodeINS_17__hash_value_typeINS_12basic_stringIcNS_11char_traitsIcEENS_9allocatorIcEEEEN6LLVMIR8FuncTypeEEEPvEEEENS_25__bucket_list_deallocatorINS7_ISH_EEEEED2B7v160006Ev, symObjAddr: 0xD9CC, symBinAddr: 0x10000FFC4, symSize: 0x30 }
  - { offsetInCU: 0x3C2FB, offset: 0x3C2FB, size: 0x8, addend: 0x0, symName: __ZNSt3__110unique_ptrIA_PNS_16__hash_node_baseIPNS_11__hash_nodeINS_17__hash_value_typeINS_12basic_stringIcNS_11char_traitsIcEENS_9allocatorIcEEEEN6LLVMIR8FuncTypeEEEPvEEEENS_25__bucket_list_deallocatorINS7_ISH_EEEEE5resetB7v160006EDn, symObjAddr: 0xD9FC, symBinAddr: 0x10000FFF4, symSize: 0x6C }
  - { offsetInCU: 0x3C33A, offset: 0x3C33A, size: 0x8, addend: 0x0, symName: __ZNSt3__117__compressed_pairIPPNS_16__hash_node_baseIPNS_11__hash_nodeINS_17__hash_value_typeINS_12basic_stringIcNS_11char_traitsIcEENS_9allocatorIcEEEEN6LLVMIR8FuncTypeEEEPvEEEENS_25__bucket_list_deallocatorINS7_ISH_EEEEE5firstB7v160006Ev, symObjAddr: 0xDA68, symBinAddr: 0x100010060, symSize: 0x24 }
  - { offsetInCU: 0x3C35F, offset: 0x3C35F, size: 0x8, addend: 0x0, symName: __ZNSt3__117__compressed_pairIPPNS_16__hash_node_baseIPNS_11__hash_nodeINS_17__hash_value_typeINS_12basic_stringIcNS_11char_traitsIcEENS_9allocatorIcEEEEN6LLVMIR8FuncTypeEEEPvEEEENS_25__bucket_list_deallocatorINS7_ISH_EEEEE6secondB7v160006Ev, symObjAddr: 0xDA8C, symBinAddr: 0x100010084, symSize: 0x28 }
  - { offsetInCU: 0x3C384, offset: 0x3C384, size: 0x8, addend: 0x0, symName: __ZNSt3__125__bucket_list_deallocatorINS_9allocatorIPNS_16__hash_node_baseIPNS_11__hash_nodeINS_17__hash_value_typeINS_12basic_stringIcNS_11char_traitsIcEENS1_IcEEEEN6LLVMIR8FuncTypeEEEPvEEEEEEEclB7v160006EPSH_, symObjAddr: 0xDAB4, symBinAddr: 0x1000100AC, symSize: 0x58 }
  - { offsetInCU: 0x3C3B8, offset: 0x3C3B8, size: 0x8, addend: 0x0, symName: __ZNSt3__122__compressed_pair_elemIPPNS_16__hash_node_baseIPNS_11__hash_nodeINS_17__hash_value_typeINS_12basic_stringIcNS_11char_traitsIcEENS_9allocatorIcEEEEN6LLVMIR8FuncTypeEEEPvEEEELi0ELb0EE5__getB7v160006Ev, symObjAddr: 0xDB0C, symBinAddr: 0x100010104, symSize: 0x14 }
  - { offsetInCU: 0x3C3DD, offset: 0x3C3DD, size: 0x8, addend: 0x0, symName: __ZNSt3__122__compressed_pair_elemINS_25__bucket_list_deallocatorINS_9allocatorIPNS_16__hash_node_baseIPNS_11__hash_nodeINS_17__hash_value_typeINS_12basic_stringIcNS_11char_traitsIcEENS2_IcEEEEN6LLVMIR8FuncTypeEEEPvEEEEEEEELi1ELb0EE5__getB7v160006Ev, symObjAddr: 0xDB20, symBinAddr: 0x100010118, symSize: 0x14 }
  - { offsetInCU: 0x3C402, offset: 0x3C402, size: 0x8, addend: 0x0, symName: __ZNSt3__116allocator_traitsINS_9allocatorIPNS_16__hash_node_baseIPNS_11__hash_nodeINS_17__hash_value_typeINS_12basic_stringIcNS_11char_traitsIcEENS1_IcEEEEN6LLVMIR8FuncTypeEEEPvEEEEEEE10deallocateB7v160006ERSI_PSH_m, symObjAddr: 0xDB34, symBinAddr: 0x10001012C, symSize: 0x34 }
  - { offsetInCU: 0x3C444, offset: 0x3C444, size: 0x8, addend: 0x0, symName: __ZNSt3__125__bucket_list_deallocatorINS_9allocatorIPNS_16__hash_node_baseIPNS_11__hash_nodeINS_17__hash_value_typeINS_12basic_stringIcNS_11char_traitsIcEENS1_IcEEEEN6LLVMIR8FuncTypeEEEPvEEEEEEE7__allocB7v160006Ev, symObjAddr: 0xDB68, symBinAddr: 0x100010160, symSize: 0x24 }
  - { offsetInCU: 0x3C469, offset: 0x3C469, size: 0x8, addend: 0x0, symName: __ZNSt3__125__bucket_list_deallocatorINS_9allocatorIPNS_16__hash_node_baseIPNS_11__hash_nodeINS_17__hash_value_typeINS_12basic_stringIcNS_11char_traitsIcEENS1_IcEEEEN6LLVMIR8FuncTypeEEEPvEEEEEEE4sizeB7v160006Ev, symObjAddr: 0xDB8C, symBinAddr: 0x100010184, symSize: 0x24 }
  - { offsetInCU: 0x3C48E, offset: 0x3C48E, size: 0x8, addend: 0x0, symName: __ZNSt3__19allocatorIPNS_16__hash_node_baseIPNS_11__hash_nodeINS_17__hash_value_typeINS_12basic_stringIcNS_11char_traitsIcEENS0_IcEEEEN6LLVMIR8FuncTypeEEEPvEEEEE10deallocateB7v160006EPSG_m, symObjAddr: 0xDBB0, symBinAddr: 0x1000101A8, symSize: 0x40 }
  - { offsetInCU: 0x3C4CF, offset: 0x3C4CF, size: 0x8, addend: 0x0, symName: __ZNSt3__117__compressed_pairImNS_9allocatorIPNS_16__hash_node_baseIPNS_11__hash_nodeINS_17__hash_value_typeINS_12basic_stringIcNS_11char_traitsIcEENS1_IcEEEEN6LLVMIR8FuncTypeEEEPvEEEEEEE6secondB7v160006Ev, symObjAddr: 0xDBF0, symBinAddr: 0x1000101E8, symSize: 0x24 }
  - { offsetInCU: 0x3C4F4, offset: 0x3C4F4, size: 0x8, addend: 0x0, symName: __ZNSt3__122__compressed_pair_elemINS_9allocatorIPNS_16__hash_node_baseIPNS_11__hash_nodeINS_17__hash_value_typeINS_12basic_stringIcNS_11char_traitsIcEENS1_IcEEEEN6LLVMIR8FuncTypeEEEPvEEEEEELi1ELb1EE5__getB7v160006Ev, symObjAddr: 0xDC14, symBinAddr: 0x10001020C, symSize: 0x14 }
  - { offsetInCU: 0x3C519, offset: 0x3C519, size: 0x8, addend: 0x0, symName: __ZNSt3__117__compressed_pairImNS_9allocatorIPNS_16__hash_node_baseIPNS_11__hash_nodeINS_17__hash_value_typeINS_12basic_stringIcNS_11char_traitsIcEENS1_IcEEEEN6LLVMIR8FuncTypeEEEPvEEEEEEE5firstB7v160006Ev, symObjAddr: 0xDC28, symBinAddr: 0x100010220, symSize: 0x24 }
  - { offsetInCU: 0x3C53E, offset: 0x3C53E, size: 0x8, addend: 0x0, symName: __ZNSt3__113unordered_mapINS_12basic_stringIcNS_11char_traitsIcEENS_9allocatorIcEEEE10StructInfoNS_4hashIS6_EENS_8equal_toIS6_EENS4_INS_4pairIKS6_S7_EEEEEC2B7v160006Ev, symObjAddr: 0xDC4C, symBinAddr: 0x100010244, symSize: 0x3C }
  - { offsetInCU: 0x3C567, offset: 0x3C567, size: 0x8, addend: 0x0, symName: __ZNSt3__112__hash_tableINS_17__hash_value_typeINS_12basic_stringIcNS_11char_traitsIcEENS_9allocatorIcEEEE10StructInfoEENS_22__unordered_map_hasherIS7_S9_NS_4hashIS7_EENS_8equal_toIS7_EELb1EEENS_21__unordered_map_equalIS7_S9_SE_SC_Lb1EEENS5_IS9_EEEC1Ev, symObjAddr: 0xDC88, symBinAddr: 0x100010280, symSize: 0x2C }
  - { offsetInCU: 0x3C592, offset: 0x3C592, size: 0x8, addend: 0x0, symName: __ZNSt3__112__hash_tableINS_17__hash_value_typeINS_12basic_stringIcNS_11char_traitsIcEENS_9allocatorIcEEEE10StructInfoEENS_22__unordered_map_hasherIS7_S9_NS_4hashIS7_EENS_8equal_toIS7_EELb1EEENS_21__unordered_map_equalIS7_S9_SE_SC_Lb1EEENS5_IS9_EEEC2Ev, symObjAddr: 0xDCC4, symBinAddr: 0x1000102BC, symSize: 0x7C }
  - { offsetInCU: 0x3C5BD, offset: 0x3C5BD, size: 0x8, addend: 0x0, symName: __ZNSt3__110unique_ptrIA_PNS_16__hash_node_baseIPNS_11__hash_nodeINS_17__hash_value_typeINS_12basic_stringIcNS_11char_traitsIcEENS_9allocatorIcEEEE10StructInfoEEPvEEEENS_25__bucket_list_deallocatorINS7_ISG_EEEEEC1B7v160006ILb1EvEEv, symObjAddr: 0xDD40, symBinAddr: 0x100010338, symSize: 0x2C }
  - { offsetInCU: 0x3C5F1, offset: 0x3C5F1, size: 0x8, addend: 0x0, symName: __ZNSt3__117__compressed_pairINS_16__hash_node_baseIPNS_11__hash_nodeINS_17__hash_value_typeINS_12basic_stringIcNS_11char_traitsIcEENS_9allocatorIcEEEE10StructInfoEEPvEEEENS7_ISD_EEEC1B7v160006ILb1EvEEv, symObjAddr: 0xDD6C, symBinAddr: 0x100010364, symSize: 0x2C }
  - { offsetInCU: 0x3C625, offset: 0x3C625, size: 0x8, addend: 0x0, symName: __ZNSt3__117__compressed_pairImNS_22__unordered_map_hasherINS_12basic_stringIcNS_11char_traitsIcEENS_9allocatorIcEEEENS_17__hash_value_typeIS7_10StructInfoEENS_4hashIS7_EENS_8equal_toIS7_EELb1EEEEC1B7v160006IiNS_18__default_init_tagEEEOT_OT0_, symObjAddr: 0xDD98, symBinAddr: 0x100010390, symSize: 0x3C }
  - { offsetInCU: 0x3C67C, offset: 0x3C67C, size: 0x8, addend: 0x0, symName: __ZNSt3__117__compressed_pairIfNS_21__unordered_map_equalINS_12basic_stringIcNS_11char_traitsIcEENS_9allocatorIcEEEENS_17__hash_value_typeIS7_10StructInfoEENS_8equal_toIS7_EENS_4hashIS7_EELb1EEEEC1B7v160006IfNS_18__default_init_tagEEEOT_OT0_, symObjAddr: 0xDDD4, symBinAddr: 0x1000103CC, symSize: 0x3C }
  - { offsetInCU: 0x3C6D3, offset: 0x3C6D3, size: 0x8, addend: 0x0, symName: __ZNSt3__110unique_ptrIA_PNS_16__hash_node_baseIPNS_11__hash_nodeINS_17__hash_value_typeINS_12basic_stringIcNS_11char_traitsIcEENS_9allocatorIcEEEE10StructInfoEEPvEEEENS_25__bucket_list_deallocatorINS7_ISG_EEEEEC2B7v160006ILb1EvEEv, symObjAddr: 0xDE10, symBinAddr: 0x100010408, symSize: 0x3C }
  - { offsetInCU: 0x3C707, offset: 0x3C707, size: 0x8, addend: 0x0, symName: __ZNSt3__117__compressed_pairIPPNS_16__hash_node_baseIPNS_11__hash_nodeINS_17__hash_value_typeINS_12basic_stringIcNS_11char_traitsIcEENS_9allocatorIcEEEE10StructInfoEEPvEEEENS_25__bucket_list_deallocatorINS7_ISG_EEEEEC1B7v160006INS_16__value_init_tagESN_EEOT_OT0_, symObjAddr: 0xDE4C, symBinAddr: 0x100010444, symSize: 0x3C }
  - { offsetInCU: 0x3C75E, offset: 0x3C75E, size: 0x8, addend: 0x0, symName: __ZNSt3__117__compressed_pairIPPNS_16__hash_node_baseIPNS_11__hash_nodeINS_17__hash_value_typeINS_12basic_stringIcNS_11char_traitsIcEENS_9allocatorIcEEEE10StructInfoEEPvEEEENS_25__bucket_list_deallocatorINS7_ISG_EEEEEC2B7v160006INS_16__value_init_tagESN_EEOT_OT0_, symObjAddr: 0xDE88, symBinAddr: 0x100010480, symSize: 0x40 }
  - { offsetInCU: 0x3C7B5, offset: 0x3C7B5, size: 0x8, addend: 0x0, symName: __ZNSt3__122__compressed_pair_elemIPPNS_16__hash_node_baseIPNS_11__hash_nodeINS_17__hash_value_typeINS_12basic_stringIcNS_11char_traitsIcEENS_9allocatorIcEEEE10StructInfoEEPvEEEELi0ELb0EEC2B7v160006ENS_16__value_init_tagE, symObjAddr: 0xDEC8, symBinAddr: 0x1000104C0, symSize: 0x18 }
  - { offsetInCU: 0x3C7E8, offset: 0x3C7E8, size: 0x8, addend: 0x0, symName: __ZNSt3__122__compressed_pair_elemINS_25__bucket_list_deallocatorINS_9allocatorIPNS_16__hash_node_baseIPNS_11__hash_nodeINS_17__hash_value_typeINS_12basic_stringIcNS_11char_traitsIcEENS2_IcEEEE10StructInfoEEPvEEEEEEEELi1ELb0EEC2B7v160006ENS_16__value_init_tagE, symObjAddr: 0xDEE0, symBinAddr: 0x1000104D8, symSize: 0x2C }
  - { offsetInCU: 0x3C81B, offset: 0x3C81B, size: 0x8, addend: 0x0, symName: __ZNSt3__125__bucket_list_deallocatorINS_9allocatorIPNS_16__hash_node_baseIPNS_11__hash_nodeINS_17__hash_value_typeINS_12basic_stringIcNS_11char_traitsIcEENS1_IcEEEE10StructInfoEEPvEEEEEEEC1B7v160006Ev, symObjAddr: 0xDF0C, symBinAddr: 0x100010504, symSize: 0x2C }
  - { offsetInCU: 0x3C844, offset: 0x3C844, size: 0x8, addend: 0x0, symName: __ZNSt3__125__bucket_list_deallocatorINS_9allocatorIPNS_16__hash_node_baseIPNS_11__hash_nodeINS_17__hash_value_typeINS_12basic_stringIcNS_11char_traitsIcEENS1_IcEEEE10StructInfoEEPvEEEEEEEC2B7v160006Ev, symObjAddr: 0xDF38, symBinAddr: 0x100010530, symSize: 0x40 }
  - { offsetInCU: 0x3C86D, offset: 0x3C86D, size: 0x8, addend: 0x0, symName: __ZNSt3__117__compressed_pairImNS_9allocatorIPNS_16__hash_node_baseIPNS_11__hash_nodeINS_17__hash_value_typeINS_12basic_stringIcNS_11char_traitsIcEENS1_IcEEEE10StructInfoEEPvEEEEEEEC1B7v160006IiNS_18__default_init_tagEEEOT_OT0_, symObjAddr: 0xDF78, symBinAddr: 0x100010570, symSize: 0x3C }
  - { offsetInCU: 0x3C8C4, offset: 0x3C8C4, size: 0x8, addend: 0x0, symName: __ZNSt3__117__compressed_pairImNS_9allocatorIPNS_16__hash_node_baseIPNS_11__hash_nodeINS_17__hash_value_typeINS_12basic_stringIcNS_11char_traitsIcEENS1_IcEEEE10StructInfoEEPvEEEEEEEC2B7v160006IiNS_18__default_init_tagEEEOT_OT0_, symObjAddr: 0xDFB4, symBinAddr: 0x1000105AC, symSize: 0x40 }
  - { offsetInCU: 0x3C91B, offset: 0x3C91B, size: 0x8, addend: 0x0, symName: __ZNSt3__122__compressed_pair_elemINS_9allocatorIPNS_16__hash_node_baseIPNS_11__hash_nodeINS_17__hash_value_typeINS_12basic_stringIcNS_11char_traitsIcEENS1_IcEEEE10StructInfoEEPvEEEEEELi1ELb1EEC2B7v160006ENS_18__default_init_tagE, symObjAddr: 0xDFF4, symBinAddr: 0x1000105EC, symSize: 0x2C }
  - { offsetInCU: 0x3C94E, offset: 0x3C94E, size: 0x8, addend: 0x0, symName: __ZNSt3__19allocatorIPNS_16__hash_node_baseIPNS_11__hash_nodeINS_17__hash_value_typeINS_12basic_stringIcNS_11char_traitsIcEENS0_IcEEEE10StructInfoEEPvEEEEEC2B7v160006Ev, symObjAddr: 0xE020, symBinAddr: 0x100010618, symSize: 0x2C }
  - { offsetInCU: 0x3C977, offset: 0x3C977, size: 0x8, addend: 0x0, symName: __ZNSt3__116__non_trivial_ifILb1ENS_9allocatorIPNS_16__hash_node_baseIPNS_11__hash_nodeINS_17__hash_value_typeINS_12basic_stringIcNS_11char_traitsIcEENS1_IcEEEE10StructInfoEEPvEEEEEEEC2B7v160006Ev, symObjAddr: 0xE04C, symBinAddr: 0x100010644, symSize: 0x14 }
  - { offsetInCU: 0x3C9A0, offset: 0x3C9A0, size: 0x8, addend: 0x0, symName: __ZNSt3__117__compressed_pairINS_16__hash_node_baseIPNS_11__hash_nodeINS_17__hash_value_typeINS_12basic_stringIcNS_11char_traitsIcEENS_9allocatorIcEEEE10StructInfoEEPvEEEENS7_ISD_EEEC2B7v160006ILb1EvEEv, symObjAddr: 0xE060, symBinAddr: 0x100010658, symSize: 0x34 }
  - { offsetInCU: 0x3C9D4, offset: 0x3C9D4, size: 0x8, addend: 0x0, symName: __ZNSt3__122__compressed_pair_elemINS_16__hash_node_baseIPNS_11__hash_nodeINS_17__hash_value_typeINS_12basic_stringIcNS_11char_traitsIcEENS_9allocatorIcEEEE10StructInfoEEPvEEEELi0ELb0EEC2B7v160006ENS_16__value_init_tagE, symObjAddr: 0xE094, symBinAddr: 0x10001068C, symSize: 0x2C }
  - { offsetInCU: 0x3CA07, offset: 0x3CA07, size: 0x8, addend: 0x0, symName: __ZNSt3__122__compressed_pair_elemINS_9allocatorINS_11__hash_nodeINS_17__hash_value_typeINS_12basic_stringIcNS_11char_traitsIcEENS1_IcEEEE10StructInfoEEPvEEEELi1ELb1EEC2B7v160006ENS_16__value_init_tagE, symObjAddr: 0xE0C0, symBinAddr: 0x1000106B8, symSize: 0x2C }
  - { offsetInCU: 0x3CA3A, offset: 0x3CA3A, size: 0x8, addend: 0x0, symName: __ZNSt3__116__hash_node_baseIPNS_11__hash_nodeINS_17__hash_value_typeINS_12basic_stringIcNS_11char_traitsIcEENS_9allocatorIcEEEE10StructInfoEEPvEEEC1B7v160006Ev, symObjAddr: 0xE0EC, symBinAddr: 0x1000106E4, symSize: 0x2C }
  - { offsetInCU: 0x3CA63, offset: 0x3CA63, size: 0x8, addend: 0x0, symName: __ZNSt3__116__hash_node_baseIPNS_11__hash_nodeINS_17__hash_value_typeINS_12basic_stringIcNS_11char_traitsIcEENS_9allocatorIcEEEE10StructInfoEEPvEEEC2B7v160006Ev, symObjAddr: 0xE118, symBinAddr: 0x100010710, symSize: 0x18 }
  - { offsetInCU: 0x3CA8C, offset: 0x3CA8C, size: 0x8, addend: 0x0, symName: __ZNSt3__19allocatorINS_11__hash_nodeINS_17__hash_value_typeINS_12basic_stringIcNS_11char_traitsIcEENS0_IcEEEE10StructInfoEEPvEEEC2B7v160006Ev, symObjAddr: 0xE130, symBinAddr: 0x100010728, symSize: 0x2C }
  - { offsetInCU: 0x3CAB5, offset: 0x3CAB5, size: 0x8, addend: 0x0, symName: __ZNSt3__116__non_trivial_ifILb1ENS_9allocatorINS_11__hash_nodeINS_17__hash_value_typeINS_12basic_stringIcNS_11char_traitsIcEENS1_IcEEEE10StructInfoEEPvEEEEEC2B7v160006Ev, symObjAddr: 0xE15C, symBinAddr: 0x100010754, symSize: 0x14 }
  - { offsetInCU: 0x3CADE, offset: 0x3CADE, size: 0x8, addend: 0x0, symName: __ZNSt3__117__compressed_pairImNS_22__unordered_map_hasherINS_12basic_stringIcNS_11char_traitsIcEENS_9allocatorIcEEEENS_17__hash_value_typeIS7_10StructInfoEENS_4hashIS7_EENS_8equal_toIS7_EELb1EEEEC2B7v160006IiNS_18__default_init_tagEEEOT_OT0_, symObjAddr: 0xE170, symBinAddr: 0x100010768, symSize: 0x40 }
  - { offsetInCU: 0x3CB35, offset: 0x3CB35, size: 0x8, addend: 0x0, symName: __ZNSt3__122__compressed_pair_elemINS_22__unordered_map_hasherINS_12basic_stringIcNS_11char_traitsIcEENS_9allocatorIcEEEENS_17__hash_value_typeIS7_10StructInfoEENS_4hashIS7_EENS_8equal_toIS7_EELb1EEELi1ELb1EEC2B7v160006ENS_18__default_init_tagE, symObjAddr: 0xE1B0, symBinAddr: 0x1000107A8, symSize: 0x2C }
  - { offsetInCU: 0x3CB68, offset: 0x3CB68, size: 0x8, addend: 0x0, symName: __ZNSt3__122__unordered_map_hasherINS_12basic_stringIcNS_11char_traitsIcEENS_9allocatorIcEEEENS_17__hash_value_typeIS6_10StructInfoEENS_4hashIS6_EENS_8equal_toIS6_EELb1EEC2B7v160006Ev, symObjAddr: 0xE1DC, symBinAddr: 0x1000107D4, symSize: 0x14 }
  - { offsetInCU: 0x3CB91, offset: 0x3CB91, size: 0x8, addend: 0x0, symName: __ZNSt3__117__compressed_pairIfNS_21__unordered_map_equalINS_12basic_stringIcNS_11char_traitsIcEENS_9allocatorIcEEEENS_17__hash_value_typeIS7_10StructInfoEENS_8equal_toIS7_EENS_4hashIS7_EELb1EEEEC2B7v160006IfNS_18__default_init_tagEEEOT_OT0_, symObjAddr: 0xE1F0, symBinAddr: 0x1000107E8, symSize: 0x40 }
  - { offsetInCU: 0x3CBE8, offset: 0x3CBE8, size: 0x8, addend: 0x0, symName: __ZNSt3__122__compressed_pair_elemINS_21__unordered_map_equalINS_12basic_stringIcNS_11char_traitsIcEENS_9allocatorIcEEEENS_17__hash_value_typeIS7_10StructInfoEENS_8equal_toIS7_EENS_4hashIS7_EELb1EEELi1ELb1EEC2B7v160006ENS_18__default_init_tagE, symObjAddr: 0xE230, symBinAddr: 0x100010828, symSize: 0x2C }
  - { offsetInCU: 0x3CC1B, offset: 0x3CC1B, size: 0x8, addend: 0x0, symName: __ZNSt3__121__unordered_map_equalINS_12basic_stringIcNS_11char_traitsIcEENS_9allocatorIcEEEENS_17__hash_value_typeIS6_10StructInfoEENS_8equal_toIS6_EENS_4hashIS6_EELb1EEC2B7v160006Ev, symObjAddr: 0xE25C, symBinAddr: 0x100010854, symSize: 0x14 }
  - { offsetInCU: 0x3CC44, offset: 0x3CC44, size: 0x8, addend: 0x0, symName: __ZNSt3__113unordered_mapINS_12basic_stringIcNS_11char_traitsIcEENS_9allocatorIcEEEE10StructInfoNS_4hashIS6_EENS_8equal_toIS6_EENS4_INS_4pairIKS6_S7_EEEEED2B7v160006Ev, symObjAddr: 0xE270, symBinAddr: 0x100010868, symSize: 0x2C }
  - { offsetInCU: 0x3CC6D, offset: 0x3CC6D, size: 0x8, addend: 0x0, symName: __ZNSt3__112__hash_tableINS_17__hash_value_typeINS_12basic_stringIcNS_11char_traitsIcEENS_9allocatorIcEEEE10StructInfoEENS_22__unordered_map_hasherIS7_S9_NS_4hashIS7_EENS_8equal_toIS7_EELb1EEENS_21__unordered_map_equalIS7_S9_SE_SC_Lb1EEENS5_IS9_EEED1Ev, symObjAddr: 0xE29C, symBinAddr: 0x100010894, symSize: 0x2C }
  - { offsetInCU: 0x3CC98, offset: 0x3CC98, size: 0x8, addend: 0x0, symName: __ZNSt3__112__hash_tableINS_17__hash_value_typeINS_12basic_stringIcNS_11char_traitsIcEENS_9allocatorIcEEEE10StructInfoEENS_22__unordered_map_hasherIS7_S9_NS_4hashIS7_EENS_8equal_toIS7_EELb1EEENS_21__unordered_map_equalIS7_S9_SE_SC_Lb1EEENS5_IS9_EEED2Ev, symObjAddr: 0xE2C8, symBinAddr: 0x1000108C0, symSize: 0x58 }
  - { offsetInCU: 0x3CCC2, offset: 0x3CCC2, size: 0x8, addend: 0x0, symName: __ZNSt3__112__hash_tableINS_17__hash_value_typeINS_12basic_stringIcNS_11char_traitsIcEENS_9allocatorIcEEEE10StructInfoEENS_22__unordered_map_hasherIS7_S9_NS_4hashIS7_EENS_8equal_toIS7_EELb1EEENS_21__unordered_map_equalIS7_S9_SE_SC_Lb1EEENS5_IS9_EEE17__deallocate_nodeEPNS_16__hash_node_baseIPNS_11__hash_nodeIS9_PvEEEE, symObjAddr: 0xE320, symBinAddr: 0x100010918, symSize: 0xA8 }
  - { offsetInCU: 0x3CD2C, offset: 0x3CD2C, size: 0x8, addend: 0x0, symName: __ZNSt3__117__compressed_pairINS_16__hash_node_baseIPNS_11__hash_nodeINS_17__hash_value_typeINS_12basic_stringIcNS_11char_traitsIcEENS_9allocatorIcEEEE10StructInfoEEPvEEEENS7_ISD_EEE5firstB7v160006Ev, symObjAddr: 0xE3C8, symBinAddr: 0x1000109C0, symSize: 0x24 }
  - { offsetInCU: 0x3CD51, offset: 0x3CD51, size: 0x8, addend: 0x0, symName: __ZNSt3__110unique_ptrIA_PNS_16__hash_node_baseIPNS_11__hash_nodeINS_17__hash_value_typeINS_12basic_stringIcNS_11char_traitsIcEENS_9allocatorIcEEEE10StructInfoEEPvEEEENS_25__bucket_list_deallocatorINS7_ISG_EEEEED1B7v160006Ev, symObjAddr: 0xE3FC, symBinAddr: 0x1000109F4, symSize: 0x2C }
  - { offsetInCU: 0x3CD7A, offset: 0x3CD7A, size: 0x8, addend: 0x0, symName: __ZNSt3__112__hash_tableINS_17__hash_value_typeINS_12basic_stringIcNS_11char_traitsIcEENS_9allocatorIcEEEE10StructInfoEENS_22__unordered_map_hasherIS7_S9_NS_4hashIS7_EENS_8equal_toIS7_EELb1EEENS_21__unordered_map_equalIS7_S9_SE_SC_Lb1EEENS5_IS9_EEE12__node_allocB7v160006Ev, symObjAddr: 0xE428, symBinAddr: 0x100010A20, symSize: 0x28 }
  - { offsetInCU: 0x3CD9F, offset: 0x3CD9F, size: 0x8, addend: 0x0, symName: __ZNSt3__116__hash_node_baseIPNS_11__hash_nodeINS_17__hash_value_typeINS_12basic_stringIcNS_11char_traitsIcEENS_9allocatorIcEEEE10StructInfoEEPvEEE8__upcastB7v160006Ev, symObjAddr: 0xE450, symBinAddr: 0x100010A48, symSize: 0x24 }
  - { offsetInCU: 0x3CDC4, offset: 0x3CDC4, size: 0x8, addend: 0x0, symName: __ZNSt3__116allocator_traitsINS_9allocatorINS_11__hash_nodeINS_17__hash_value_typeINS_12basic_stringIcNS_11char_traitsIcEENS1_IcEEEE10StructInfoEEPvEEEEE7destroyB7v160006INS_4pairIKS8_S9_EEvvEEvRSD_PT_, symObjAddr: 0xE474, symBinAddr: 0x100010A6C, symSize: 0x28 }
  - { offsetInCU: 0x3CDFE, offset: 0x3CDFE, size: 0x8, addend: 0x0, symName: __ZNSt3__122__hash_key_value_typesINS_17__hash_value_typeINS_12basic_stringIcNS_11char_traitsIcEENS_9allocatorIcEEEE10StructInfoEEE9__get_ptrB7v160006ERS9_, symObjAddr: 0xE49C, symBinAddr: 0x100010A94, symSize: 0x24 }
  - { offsetInCU: 0x3CE21, offset: 0x3CE21, size: 0x8, addend: 0x0, symName: __ZNSt3__116allocator_traitsINS_9allocatorINS_11__hash_nodeINS_17__hash_value_typeINS_12basic_stringIcNS_11char_traitsIcEENS1_IcEEEE10StructInfoEEPvEEEEE10deallocateB7v160006ERSD_PSC_m, symObjAddr: 0xE4C0, symBinAddr: 0x100010AB8, symSize: 0x34 }
  - { offsetInCU: 0x3CE63, offset: 0x3CE63, size: 0x8, addend: 0x0, symName: __ZNSt3__117__compressed_pairINS_16__hash_node_baseIPNS_11__hash_nodeINS_17__hash_value_typeINS_12basic_stringIcNS_11char_traitsIcEENS_9allocatorIcEEEE10StructInfoEEPvEEEENS7_ISD_EEE6secondB7v160006Ev, symObjAddr: 0xE4F4, symBinAddr: 0x100010AEC, symSize: 0x24 }
  - { offsetInCU: 0x3CE88, offset: 0x3CE88, size: 0x8, addend: 0x0, symName: __ZNSt3__122__compressed_pair_elemINS_9allocatorINS_11__hash_nodeINS_17__hash_value_typeINS_12basic_stringIcNS_11char_traitsIcEENS1_IcEEEE10StructInfoEEPvEEEELi1ELb1EE5__getB7v160006Ev, symObjAddr: 0xE518, symBinAddr: 0x100010B10, symSize: 0x14 }
  - { offsetInCU: 0x3CEAD, offset: 0x3CEAD, size: 0x8, addend: 0x0, symName: __ZNSt3__114pointer_traitsIPNS_16__hash_node_baseIPNS_11__hash_nodeINS_17__hash_value_typeINS_12basic_stringIcNS_11char_traitsIcEENS_9allocatorIcEEEE10StructInfoEEPvEEEEE10pointer_toB7v160006ERSF_, symObjAddr: 0xE52C, symBinAddr: 0x100010B24, symSize: 0x14 }
  - { offsetInCU: 0x3CED0, offset: 0x3CED0, size: 0x8, addend: 0x0, symName: __ZNSt3__14pairIKNS_12basic_stringIcNS_11char_traitsIcEENS_9allocatorIcEEEE10StructInfoED1Ev, symObjAddr: 0xE540, symBinAddr: 0x100010B38, symSize: 0x2C }
  - { offsetInCU: 0x3CEFB, offset: 0x3CEFB, size: 0x8, addend: 0x0, symName: __ZNSt3__14pairIKNS_12basic_stringIcNS_11char_traitsIcEENS_9allocatorIcEEEE10StructInfoED2Ev, symObjAddr: 0xE56C, symBinAddr: 0x100010B64, symSize: 0x38 }
  - { offsetInCU: 0x3CF26, offset: 0x3CF26, size: 0x8, addend: 0x0, symName: __ZNSt3__117__hash_value_typeINS_12basic_stringIcNS_11char_traitsIcEENS_9allocatorIcEEEE10StructInfoE11__get_valueB7v160006Ev, symObjAddr: 0xE5A4, symBinAddr: 0x100010B9C, symSize: 0x24 }
  - { offsetInCU: 0x3CF4B, offset: 0x3CF4B, size: 0x8, addend: 0x0, symName: __ZNSt3__19allocatorINS_11__hash_nodeINS_17__hash_value_typeINS_12basic_stringIcNS_11char_traitsIcEENS0_IcEEEE10StructInfoEEPvEEE10deallocateB7v160006EPSB_m, symObjAddr: 0xE600, symBinAddr: 0x100010BF8, symSize: 0x44 }
  - { offsetInCU: 0x3CF8C, offset: 0x3CF8C, size: 0x8, addend: 0x0, symName: __ZNSt3__122__compressed_pair_elemINS_16__hash_node_baseIPNS_11__hash_nodeINS_17__hash_value_typeINS_12basic_stringIcNS_11char_traitsIcEENS_9allocatorIcEEEE10StructInfoEEPvEEEELi0ELb0EE5__getB7v160006Ev, symObjAddr: 0xE644, symBinAddr: 0x100010C3C, symSize: 0x14 }
  - { offsetInCU: 0x3CFB1, offset: 0x3CFB1, size: 0x8, addend: 0x0, symName: __ZNSt3__110unique_ptrIA_PNS_16__hash_node_baseIPNS_11__hash_nodeINS_17__hash_value_typeINS_12basic_stringIcNS_11char_traitsIcEENS_9allocatorIcEEEE10StructInfoEEPvEEEENS_25__bucket_list_deallocatorINS7_ISG_EEEEED2B7v160006Ev, symObjAddr: 0xE658, symBinAddr: 0x100010C50, symSize: 0x30 }
  - { offsetInCU: 0x3CFDA, offset: 0x3CFDA, size: 0x8, addend: 0x0, symName: __ZNSt3__110unique_ptrIA_PNS_16__hash_node_baseIPNS_11__hash_nodeINS_17__hash_value_typeINS_12basic_stringIcNS_11char_traitsIcEENS_9allocatorIcEEEE10StructInfoEEPvEEEENS_25__bucket_list_deallocatorINS7_ISG_EEEEE5resetB7v160006EDn, symObjAddr: 0xE688, symBinAddr: 0x100010C80, symSize: 0x6C }
  - { offsetInCU: 0x3D019, offset: 0x3D019, size: 0x8, addend: 0x0, symName: __ZNSt3__117__compressed_pairIPPNS_16__hash_node_baseIPNS_11__hash_nodeINS_17__hash_value_typeINS_12basic_stringIcNS_11char_traitsIcEENS_9allocatorIcEEEE10StructInfoEEPvEEEENS_25__bucket_list_deallocatorINS7_ISG_EEEEE5firstB7v160006Ev, symObjAddr: 0xE6F4, symBinAddr: 0x100010CEC, symSize: 0x24 }
  - { offsetInCU: 0x3D03E, offset: 0x3D03E, size: 0x8, addend: 0x0, symName: __ZNSt3__117__compressed_pairIPPNS_16__hash_node_baseIPNS_11__hash_nodeINS_17__hash_value_typeINS_12basic_stringIcNS_11char_traitsIcEENS_9allocatorIcEEEE10StructInfoEEPvEEEENS_25__bucket_list_deallocatorINS7_ISG_EEEEE6secondB7v160006Ev, symObjAddr: 0xE718, symBinAddr: 0x100010D10, symSize: 0x28 }
  - { offsetInCU: 0x3D063, offset: 0x3D063, size: 0x8, addend: 0x0, symName: __ZNSt3__125__bucket_list_deallocatorINS_9allocatorIPNS_16__hash_node_baseIPNS_11__hash_nodeINS_17__hash_value_typeINS_12basic_stringIcNS_11char_traitsIcEENS1_IcEEEE10StructInfoEEPvEEEEEEEclB7v160006EPSG_, symObjAddr: 0xE740, symBinAddr: 0x100010D38, symSize: 0x58 }
  - { offsetInCU: 0x3D097, offset: 0x3D097, size: 0x8, addend: 0x0, symName: __ZNSt3__122__compressed_pair_elemIPPNS_16__hash_node_baseIPNS_11__hash_nodeINS_17__hash_value_typeINS_12basic_stringIcNS_11char_traitsIcEENS_9allocatorIcEEEE10StructInfoEEPvEEEELi0ELb0EE5__getB7v160006Ev, symObjAddr: 0xE798, symBinAddr: 0x100010D90, symSize: 0x14 }
  - { offsetInCU: 0x3D0BC, offset: 0x3D0BC, size: 0x8, addend: 0x0, symName: __ZNSt3__122__compressed_pair_elemINS_25__bucket_list_deallocatorINS_9allocatorIPNS_16__hash_node_baseIPNS_11__hash_nodeINS_17__hash_value_typeINS_12basic_stringIcNS_11char_traitsIcEENS2_IcEEEE10StructInfoEEPvEEEEEEEELi1ELb0EE5__getB7v160006Ev, symObjAddr: 0xE7AC, symBinAddr: 0x100010DA4, symSize: 0x14 }
  - { offsetInCU: 0x3D0E1, offset: 0x3D0E1, size: 0x8, addend: 0x0, symName: __ZNSt3__116allocator_traitsINS_9allocatorIPNS_16__hash_node_baseIPNS_11__hash_nodeINS_17__hash_value_typeINS_12basic_stringIcNS_11char_traitsIcEENS1_IcEEEE10StructInfoEEPvEEEEEEE10deallocateB7v160006ERSH_PSG_m, symObjAddr: 0xE7C0, symBinAddr: 0x100010DB8, symSize: 0x34 }
  - { offsetInCU: 0x3D123, offset: 0x3D123, size: 0x8, addend: 0x0, symName: __ZNSt3__125__bucket_list_deallocatorINS_9allocatorIPNS_16__hash_node_baseIPNS_11__hash_nodeINS_17__hash_value_typeINS_12basic_stringIcNS_11char_traitsIcEENS1_IcEEEE10StructInfoEEPvEEEEEEE7__allocB7v160006Ev, symObjAddr: 0xE7F4, symBinAddr: 0x100010DEC, symSize: 0x24 }
  - { offsetInCU: 0x3D148, offset: 0x3D148, size: 0x8, addend: 0x0, symName: __ZNSt3__125__bucket_list_deallocatorINS_9allocatorIPNS_16__hash_node_baseIPNS_11__hash_nodeINS_17__hash_value_typeINS_12basic_stringIcNS_11char_traitsIcEENS1_IcEEEE10StructInfoEEPvEEEEEEE4sizeB7v160006Ev, symObjAddr: 0xE818, symBinAddr: 0x100010E10, symSize: 0x24 }
  - { offsetInCU: 0x3D16D, offset: 0x3D16D, size: 0x8, addend: 0x0, symName: __ZNSt3__19allocatorIPNS_16__hash_node_baseIPNS_11__hash_nodeINS_17__hash_value_typeINS_12basic_stringIcNS_11char_traitsIcEENS0_IcEEEE10StructInfoEEPvEEEEE10deallocateB7v160006EPSF_m, symObjAddr: 0xE83C, symBinAddr: 0x100010E34, symSize: 0x40 }
  - { offsetInCU: 0x3D1AE, offset: 0x3D1AE, size: 0x8, addend: 0x0, symName: __ZNSt3__117__compressed_pairImNS_9allocatorIPNS_16__hash_node_baseIPNS_11__hash_nodeINS_17__hash_value_typeINS_12basic_stringIcNS_11char_traitsIcEENS1_IcEEEE10StructInfoEEPvEEEEEEE6secondB7v160006Ev, symObjAddr: 0xE87C, symBinAddr: 0x100010E74, symSize: 0x24 }
  - { offsetInCU: 0x3D1D3, offset: 0x3D1D3, size: 0x8, addend: 0x0, symName: __ZNSt3__122__compressed_pair_elemINS_9allocatorIPNS_16__hash_node_baseIPNS_11__hash_nodeINS_17__hash_value_typeINS_12basic_stringIcNS_11char_traitsIcEENS1_IcEEEE10StructInfoEEPvEEEEEELi1ELb1EE5__getB7v160006Ev, symObjAddr: 0xE8A0, symBinAddr: 0x100010E98, symSize: 0x14 }
  - { offsetInCU: 0x3D1F8, offset: 0x3D1F8, size: 0x8, addend: 0x0, symName: __ZNSt3__117__compressed_pairImNS_9allocatorIPNS_16__hash_node_baseIPNS_11__hash_nodeINS_17__hash_value_typeINS_12basic_stringIcNS_11char_traitsIcEENS1_IcEEEE10StructInfoEEPvEEEEEEE5firstB7v160006Ev, symObjAddr: 0xE8B4, symBinAddr: 0x100010EAC, symSize: 0x24 }
  - { offsetInCU: 0x3D21D, offset: 0x3D21D, size: 0x8, addend: 0x0, symName: __ZNSt3__113unordered_mapINS_12basic_stringIcNS_11char_traitsIcEENS_9allocatorIcEEEEP9Name_nameNS_4hashIS6_EENS_8equal_toIS6_EENS4_INS_4pairIKS6_S8_EEEEEC2B7v160006Ev, symObjAddr: 0xE8D8, symBinAddr: 0x100010ED0, symSize: 0x3C }
  - { offsetInCU: 0x3D246, offset: 0x3D246, size: 0x8, addend: 0x0, symName: __ZNSt3__112__hash_tableINS_17__hash_value_typeINS_12basic_stringIcNS_11char_traitsIcEENS_9allocatorIcEEEEP9Name_nameEENS_22__unordered_map_hasherIS7_SA_NS_4hashIS7_EENS_8equal_toIS7_EELb1EEENS_21__unordered_map_equalIS7_SA_SF_SD_Lb1EEENS5_ISA_EEEC1Ev, symObjAddr: 0xE914, symBinAddr: 0x100010F0C, symSize: 0x2C }
  - { offsetInCU: 0x3D271, offset: 0x3D271, size: 0x8, addend: 0x0, symName: __ZNSt3__112__hash_tableINS_17__hash_value_typeINS_12basic_stringIcNS_11char_traitsIcEENS_9allocatorIcEEEEP9Name_nameEENS_22__unordered_map_hasherIS7_SA_NS_4hashIS7_EENS_8equal_toIS7_EELb1EEENS_21__unordered_map_equalIS7_SA_SF_SD_Lb1EEENS5_ISA_EEEC2Ev, symObjAddr: 0xE950, symBinAddr: 0x100010F48, symSize: 0x7C }
  - { offsetInCU: 0x3D29C, offset: 0x3D29C, size: 0x8, addend: 0x0, symName: __ZNSt3__110unique_ptrIA_PNS_16__hash_node_baseIPNS_11__hash_nodeINS_17__hash_value_typeINS_12basic_stringIcNS_11char_traitsIcEENS_9allocatorIcEEEEP9Name_nameEEPvEEEENS_25__bucket_list_deallocatorINS7_ISH_EEEEEC1B7v160006ILb1EvEEv, symObjAddr: 0xE9CC, symBinAddr: 0x100010FC4, symSize: 0x2C }
  - { offsetInCU: 0x3D2D0, offset: 0x3D2D0, size: 0x8, addend: 0x0, symName: __ZNSt3__117__compressed_pairINS_16__hash_node_baseIPNS_11__hash_nodeINS_17__hash_value_typeINS_12basic_stringIcNS_11char_traitsIcEENS_9allocatorIcEEEEP9Name_nameEEPvEEEENS7_ISE_EEEC1B7v160006ILb1EvEEv, symObjAddr: 0xE9F8, symBinAddr: 0x100010FF0, symSize: 0x2C }
  - { offsetInCU: 0x3D304, offset: 0x3D304, size: 0x8, addend: 0x0, symName: __ZNSt3__117__compressed_pairImNS_22__unordered_map_hasherINS_12basic_stringIcNS_11char_traitsIcEENS_9allocatorIcEEEENS_17__hash_value_typeIS7_P9Name_nameEENS_4hashIS7_EENS_8equal_toIS7_EELb1EEEEC1B7v160006IiNS_18__default_init_tagEEEOT_OT0_, symObjAddr: 0xEA24, symBinAddr: 0x10001101C, symSize: 0x3C }
  - { offsetInCU: 0x3D35B, offset: 0x3D35B, size: 0x8, addend: 0x0, symName: __ZNSt3__117__compressed_pairIfNS_21__unordered_map_equalINS_12basic_stringIcNS_11char_traitsIcEENS_9allocatorIcEEEENS_17__hash_value_typeIS7_P9Name_nameEENS_8equal_toIS7_EENS_4hashIS7_EELb1EEEEC1B7v160006IfNS_18__default_init_tagEEEOT_OT0_, symObjAddr: 0xEA60, symBinAddr: 0x100011058, symSize: 0x3C }
  - { offsetInCU: 0x3D3B2, offset: 0x3D3B2, size: 0x8, addend: 0x0, symName: __ZNSt3__110unique_ptrIA_PNS_16__hash_node_baseIPNS_11__hash_nodeINS_17__hash_value_typeINS_12basic_stringIcNS_11char_traitsIcEENS_9allocatorIcEEEEP9Name_nameEEPvEEEENS_25__bucket_list_deallocatorINS7_ISH_EEEEEC2B7v160006ILb1EvEEv, symObjAddr: 0xEA9C, symBinAddr: 0x100011094, symSize: 0x3C }
  - { offsetInCU: 0x3D3E6, offset: 0x3D3E6, size: 0x8, addend: 0x0, symName: __ZNSt3__117__compressed_pairIPPNS_16__hash_node_baseIPNS_11__hash_nodeINS_17__hash_value_typeINS_12basic_stringIcNS_11char_traitsIcEENS_9allocatorIcEEEEP9Name_nameEEPvEEEENS_25__bucket_list_deallocatorINS7_ISH_EEEEEC1B7v160006INS_16__value_init_tagESO_EEOT_OT0_, symObjAddr: 0xEAD8, symBinAddr: 0x1000110D0, symSize: 0x3C }
  - { offsetInCU: 0x3D43D, offset: 0x3D43D, size: 0x8, addend: 0x0, symName: __ZNSt3__117__compressed_pairIPPNS_16__hash_node_baseIPNS_11__hash_nodeINS_17__hash_value_typeINS_12basic_stringIcNS_11char_traitsIcEENS_9allocatorIcEEEEP9Name_nameEEPvEEEENS_25__bucket_list_deallocatorINS7_ISH_EEEEEC2B7v160006INS_16__value_init_tagESO_EEOT_OT0_, symObjAddr: 0xEB14, symBinAddr: 0x10001110C, symSize: 0x40 }
  - { offsetInCU: 0x3D494, offset: 0x3D494, size: 0x8, addend: 0x0, symName: __ZNSt3__122__compressed_pair_elemIPPNS_16__hash_node_baseIPNS_11__hash_nodeINS_17__hash_value_typeINS_12basic_stringIcNS_11char_traitsIcEENS_9allocatorIcEEEEP9Name_nameEEPvEEEELi0ELb0EEC2B7v160006ENS_16__value_init_tagE, symObjAddr: 0xEB54, symBinAddr: 0x10001114C, symSize: 0x18 }
  - { offsetInCU: 0x3D4C7, offset: 0x3D4C7, size: 0x8, addend: 0x0, symName: __ZNSt3__122__compressed_pair_elemINS_25__bucket_list_deallocatorINS_9allocatorIPNS_16__hash_node_baseIPNS_11__hash_nodeINS_17__hash_value_typeINS_12basic_stringIcNS_11char_traitsIcEENS2_IcEEEEP9Name_nameEEPvEEEEEEEELi1ELb0EEC2B7v160006ENS_16__value_init_tagE, symObjAddr: 0xEB6C, symBinAddr: 0x100011164, symSize: 0x2C }
  - { offsetInCU: 0x3D4FA, offset: 0x3D4FA, size: 0x8, addend: 0x0, symName: __ZNSt3__125__bucket_list_deallocatorINS_9allocatorIPNS_16__hash_node_baseIPNS_11__hash_nodeINS_17__hash_value_typeINS_12basic_stringIcNS_11char_traitsIcEENS1_IcEEEEP9Name_nameEEPvEEEEEEEC1B7v160006Ev, symObjAddr: 0xEB98, symBinAddr: 0x100011190, symSize: 0x2C }
  - { offsetInCU: 0x3D523, offset: 0x3D523, size: 0x8, addend: 0x0, symName: __ZNSt3__125__bucket_list_deallocatorINS_9allocatorIPNS_16__hash_node_baseIPNS_11__hash_nodeINS_17__hash_value_typeINS_12basic_stringIcNS_11char_traitsIcEENS1_IcEEEEP9Name_nameEEPvEEEEEEEC2B7v160006Ev, symObjAddr: 0xEBC4, symBinAddr: 0x1000111BC, symSize: 0x40 }
  - { offsetInCU: 0x3D54C, offset: 0x3D54C, size: 0x8, addend: 0x0, symName: __ZNSt3__117__compressed_pairImNS_9allocatorIPNS_16__hash_node_baseIPNS_11__hash_nodeINS_17__hash_value_typeINS_12basic_stringIcNS_11char_traitsIcEENS1_IcEEEEP9Name_nameEEPvEEEEEEEC1B7v160006IiNS_18__default_init_tagEEEOT_OT0_, symObjAddr: 0xEC04, symBinAddr: 0x1000111FC, symSize: 0x3C }
  - { offsetInCU: 0x3D5A3, offset: 0x3D5A3, size: 0x8, addend: 0x0, symName: __ZNSt3__117__compressed_pairImNS_9allocatorIPNS_16__hash_node_baseIPNS_11__hash_nodeINS_17__hash_value_typeINS_12basic_stringIcNS_11char_traitsIcEENS1_IcEEEEP9Name_nameEEPvEEEEEEEC2B7v160006IiNS_18__default_init_tagEEEOT_OT0_, symObjAddr: 0xEC40, symBinAddr: 0x100011238, symSize: 0x40 }
  - { offsetInCU: 0x3D5FA, offset: 0x3D5FA, size: 0x8, addend: 0x0, symName: __ZNSt3__122__compressed_pair_elemINS_9allocatorIPNS_16__hash_node_baseIPNS_11__hash_nodeINS_17__hash_value_typeINS_12basic_stringIcNS_11char_traitsIcEENS1_IcEEEEP9Name_nameEEPvEEEEEELi1ELb1EEC2B7v160006ENS_18__default_init_tagE, symObjAddr: 0xEC80, symBinAddr: 0x100011278, symSize: 0x2C }
  - { offsetInCU: 0x3D62D, offset: 0x3D62D, size: 0x8, addend: 0x0, symName: __ZNSt3__19allocatorIPNS_16__hash_node_baseIPNS_11__hash_nodeINS_17__hash_value_typeINS_12basic_stringIcNS_11char_traitsIcEENS0_IcEEEEP9Name_nameEEPvEEEEEC2B7v160006Ev, symObjAddr: 0xECAC, symBinAddr: 0x1000112A4, symSize: 0x2C }
  - { offsetInCU: 0x3D656, offset: 0x3D656, size: 0x8, addend: 0x0, symName: __ZNSt3__116__non_trivial_ifILb1ENS_9allocatorIPNS_16__hash_node_baseIPNS_11__hash_nodeINS_17__hash_value_typeINS_12basic_stringIcNS_11char_traitsIcEENS1_IcEEEEP9Name_nameEEPvEEEEEEEC2B7v160006Ev, symObjAddr: 0xECD8, symBinAddr: 0x1000112D0, symSize: 0x14 }
  - { offsetInCU: 0x3D67F, offset: 0x3D67F, size: 0x8, addend: 0x0, symName: __ZNSt3__117__compressed_pairINS_16__hash_node_baseIPNS_11__hash_nodeINS_17__hash_value_typeINS_12basic_stringIcNS_11char_traitsIcEENS_9allocatorIcEEEEP9Name_nameEEPvEEEENS7_ISE_EEEC2B7v160006ILb1EvEEv, symObjAddr: 0xECEC, symBinAddr: 0x1000112E4, symSize: 0x34 }
  - { offsetInCU: 0x3D6B3, offset: 0x3D6B3, size: 0x8, addend: 0x0, symName: __ZNSt3__122__compressed_pair_elemINS_16__hash_node_baseIPNS_11__hash_nodeINS_17__hash_value_typeINS_12basic_stringIcNS_11char_traitsIcEENS_9allocatorIcEEEEP9Name_nameEEPvEEEELi0ELb0EEC2B7v160006ENS_16__value_init_tagE, symObjAddr: 0xED20, symBinAddr: 0x100011318, symSize: 0x2C }
  - { offsetInCU: 0x3D6E6, offset: 0x3D6E6, size: 0x8, addend: 0x0, symName: __ZNSt3__122__compressed_pair_elemINS_9allocatorINS_11__hash_nodeINS_17__hash_value_typeINS_12basic_stringIcNS_11char_traitsIcEENS1_IcEEEEP9Name_nameEEPvEEEELi1ELb1EEC2B7v160006ENS_16__value_init_tagE, symObjAddr: 0xED4C, symBinAddr: 0x100011344, symSize: 0x2C }
  - { offsetInCU: 0x3D719, offset: 0x3D719, size: 0x8, addend: 0x0, symName: __ZNSt3__116__hash_node_baseIPNS_11__hash_nodeINS_17__hash_value_typeINS_12basic_stringIcNS_11char_traitsIcEENS_9allocatorIcEEEEP9Name_nameEEPvEEEC1B7v160006Ev, symObjAddr: 0xED78, symBinAddr: 0x100011370, symSize: 0x2C }
  - { offsetInCU: 0x3D742, offset: 0x3D742, size: 0x8, addend: 0x0, symName: __ZNSt3__116__hash_node_baseIPNS_11__hash_nodeINS_17__hash_value_typeINS_12basic_stringIcNS_11char_traitsIcEENS_9allocatorIcEEEEP9Name_nameEEPvEEEC2B7v160006Ev, symObjAddr: 0xEDA4, symBinAddr: 0x10001139C, symSize: 0x18 }
  - { offsetInCU: 0x3D76B, offset: 0x3D76B, size: 0x8, addend: 0x0, symName: __ZNSt3__19allocatorINS_11__hash_nodeINS_17__hash_value_typeINS_12basic_stringIcNS_11char_traitsIcEENS0_IcEEEEP9Name_nameEEPvEEEC2B7v160006Ev, symObjAddr: 0xEDBC, symBinAddr: 0x1000113B4, symSize: 0x2C }
  - { offsetInCU: 0x3D794, offset: 0x3D794, size: 0x8, addend: 0x0, symName: __ZNSt3__116__non_trivial_ifILb1ENS_9allocatorINS_11__hash_nodeINS_17__hash_value_typeINS_12basic_stringIcNS_11char_traitsIcEENS1_IcEEEEP9Name_nameEEPvEEEEEC2B7v160006Ev, symObjAddr: 0xEDE8, symBinAddr: 0x1000113E0, symSize: 0x14 }
  - { offsetInCU: 0x3D7BD, offset: 0x3D7BD, size: 0x8, addend: 0x0, symName: __ZNSt3__117__compressed_pairImNS_22__unordered_map_hasherINS_12basic_stringIcNS_11char_traitsIcEENS_9allocatorIcEEEENS_17__hash_value_typeIS7_P9Name_nameEENS_4hashIS7_EENS_8equal_toIS7_EELb1EEEEC2B7v160006IiNS_18__default_init_tagEEEOT_OT0_, symObjAddr: 0xEDFC, symBinAddr: 0x1000113F4, symSize: 0x40 }
  - { offsetInCU: 0x3D814, offset: 0x3D814, size: 0x8, addend: 0x0, symName: __ZNSt3__122__compressed_pair_elemINS_22__unordered_map_hasherINS_12basic_stringIcNS_11char_traitsIcEENS_9allocatorIcEEEENS_17__hash_value_typeIS7_P9Name_nameEENS_4hashIS7_EENS_8equal_toIS7_EELb1EEELi1ELb1EEC2B7v160006ENS_18__default_init_tagE, symObjAddr: 0xEE3C, symBinAddr: 0x100011434, symSize: 0x2C }
  - { offsetInCU: 0x3D847, offset: 0x3D847, size: 0x8, addend: 0x0, symName: __ZNSt3__122__unordered_map_hasherINS_12basic_stringIcNS_11char_traitsIcEENS_9allocatorIcEEEENS_17__hash_value_typeIS6_P9Name_nameEENS_4hashIS6_EENS_8equal_toIS6_EELb1EEC2B7v160006Ev, symObjAddr: 0xEE68, symBinAddr: 0x100011460, symSize: 0x14 }
  - { offsetInCU: 0x3D870, offset: 0x3D870, size: 0x8, addend: 0x0, symName: __ZNSt3__117__compressed_pairIfNS_21__unordered_map_equalINS_12basic_stringIcNS_11char_traitsIcEENS_9allocatorIcEEEENS_17__hash_value_typeIS7_P9Name_nameEENS_8equal_toIS7_EENS_4hashIS7_EELb1EEEEC2B7v160006IfNS_18__default_init_tagEEEOT_OT0_, symObjAddr: 0xEE7C, symBinAddr: 0x100011474, symSize: 0x40 }
  - { offsetInCU: 0x3D8C7, offset: 0x3D8C7, size: 0x8, addend: 0x0, symName: __ZNSt3__122__compressed_pair_elemINS_21__unordered_map_equalINS_12basic_stringIcNS_11char_traitsIcEENS_9allocatorIcEEEENS_17__hash_value_typeIS7_P9Name_nameEENS_8equal_toIS7_EENS_4hashIS7_EELb1EEELi1ELb1EEC2B7v160006ENS_18__default_init_tagE, symObjAddr: 0xEEBC, symBinAddr: 0x1000114B4, symSize: 0x2C }
  - { offsetInCU: 0x3D8FA, offset: 0x3D8FA, size: 0x8, addend: 0x0, symName: __ZNSt3__121__unordered_map_equalINS_12basic_stringIcNS_11char_traitsIcEENS_9allocatorIcEEEENS_17__hash_value_typeIS6_P9Name_nameEENS_8equal_toIS6_EENS_4hashIS6_EELb1EEC2B7v160006Ev, symObjAddr: 0xEEE8, symBinAddr: 0x1000114E0, symSize: 0x14 }
  - { offsetInCU: 0x3D923, offset: 0x3D923, size: 0x8, addend: 0x0, symName: __ZNSt3__113unordered_mapINS_12basic_stringIcNS_11char_traitsIcEENS_9allocatorIcEEEEP9Name_nameNS_4hashIS6_EENS_8equal_toIS6_EENS4_INS_4pairIKS6_S8_EEEEED2B7v160006Ev, symObjAddr: 0xEEFC, symBinAddr: 0x1000114F4, symSize: 0x2C }
  - { offsetInCU: 0x3D94C, offset: 0x3D94C, size: 0x8, addend: 0x0, symName: __ZNSt3__112__hash_tableINS_17__hash_value_typeINS_12basic_stringIcNS_11char_traitsIcEENS_9allocatorIcEEEEP9Name_nameEENS_22__unordered_map_hasherIS7_SA_NS_4hashIS7_EENS_8equal_toIS7_EELb1EEENS_21__unordered_map_equalIS7_SA_SF_SD_Lb1EEENS5_ISA_EEED1Ev, symObjAddr: 0xEF28, symBinAddr: 0x100011520, symSize: 0x2C }
  - { offsetInCU: 0x3D977, offset: 0x3D977, size: 0x8, addend: 0x0, symName: __ZNSt3__112__hash_tableINS_17__hash_value_typeINS_12basic_stringIcNS_11char_traitsIcEENS_9allocatorIcEEEEP9Name_nameEENS_22__unordered_map_hasherIS7_SA_NS_4hashIS7_EENS_8equal_toIS7_EELb1EEENS_21__unordered_map_equalIS7_SA_SF_SD_Lb1EEENS5_ISA_EEED2Ev, symObjAddr: 0xEF54, symBinAddr: 0x10001154C, symSize: 0x58 }
  - { offsetInCU: 0x3D9A1, offset: 0x3D9A1, size: 0x8, addend: 0x0, symName: __ZNSt3__112__hash_tableINS_17__hash_value_typeINS_12basic_stringIcNS_11char_traitsIcEENS_9allocatorIcEEEEP9Name_nameEENS_22__unordered_map_hasherIS7_SA_NS_4hashIS7_EENS_8equal_toIS7_EELb1EEENS_21__unordered_map_equalIS7_SA_SF_SD_Lb1EEENS5_ISA_EEE17__deallocate_nodeEPNS_16__hash_node_baseIPNS_11__hash_nodeISA_PvEEEE, symObjAddr: 0xEFAC, symBinAddr: 0x1000115A4, symSize: 0xA8 }
  - { offsetInCU: 0x3DA0B, offset: 0x3DA0B, size: 0x8, addend: 0x0, symName: __ZNSt3__117__compressed_pairINS_16__hash_node_baseIPNS_11__hash_nodeINS_17__hash_value_typeINS_12basic_stringIcNS_11char_traitsIcEENS_9allocatorIcEEEEP9Name_nameEEPvEEEENS7_ISE_EEE5firstB7v160006Ev, symObjAddr: 0xF054, symBinAddr: 0x10001164C, symSize: 0x24 }
  - { offsetInCU: 0x3DA30, offset: 0x3DA30, size: 0x8, addend: 0x0, symName: __ZNSt3__110unique_ptrIA_PNS_16__hash_node_baseIPNS_11__hash_nodeINS_17__hash_value_typeINS_12basic_stringIcNS_11char_traitsIcEENS_9allocatorIcEEEEP9Name_nameEEPvEEEENS_25__bucket_list_deallocatorINS7_ISH_EEEEED1B7v160006Ev, symObjAddr: 0xF088, symBinAddr: 0x100011680, symSize: 0x2C }
  - { offsetInCU: 0x3DA59, offset: 0x3DA59, size: 0x8, addend: 0x0, symName: __ZNSt3__112__hash_tableINS_17__hash_value_typeINS_12basic_stringIcNS_11char_traitsIcEENS_9allocatorIcEEEEP9Name_nameEENS_22__unordered_map_hasherIS7_SA_NS_4hashIS7_EENS_8equal_toIS7_EELb1EEENS_21__unordered_map_equalIS7_SA_SF_SD_Lb1EEENS5_ISA_EEE12__node_allocB7v160006Ev, symObjAddr: 0xF0B4, symBinAddr: 0x1000116AC, symSize: 0x28 }
  - { offsetInCU: 0x3DA7E, offset: 0x3DA7E, size: 0x8, addend: 0x0, symName: __ZNSt3__116__hash_node_baseIPNS_11__hash_nodeINS_17__hash_value_typeINS_12basic_stringIcNS_11char_traitsIcEENS_9allocatorIcEEEEP9Name_nameEEPvEEE8__upcastB7v160006Ev, symObjAddr: 0xF0DC, symBinAddr: 0x1000116D4, symSize: 0x24 }
  - { offsetInCU: 0x3DAA3, offset: 0x3DAA3, size: 0x8, addend: 0x0, symName: __ZNSt3__116allocator_traitsINS_9allocatorINS_11__hash_nodeINS_17__hash_value_typeINS_12basic_stringIcNS_11char_traitsIcEENS1_IcEEEEP9Name_nameEEPvEEEEE7destroyB7v160006INS_4pairIKS8_SA_EEvvEEvRSE_PT_, symObjAddr: 0xF100, symBinAddr: 0x1000116F8, symSize: 0x28 }
  - { offsetInCU: 0x3DADD, offset: 0x3DADD, size: 0x8, addend: 0x0, symName: __ZNSt3__122__hash_key_value_typesINS_17__hash_value_typeINS_12basic_stringIcNS_11char_traitsIcEENS_9allocatorIcEEEEP9Name_nameEEE9__get_ptrB7v160006ERSA_, symObjAddr: 0xF128, symBinAddr: 0x100011720, symSize: 0x24 }
  - { offsetInCU: 0x3DB00, offset: 0x3DB00, size: 0x8, addend: 0x0, symName: __ZNSt3__116allocator_traitsINS_9allocatorINS_11__hash_nodeINS_17__hash_value_typeINS_12basic_stringIcNS_11char_traitsIcEENS1_IcEEEEP9Name_nameEEPvEEEEE10deallocateB7v160006ERSE_PSD_m, symObjAddr: 0xF14C, symBinAddr: 0x100011744, symSize: 0x34 }
  - { offsetInCU: 0x3DB42, offset: 0x3DB42, size: 0x8, addend: 0x0, symName: __ZNSt3__117__compressed_pairINS_16__hash_node_baseIPNS_11__hash_nodeINS_17__hash_value_typeINS_12basic_stringIcNS_11char_traitsIcEENS_9allocatorIcEEEEP9Name_nameEEPvEEEENS7_ISE_EEE6secondB7v160006Ev, symObjAddr: 0xF180, symBinAddr: 0x100011778, symSize: 0x24 }
  - { offsetInCU: 0x3DB67, offset: 0x3DB67, size: 0x8, addend: 0x0, symName: __ZNSt3__122__compressed_pair_elemINS_9allocatorINS_11__hash_nodeINS_17__hash_value_typeINS_12basic_stringIcNS_11char_traitsIcEENS1_IcEEEEP9Name_nameEEPvEEEELi1ELb1EE5__getB7v160006Ev, symObjAddr: 0xF1A4, symBinAddr: 0x10001179C, symSize: 0x14 }
  - { offsetInCU: 0x3DB8C, offset: 0x3DB8C, size: 0x8, addend: 0x0, symName: __ZNSt3__114pointer_traitsIPNS_16__hash_node_baseIPNS_11__hash_nodeINS_17__hash_value_typeINS_12basic_stringIcNS_11char_traitsIcEENS_9allocatorIcEEEEP9Name_nameEEPvEEEEE10pointer_toB7v160006ERSG_, symObjAddr: 0xF1B8, symBinAddr: 0x1000117B0, symSize: 0x14 }
  - { offsetInCU: 0x3DBAF, offset: 0x3DBAF, size: 0x8, addend: 0x0, symName: __ZNSt3__14pairIKNS_12basic_stringIcNS_11char_traitsIcEENS_9allocatorIcEEEEP9Name_nameED1Ev, symObjAddr: 0xF1CC, symBinAddr: 0x1000117C4, symSize: 0x2C }
  - { offsetInCU: 0x3DBDA, offset: 0x3DBDA, size: 0x8, addend: 0x0, symName: __ZNSt3__14pairIKNS_12basic_stringIcNS_11char_traitsIcEENS_9allocatorIcEEEEP9Name_nameED2Ev, symObjAddr: 0xF1F8, symBinAddr: 0x1000117F0, symSize: 0x2C }
  - { offsetInCU: 0x3DC05, offset: 0x3DC05, size: 0x8, addend: 0x0, symName: __ZNSt3__117__hash_value_typeINS_12basic_stringIcNS_11char_traitsIcEENS_9allocatorIcEEEEP9Name_nameE11__get_valueB7v160006Ev, symObjAddr: 0xF224, symBinAddr: 0x10001181C, symSize: 0x24 }
  - { offsetInCU: 0x3DC2A, offset: 0x3DC2A, size: 0x8, addend: 0x0, symName: __ZNSt3__19allocatorINS_11__hash_nodeINS_17__hash_value_typeINS_12basic_stringIcNS_11char_traitsIcEENS0_IcEEEEP9Name_nameEEPvEEE10deallocateB7v160006EPSC_m, symObjAddr: 0xF280, symBinAddr: 0x100011878, symSize: 0x44 }
  - { offsetInCU: 0x3DC6B, offset: 0x3DC6B, size: 0x8, addend: 0x0, symName: __ZNSt3__122__compressed_pair_elemINS_16__hash_node_baseIPNS_11__hash_nodeINS_17__hash_value_typeINS_12basic_stringIcNS_11char_traitsIcEENS_9allocatorIcEEEEP9Name_nameEEPvEEEELi0ELb0EE5__getB7v160006Ev, symObjAddr: 0xF2C4, symBinAddr: 0x1000118BC, symSize: 0x14 }
  - { offsetInCU: 0x3DC90, offset: 0x3DC90, size: 0x8, addend: 0x0, symName: __ZNSt3__110unique_ptrIA_PNS_16__hash_node_baseIPNS_11__hash_nodeINS_17__hash_value_typeINS_12basic_stringIcNS_11char_traitsIcEENS_9allocatorIcEEEEP9Name_nameEEPvEEEENS_25__bucket_list_deallocatorINS7_ISH_EEEEED2B7v160006Ev, symObjAddr: 0xF2D8, symBinAddr: 0x1000118D0, symSize: 0x30 }
  - { offsetInCU: 0x3DCB9, offset: 0x3DCB9, size: 0x8, addend: 0x0, symName: __ZNSt3__110unique_ptrIA_PNS_16__hash_node_baseIPNS_11__hash_nodeINS_17__hash_value_typeINS_12basic_stringIcNS_11char_traitsIcEENS_9allocatorIcEEEEP9Name_nameEEPvEEEENS_25__bucket_list_deallocatorINS7_ISH_EEEEE5resetB7v160006EDn, symObjAddr: 0xF308, symBinAddr: 0x100011900, symSize: 0x6C }
  - { offsetInCU: 0x3DCF8, offset: 0x3DCF8, size: 0x8, addend: 0x0, symName: __ZNSt3__117__compressed_pairIPPNS_16__hash_node_baseIPNS_11__hash_nodeINS_17__hash_value_typeINS_12basic_stringIcNS_11char_traitsIcEENS_9allocatorIcEEEEP9Name_nameEEPvEEEENS_25__bucket_list_deallocatorINS7_ISH_EEEEE5firstB7v160006Ev, symObjAddr: 0xF374, symBinAddr: 0x10001196C, symSize: 0x24 }
  - { offsetInCU: 0x3DD1D, offset: 0x3DD1D, size: 0x8, addend: 0x0, symName: __ZNSt3__117__compressed_pairIPPNS_16__hash_node_baseIPNS_11__hash_nodeINS_17__hash_value_typeINS_12basic_stringIcNS_11char_traitsIcEENS_9allocatorIcEEEEP9Name_nameEEPvEEEENS_25__bucket_list_deallocatorINS7_ISH_EEEEE6secondB7v160006Ev, symObjAddr: 0xF398, symBinAddr: 0x100011990, symSize: 0x28 }
  - { offsetInCU: 0x3DD42, offset: 0x3DD42, size: 0x8, addend: 0x0, symName: __ZNSt3__125__bucket_list_deallocatorINS_9allocatorIPNS_16__hash_node_baseIPNS_11__hash_nodeINS_17__hash_value_typeINS_12basic_stringIcNS_11char_traitsIcEENS1_IcEEEEP9Name_nameEEPvEEEEEEEclB7v160006EPSH_, symObjAddr: 0xF3C0, symBinAddr: 0x1000119B8, symSize: 0x58 }
  - { offsetInCU: 0x3DD76, offset: 0x3DD76, size: 0x8, addend: 0x0, symName: __ZNSt3__122__compressed_pair_elemIPPNS_16__hash_node_baseIPNS_11__hash_nodeINS_17__hash_value_typeINS_12basic_stringIcNS_11char_traitsIcEENS_9allocatorIcEEEEP9Name_nameEEPvEEEELi0ELb0EE5__getB7v160006Ev, symObjAddr: 0xF418, symBinAddr: 0x100011A10, symSize: 0x14 }
  - { offsetInCU: 0x3DD9B, offset: 0x3DD9B, size: 0x8, addend: 0x0, symName: __ZNSt3__122__compressed_pair_elemINS_25__bucket_list_deallocatorINS_9allocatorIPNS_16__hash_node_baseIPNS_11__hash_nodeINS_17__hash_value_typeINS_12basic_stringIcNS_11char_traitsIcEENS2_IcEEEEP9Name_nameEEPvEEEEEEEELi1ELb0EE5__getB7v160006Ev, symObjAddr: 0xF42C, symBinAddr: 0x100011A24, symSize: 0x14 }
  - { offsetInCU: 0x3DDC0, offset: 0x3DDC0, size: 0x8, addend: 0x0, symName: __ZNSt3__116allocator_traitsINS_9allocatorIPNS_16__hash_node_baseIPNS_11__hash_nodeINS_17__hash_value_typeINS_12basic_stringIcNS_11char_traitsIcEENS1_IcEEEEP9Name_nameEEPvEEEEEEE10deallocateB7v160006ERSI_PSH_m, symObjAddr: 0xF440, symBinAddr: 0x100011A38, symSize: 0x34 }
  - { offsetInCU: 0x3DE02, offset: 0x3DE02, size: 0x8, addend: 0x0, symName: __ZNSt3__125__bucket_list_deallocatorINS_9allocatorIPNS_16__hash_node_baseIPNS_11__hash_nodeINS_17__hash_value_typeINS_12basic_stringIcNS_11char_traitsIcEENS1_IcEEEEP9Name_nameEEPvEEEEEEE7__allocB7v160006Ev, symObjAddr: 0xF474, symBinAddr: 0x100011A6C, symSize: 0x24 }
  - { offsetInCU: 0x3DE27, offset: 0x3DE27, size: 0x8, addend: 0x0, symName: __ZNSt3__125__bucket_list_deallocatorINS_9allocatorIPNS_16__hash_node_baseIPNS_11__hash_nodeINS_17__hash_value_typeINS_12basic_stringIcNS_11char_traitsIcEENS1_IcEEEEP9Name_nameEEPvEEEEEEE4sizeB7v160006Ev, symObjAddr: 0xF498, symBinAddr: 0x100011A90, symSize: 0x24 }
  - { offsetInCU: 0x3DE4C, offset: 0x3DE4C, size: 0x8, addend: 0x0, symName: __ZNSt3__19allocatorIPNS_16__hash_node_baseIPNS_11__hash_nodeINS_17__hash_value_typeINS_12basic_stringIcNS_11char_traitsIcEENS0_IcEEEEP9Name_nameEEPvEEEEE10deallocateB7v160006EPSG_m, symObjAddr: 0xF4BC, symBinAddr: 0x100011AB4, symSize: 0x40 }
  - { offsetInCU: 0x3DE8D, offset: 0x3DE8D, size: 0x8, addend: 0x0, symName: __ZNSt3__117__compressed_pairImNS_9allocatorIPNS_16__hash_node_baseIPNS_11__hash_nodeINS_17__hash_value_typeINS_12basic_stringIcNS_11char_traitsIcEENS1_IcEEEEP9Name_nameEEPvEEEEEEE6secondB7v160006Ev, symObjAddr: 0xF4FC, symBinAddr: 0x100011AF4, symSize: 0x24 }
  - { offsetInCU: 0x3DEB2, offset: 0x3DEB2, size: 0x8, addend: 0x0, symName: __ZNSt3__122__compressed_pair_elemINS_9allocatorIPNS_16__hash_node_baseIPNS_11__hash_nodeINS_17__hash_value_typeINS_12basic_stringIcNS_11char_traitsIcEENS1_IcEEEEP9Name_nameEEPvEEEEEELi1ELb1EE5__getB7v160006Ev, symObjAddr: 0xF520, symBinAddr: 0x100011B18, symSize: 0x14 }
  - { offsetInCU: 0x3DED7, offset: 0x3DED7, size: 0x8, addend: 0x0, symName: __ZNSt3__117__compressed_pairImNS_9allocatorIPNS_16__hash_node_baseIPNS_11__hash_nodeINS_17__hash_value_typeINS_12basic_stringIcNS_11char_traitsIcEENS1_IcEEEEP9Name_nameEEPvEEEEEEE5firstB7v160006Ev, symObjAddr: 0xF534, symBinAddr: 0x100011B2C, symSize: 0x24 }
  - { offsetInCU: 0x3DEFC, offset: 0x3DEFC, size: 0x8, addend: 0x0, symName: __ZNSt3__113unordered_mapINS_12basic_stringIcNS_11char_traitsIcEENS_9allocatorIcEEEEP9Temp_tempNS_4hashIS6_EENS_8equal_toIS6_EENS4_INS_4pairIKS6_S8_EEEEEC2B7v160006Ev, symObjAddr: 0xF558, symBinAddr: 0x100011B50, symSize: 0x3C }
  - { offsetInCU: 0x3DF25, offset: 0x3DF25, size: 0x8, addend: 0x0, symName: __ZNSt3__112__hash_tableINS_17__hash_value_typeINS_12basic_stringIcNS_11char_traitsIcEENS_9allocatorIcEEEEP9Temp_tempEENS_22__unordered_map_hasherIS7_SA_NS_4hashIS7_EENS_8equal_toIS7_EELb1EEENS_21__unordered_map_equalIS7_SA_SF_SD_Lb1EEENS5_ISA_EEEC1Ev, symObjAddr: 0xF594, symBinAddr: 0x100011B8C, symSize: 0x2C }
  - { offsetInCU: 0x3DF50, offset: 0x3DF50, size: 0x8, addend: 0x0, symName: __ZNSt3__112__hash_tableINS_17__hash_value_typeINS_12basic_stringIcNS_11char_traitsIcEENS_9allocatorIcEEEEP9Temp_tempEENS_22__unordered_map_hasherIS7_SA_NS_4hashIS7_EENS_8equal_toIS7_EELb1EEENS_21__unordered_map_equalIS7_SA_SF_SD_Lb1EEENS5_ISA_EEEC2Ev, symObjAddr: 0xF5D0, symBinAddr: 0x100011BC8, symSize: 0x7C }
  - { offsetInCU: 0x3DF7B, offset: 0x3DF7B, size: 0x8, addend: 0x0, symName: __ZNSt3__110unique_ptrIA_PNS_16__hash_node_baseIPNS_11__hash_nodeINS_17__hash_value_typeINS_12basic_stringIcNS_11char_traitsIcEENS_9allocatorIcEEEEP9Temp_tempEEPvEEEENS_25__bucket_list_deallocatorINS7_ISH_EEEEEC1B7v160006ILb1EvEEv, symObjAddr: 0xF64C, symBinAddr: 0x100011C44, symSize: 0x2C }
  - { offsetInCU: 0x3DFAF, offset: 0x3DFAF, size: 0x8, addend: 0x0, symName: __ZNSt3__117__compressed_pairINS_16__hash_node_baseIPNS_11__hash_nodeINS_17__hash_value_typeINS_12basic_stringIcNS_11char_traitsIcEENS_9allocatorIcEEEEP9Temp_tempEEPvEEEENS7_ISE_EEEC1B7v160006ILb1EvEEv, symObjAddr: 0xF678, symBinAddr: 0x100011C70, symSize: 0x2C }
  - { offsetInCU: 0x3DFE3, offset: 0x3DFE3, size: 0x8, addend: 0x0, symName: __ZNSt3__117__compressed_pairImNS_22__unordered_map_hasherINS_12basic_stringIcNS_11char_traitsIcEENS_9allocatorIcEEEENS_17__hash_value_typeIS7_P9Temp_tempEENS_4hashIS7_EENS_8equal_toIS7_EELb1EEEEC1B7v160006IiNS_18__default_init_tagEEEOT_OT0_, symObjAddr: 0xF6A4, symBinAddr: 0x100011C9C, symSize: 0x3C }
  - { offsetInCU: 0x3E03A, offset: 0x3E03A, size: 0x8, addend: 0x0, symName: __ZNSt3__117__compressed_pairIfNS_21__unordered_map_equalINS_12basic_stringIcNS_11char_traitsIcEENS_9allocatorIcEEEENS_17__hash_value_typeIS7_P9Temp_tempEENS_8equal_toIS7_EENS_4hashIS7_EELb1EEEEC1B7v160006IfNS_18__default_init_tagEEEOT_OT0_, symObjAddr: 0xF6E0, symBinAddr: 0x100011CD8, symSize: 0x3C }
  - { offsetInCU: 0x3E091, offset: 0x3E091, size: 0x8, addend: 0x0, symName: __ZNSt3__110unique_ptrIA_PNS_16__hash_node_baseIPNS_11__hash_nodeINS_17__hash_value_typeINS_12basic_stringIcNS_11char_traitsIcEENS_9allocatorIcEEEEP9Temp_tempEEPvEEEENS_25__bucket_list_deallocatorINS7_ISH_EEEEEC2B7v160006ILb1EvEEv, symObjAddr: 0xF71C, symBinAddr: 0x100011D14, symSize: 0x3C }
  - { offsetInCU: 0x3E0C5, offset: 0x3E0C5, size: 0x8, addend: 0x0, symName: __ZNSt3__117__compressed_pairIPPNS_16__hash_node_baseIPNS_11__hash_nodeINS_17__hash_value_typeINS_12basic_stringIcNS_11char_traitsIcEENS_9allocatorIcEEEEP9Temp_tempEEPvEEEENS_25__bucket_list_deallocatorINS7_ISH_EEEEEC1B7v160006INS_16__value_init_tagESO_EEOT_OT0_, symObjAddr: 0xF758, symBinAddr: 0x100011D50, symSize: 0x3C }
  - { offsetInCU: 0x3E11C, offset: 0x3E11C, size: 0x8, addend: 0x0, symName: __ZNSt3__117__compressed_pairIPPNS_16__hash_node_baseIPNS_11__hash_nodeINS_17__hash_value_typeINS_12basic_stringIcNS_11char_traitsIcEENS_9allocatorIcEEEEP9Temp_tempEEPvEEEENS_25__bucket_list_deallocatorINS7_ISH_EEEEEC2B7v160006INS_16__value_init_tagESO_EEOT_OT0_, symObjAddr: 0xF794, symBinAddr: 0x100011D8C, symSize: 0x40 }
  - { offsetInCU: 0x3E173, offset: 0x3E173, size: 0x8, addend: 0x0, symName: __ZNSt3__122__compressed_pair_elemIPPNS_16__hash_node_baseIPNS_11__hash_nodeINS_17__hash_value_typeINS_12basic_stringIcNS_11char_traitsIcEENS_9allocatorIcEEEEP9Temp_tempEEPvEEEELi0ELb0EEC2B7v160006ENS_16__value_init_tagE, symObjAddr: 0xF7D4, symBinAddr: 0x100011DCC, symSize: 0x18 }
  - { offsetInCU: 0x3E1A6, offset: 0x3E1A6, size: 0x8, addend: 0x0, symName: __ZNSt3__122__compressed_pair_elemINS_25__bucket_list_deallocatorINS_9allocatorIPNS_16__hash_node_baseIPNS_11__hash_nodeINS_17__hash_value_typeINS_12basic_stringIcNS_11char_traitsIcEENS2_IcEEEEP9Temp_tempEEPvEEEEEEEELi1ELb0EEC2B7v160006ENS_16__value_init_tagE, symObjAddr: 0xF7EC, symBinAddr: 0x100011DE4, symSize: 0x2C }
  - { offsetInCU: 0x3E1D9, offset: 0x3E1D9, size: 0x8, addend: 0x0, symName: __ZNSt3__125__bucket_list_deallocatorINS_9allocatorIPNS_16__hash_node_baseIPNS_11__hash_nodeINS_17__hash_value_typeINS_12basic_stringIcNS_11char_traitsIcEENS1_IcEEEEP9Temp_tempEEPvEEEEEEEC1B7v160006Ev, symObjAddr: 0xF818, symBinAddr: 0x100011E10, symSize: 0x2C }
  - { offsetInCU: 0x3E202, offset: 0x3E202, size: 0x8, addend: 0x0, symName: __ZNSt3__125__bucket_list_deallocatorINS_9allocatorIPNS_16__hash_node_baseIPNS_11__hash_nodeINS_17__hash_value_typeINS_12basic_stringIcNS_11char_traitsIcEENS1_IcEEEEP9Temp_tempEEPvEEEEEEEC2B7v160006Ev, symObjAddr: 0xF844, symBinAddr: 0x100011E3C, symSize: 0x40 }
  - { offsetInCU: 0x3E22B, offset: 0x3E22B, size: 0x8, addend: 0x0, symName: __ZNSt3__117__compressed_pairImNS_9allocatorIPNS_16__hash_node_baseIPNS_11__hash_nodeINS_17__hash_value_typeINS_12basic_stringIcNS_11char_traitsIcEENS1_IcEEEEP9Temp_tempEEPvEEEEEEEC1B7v160006IiNS_18__default_init_tagEEEOT_OT0_, symObjAddr: 0xF884, symBinAddr: 0x100011E7C, symSize: 0x3C }
  - { offsetInCU: 0x3E282, offset: 0x3E282, size: 0x8, addend: 0x0, symName: __ZNSt3__117__compressed_pairImNS_9allocatorIPNS_16__hash_node_baseIPNS_11__hash_nodeINS_17__hash_value_typeINS_12basic_stringIcNS_11char_traitsIcEENS1_IcEEEEP9Temp_tempEEPvEEEEEEEC2B7v160006IiNS_18__default_init_tagEEEOT_OT0_, symObjAddr: 0xF8C0, symBinAddr: 0x100011EB8, symSize: 0x40 }
  - { offsetInCU: 0x3E2D9, offset: 0x3E2D9, size: 0x8, addend: 0x0, symName: __ZNSt3__122__compressed_pair_elemINS_9allocatorIPNS_16__hash_node_baseIPNS_11__hash_nodeINS_17__hash_value_typeINS_12basic_stringIcNS_11char_traitsIcEENS1_IcEEEEP9Temp_tempEEPvEEEEEELi1ELb1EEC2B7v160006ENS_18__default_init_tagE, symObjAddr: 0xF900, symBinAddr: 0x100011EF8, symSize: 0x2C }
  - { offsetInCU: 0x3E30C, offset: 0x3E30C, size: 0x8, addend: 0x0, symName: __ZNSt3__19allocatorIPNS_16__hash_node_baseIPNS_11__hash_nodeINS_17__hash_value_typeINS_12basic_stringIcNS_11char_traitsIcEENS0_IcEEEEP9Temp_tempEEPvEEEEEC2B7v160006Ev, symObjAddr: 0xF92C, symBinAddr: 0x100011F24, symSize: 0x2C }
  - { offsetInCU: 0x3E335, offset: 0x3E335, size: 0x8, addend: 0x0, symName: __ZNSt3__116__non_trivial_ifILb1ENS_9allocatorIPNS_16__hash_node_baseIPNS_11__hash_nodeINS_17__hash_value_typeINS_12basic_stringIcNS_11char_traitsIcEENS1_IcEEEEP9Temp_tempEEPvEEEEEEEC2B7v160006Ev, symObjAddr: 0xF958, symBinAddr: 0x100011F50, symSize: 0x14 }
  - { offsetInCU: 0x3E35E, offset: 0x3E35E, size: 0x8, addend: 0x0, symName: __ZNSt3__117__compressed_pairINS_16__hash_node_baseIPNS_11__hash_nodeINS_17__hash_value_typeINS_12basic_stringIcNS_11char_traitsIcEENS_9allocatorIcEEEEP9Temp_tempEEPvEEEENS7_ISE_EEEC2B7v160006ILb1EvEEv, symObjAddr: 0xF96C, symBinAddr: 0x100011F64, symSize: 0x34 }
  - { offsetInCU: 0x3E392, offset: 0x3E392, size: 0x8, addend: 0x0, symName: __ZNSt3__122__compressed_pair_elemINS_16__hash_node_baseIPNS_11__hash_nodeINS_17__hash_value_typeINS_12basic_stringIcNS_11char_traitsIcEENS_9allocatorIcEEEEP9Temp_tempEEPvEEEELi0ELb0EEC2B7v160006ENS_16__value_init_tagE, symObjAddr: 0xF9A0, symBinAddr: 0x100011F98, symSize: 0x2C }
  - { offsetInCU: 0x3E3C5, offset: 0x3E3C5, size: 0x8, addend: 0x0, symName: __ZNSt3__122__compressed_pair_elemINS_9allocatorINS_11__hash_nodeINS_17__hash_value_typeINS_12basic_stringIcNS_11char_traitsIcEENS1_IcEEEEP9Temp_tempEEPvEEEELi1ELb1EEC2B7v160006ENS_16__value_init_tagE, symObjAddr: 0xF9CC, symBinAddr: 0x100011FC4, symSize: 0x2C }
  - { offsetInCU: 0x3E3F8, offset: 0x3E3F8, size: 0x8, addend: 0x0, symName: __ZNSt3__116__hash_node_baseIPNS_11__hash_nodeINS_17__hash_value_typeINS_12basic_stringIcNS_11char_traitsIcEENS_9allocatorIcEEEEP9Temp_tempEEPvEEEC1B7v160006Ev, symObjAddr: 0xF9F8, symBinAddr: 0x100011FF0, symSize: 0x2C }
  - { offsetInCU: 0x3E421, offset: 0x3E421, size: 0x8, addend: 0x0, symName: __ZNSt3__116__hash_node_baseIPNS_11__hash_nodeINS_17__hash_value_typeINS_12basic_stringIcNS_11char_traitsIcEENS_9allocatorIcEEEEP9Temp_tempEEPvEEEC2B7v160006Ev, symObjAddr: 0xFA24, symBinAddr: 0x10001201C, symSize: 0x18 }
  - { offsetInCU: 0x3E44A, offset: 0x3E44A, size: 0x8, addend: 0x0, symName: __ZNSt3__19allocatorINS_11__hash_nodeINS_17__hash_value_typeINS_12basic_stringIcNS_11char_traitsIcEENS0_IcEEEEP9Temp_tempEEPvEEEC2B7v160006Ev, symObjAddr: 0xFA3C, symBinAddr: 0x100012034, symSize: 0x2C }
  - { offsetInCU: 0x3E473, offset: 0x3E473, size: 0x8, addend: 0x0, symName: __ZNSt3__116__non_trivial_ifILb1ENS_9allocatorINS_11__hash_nodeINS_17__hash_value_typeINS_12basic_stringIcNS_11char_traitsIcEENS1_IcEEEEP9Temp_tempEEPvEEEEEC2B7v160006Ev, symObjAddr: 0xFA68, symBinAddr: 0x100012060, symSize: 0x14 }
  - { offsetInCU: 0x3E49C, offset: 0x3E49C, size: 0x8, addend: 0x0, symName: __ZNSt3__117__compressed_pairImNS_22__unordered_map_hasherINS_12basic_stringIcNS_11char_traitsIcEENS_9allocatorIcEEEENS_17__hash_value_typeIS7_P9Temp_tempEENS_4hashIS7_EENS_8equal_toIS7_EELb1EEEEC2B7v160006IiNS_18__default_init_tagEEEOT_OT0_, symObjAddr: 0xFA7C, symBinAddr: 0x100012074, symSize: 0x40 }
  - { offsetInCU: 0x3E4F3, offset: 0x3E4F3, size: 0x8, addend: 0x0, symName: __ZNSt3__122__compressed_pair_elemINS_22__unordered_map_hasherINS_12basic_stringIcNS_11char_traitsIcEENS_9allocatorIcEEEENS_17__hash_value_typeIS7_P9Temp_tempEENS_4hashIS7_EENS_8equal_toIS7_EELb1EEELi1ELb1EEC2B7v160006ENS_18__default_init_tagE, symObjAddr: 0xFABC, symBinAddr: 0x1000120B4, symSize: 0x2C }
  - { offsetInCU: 0x3E526, offset: 0x3E526, size: 0x8, addend: 0x0, symName: __ZNSt3__122__unordered_map_hasherINS_12basic_stringIcNS_11char_traitsIcEENS_9allocatorIcEEEENS_17__hash_value_typeIS6_P9Temp_tempEENS_4hashIS6_EENS_8equal_toIS6_EELb1EEC2B7v160006Ev, symObjAddr: 0xFAE8, symBinAddr: 0x1000120E0, symSize: 0x14 }
  - { offsetInCU: 0x3E54F, offset: 0x3E54F, size: 0x8, addend: 0x0, symName: __ZNSt3__117__compressed_pairIfNS_21__unordered_map_equalINS_12basic_stringIcNS_11char_traitsIcEENS_9allocatorIcEEEENS_17__hash_value_typeIS7_P9Temp_tempEENS_8equal_toIS7_EENS_4hashIS7_EELb1EEEEC2B7v160006IfNS_18__default_init_tagEEEOT_OT0_, symObjAddr: 0xFAFC, symBinAddr: 0x1000120F4, symSize: 0x40 }
  - { offsetInCU: 0x3E5A6, offset: 0x3E5A6, size: 0x8, addend: 0x0, symName: __ZNSt3__122__compressed_pair_elemINS_21__unordered_map_equalINS_12basic_stringIcNS_11char_traitsIcEENS_9allocatorIcEEEENS_17__hash_value_typeIS7_P9Temp_tempEENS_8equal_toIS7_EENS_4hashIS7_EELb1EEELi1ELb1EEC2B7v160006ENS_18__default_init_tagE, symObjAddr: 0xFB3C, symBinAddr: 0x100012134, symSize: 0x2C }
  - { offsetInCU: 0x3E5D9, offset: 0x3E5D9, size: 0x8, addend: 0x0, symName: __ZNSt3__121__unordered_map_equalINS_12basic_stringIcNS_11char_traitsIcEENS_9allocatorIcEEEENS_17__hash_value_typeIS6_P9Temp_tempEENS_8equal_toIS6_EENS_4hashIS6_EELb1EEC2B7v160006Ev, symObjAddr: 0xFB68, symBinAddr: 0x100012160, symSize: 0x14 }
  - { offsetInCU: 0x3E602, offset: 0x3E602, size: 0x8, addend: 0x0, symName: __ZNSt3__113unordered_mapINS_12basic_stringIcNS_11char_traitsIcEENS_9allocatorIcEEEEP9Temp_tempNS_4hashIS6_EENS_8equal_toIS6_EENS4_INS_4pairIKS6_S8_EEEEED2B7v160006Ev, symObjAddr: 0xFB7C, symBinAddr: 0x100012174, symSize: 0x2C }
  - { offsetInCU: 0x3E62B, offset: 0x3E62B, size: 0x8, addend: 0x0, symName: __ZNSt3__112__hash_tableINS_17__hash_value_typeINS_12basic_stringIcNS_11char_traitsIcEENS_9allocatorIcEEEEP9Temp_tempEENS_22__unordered_map_hasherIS7_SA_NS_4hashIS7_EENS_8equal_toIS7_EELb1EEENS_21__unordered_map_equalIS7_SA_SF_SD_Lb1EEENS5_ISA_EEED1Ev, symObjAddr: 0xFBA8, symBinAddr: 0x1000121A0, symSize: 0x2C }
  - { offsetInCU: 0x3E656, offset: 0x3E656, size: 0x8, addend: 0x0, symName: __ZNSt3__112__hash_tableINS_17__hash_value_typeINS_12basic_stringIcNS_11char_traitsIcEENS_9allocatorIcEEEEP9Temp_tempEENS_22__unordered_map_hasherIS7_SA_NS_4hashIS7_EENS_8equal_toIS7_EELb1EEENS_21__unordered_map_equalIS7_SA_SF_SD_Lb1EEENS5_ISA_EEED2Ev, symObjAddr: 0xFBD4, symBinAddr: 0x1000121CC, symSize: 0x58 }
  - { offsetInCU: 0x3E680, offset: 0x3E680, size: 0x8, addend: 0x0, symName: __ZNSt3__112__hash_tableINS_17__hash_value_typeINS_12basic_stringIcNS_11char_traitsIcEENS_9allocatorIcEEEEP9Temp_tempEENS_22__unordered_map_hasherIS7_SA_NS_4hashIS7_EENS_8equal_toIS7_EELb1EEENS_21__unordered_map_equalIS7_SA_SF_SD_Lb1EEENS5_ISA_EEE17__deallocate_nodeEPNS_16__hash_node_baseIPNS_11__hash_nodeISA_PvEEEE, symObjAddr: 0xFC2C, symBinAddr: 0x100012224, symSize: 0xA8 }
  - { offsetInCU: 0x3E6EA, offset: 0x3E6EA, size: 0x8, addend: 0x0, symName: __ZNSt3__117__compressed_pairINS_16__hash_node_baseIPNS_11__hash_nodeINS_17__hash_value_typeINS_12basic_stringIcNS_11char_traitsIcEENS_9allocatorIcEEEEP9Temp_tempEEPvEEEENS7_ISE_EEE5firstB7v160006Ev, symObjAddr: 0xFCD4, symBinAddr: 0x1000122CC, symSize: 0x24 }
  - { offsetInCU: 0x3E70F, offset: 0x3E70F, size: 0x8, addend: 0x0, symName: __ZNSt3__110unique_ptrIA_PNS_16__hash_node_baseIPNS_11__hash_nodeINS_17__hash_value_typeINS_12basic_stringIcNS_11char_traitsIcEENS_9allocatorIcEEEEP9Temp_tempEEPvEEEENS_25__bucket_list_deallocatorINS7_ISH_EEEEED1B7v160006Ev, symObjAddr: 0xFD08, symBinAddr: 0x100012300, symSize: 0x2C }
  - { offsetInCU: 0x3E738, offset: 0x3E738, size: 0x8, addend: 0x0, symName: __ZNSt3__112__hash_tableINS_17__hash_value_typeINS_12basic_stringIcNS_11char_traitsIcEENS_9allocatorIcEEEEP9Temp_tempEENS_22__unordered_map_hasherIS7_SA_NS_4hashIS7_EENS_8equal_toIS7_EELb1EEENS_21__unordered_map_equalIS7_SA_SF_SD_Lb1EEENS5_ISA_EEE12__node_allocB7v160006Ev, symObjAddr: 0xFD34, symBinAddr: 0x10001232C, symSize: 0x28 }
  - { offsetInCU: 0x3E75D, offset: 0x3E75D, size: 0x8, addend: 0x0, symName: __ZNSt3__116__hash_node_baseIPNS_11__hash_nodeINS_17__hash_value_typeINS_12basic_stringIcNS_11char_traitsIcEENS_9allocatorIcEEEEP9Temp_tempEEPvEEE8__upcastB7v160006Ev, symObjAddr: 0xFD5C, symBinAddr: 0x100012354, symSize: 0x24 }
  - { offsetInCU: 0x3E782, offset: 0x3E782, size: 0x8, addend: 0x0, symName: __ZNSt3__116allocator_traitsINS_9allocatorINS_11__hash_nodeINS_17__hash_value_typeINS_12basic_stringIcNS_11char_traitsIcEENS1_IcEEEEP9Temp_tempEEPvEEEEE7destroyB7v160006INS_4pairIKS8_SA_EEvvEEvRSE_PT_, symObjAddr: 0xFD80, symBinAddr: 0x100012378, symSize: 0x28 }
  - { offsetInCU: 0x3E7BC, offset: 0x3E7BC, size: 0x8, addend: 0x0, symName: __ZNSt3__122__hash_key_value_typesINS_17__hash_value_typeINS_12basic_stringIcNS_11char_traitsIcEENS_9allocatorIcEEEEP9Temp_tempEEE9__get_ptrB7v160006ERSA_, symObjAddr: 0xFDA8, symBinAddr: 0x1000123A0, symSize: 0x24 }
  - { offsetInCU: 0x3E7DF, offset: 0x3E7DF, size: 0x8, addend: 0x0, symName: __ZNSt3__116allocator_traitsINS_9allocatorINS_11__hash_nodeINS_17__hash_value_typeINS_12basic_stringIcNS_11char_traitsIcEENS1_IcEEEEP9Temp_tempEEPvEEEEE10deallocateB7v160006ERSE_PSD_m, symObjAddr: 0xFDCC, symBinAddr: 0x1000123C4, symSize: 0x34 }
  - { offsetInCU: 0x3E821, offset: 0x3E821, size: 0x8, addend: 0x0, symName: __ZNSt3__117__compressed_pairINS_16__hash_node_baseIPNS_11__hash_nodeINS_17__hash_value_typeINS_12basic_stringIcNS_11char_traitsIcEENS_9allocatorIcEEEEP9Temp_tempEEPvEEEENS7_ISE_EEE6secondB7v160006Ev, symObjAddr: 0xFE00, symBinAddr: 0x1000123F8, symSize: 0x24 }
  - { offsetInCU: 0x3E846, offset: 0x3E846, size: 0x8, addend: 0x0, symName: __ZNSt3__122__compressed_pair_elemINS_9allocatorINS_11__hash_nodeINS_17__hash_value_typeINS_12basic_stringIcNS_11char_traitsIcEENS1_IcEEEEP9Temp_tempEEPvEEEELi1ELb1EE5__getB7v160006Ev, symObjAddr: 0xFE24, symBinAddr: 0x10001241C, symSize: 0x14 }
  - { offsetInCU: 0x3E86B, offset: 0x3E86B, size: 0x8, addend: 0x0, symName: __ZNSt3__114pointer_traitsIPNS_16__hash_node_baseIPNS_11__hash_nodeINS_17__hash_value_typeINS_12basic_stringIcNS_11char_traitsIcEENS_9allocatorIcEEEEP9Temp_tempEEPvEEEEE10pointer_toB7v160006ERSG_, symObjAddr: 0xFE38, symBinAddr: 0x100012430, symSize: 0x14 }
  - { offsetInCU: 0x3E88E, offset: 0x3E88E, size: 0x8, addend: 0x0, symName: __ZNSt3__14pairIKNS_12basic_stringIcNS_11char_traitsIcEENS_9allocatorIcEEEEP9Temp_tempED1Ev, symObjAddr: 0xFE4C, symBinAddr: 0x100012444, symSize: 0x2C }
  - { offsetInCU: 0x3E8B9, offset: 0x3E8B9, size: 0x8, addend: 0x0, symName: __ZNSt3__14pairIKNS_12basic_stringIcNS_11char_traitsIcEENS_9allocatorIcEEEEP9Temp_tempED2Ev, symObjAddr: 0xFE78, symBinAddr: 0x100012470, symSize: 0x2C }
  - { offsetInCU: 0x3E8E4, offset: 0x3E8E4, size: 0x8, addend: 0x0, symName: __ZNSt3__117__hash_value_typeINS_12basic_stringIcNS_11char_traitsIcEENS_9allocatorIcEEEEP9Temp_tempE11__get_valueB7v160006Ev, symObjAddr: 0xFEA4, symBinAddr: 0x10001249C, symSize: 0x24 }
  - { offsetInCU: 0x3E909, offset: 0x3E909, size: 0x8, addend: 0x0, symName: __ZNSt3__19allocatorINS_11__hash_nodeINS_17__hash_value_typeINS_12basic_stringIcNS_11char_traitsIcEENS0_IcEEEEP9Temp_tempEEPvEEE10deallocateB7v160006EPSC_m, symObjAddr: 0xFF00, symBinAddr: 0x1000124F8, symSize: 0x44 }
  - { offsetInCU: 0x3E94A, offset: 0x3E94A, size: 0x8, addend: 0x0, symName: __ZNSt3__122__compressed_pair_elemINS_16__hash_node_baseIPNS_11__hash_nodeINS_17__hash_value_typeINS_12basic_stringIcNS_11char_traitsIcEENS_9allocatorIcEEEEP9Temp_tempEEPvEEEELi0ELb0EE5__getB7v160006Ev, symObjAddr: 0xFF44, symBinAddr: 0x10001253C, symSize: 0x14 }
  - { offsetInCU: 0x3E96F, offset: 0x3E96F, size: 0x8, addend: 0x0, symName: __ZNSt3__110unique_ptrIA_PNS_16__hash_node_baseIPNS_11__hash_nodeINS_17__hash_value_typeINS_12basic_stringIcNS_11char_traitsIcEENS_9allocatorIcEEEEP9Temp_tempEEPvEEEENS_25__bucket_list_deallocatorINS7_ISH_EEEEED2B7v160006Ev, symObjAddr: 0xFF58, symBinAddr: 0x100012550, symSize: 0x30 }
  - { offsetInCU: 0x3E998, offset: 0x3E998, size: 0x8, addend: 0x0, symName: __ZNSt3__110unique_ptrIA_PNS_16__hash_node_baseIPNS_11__hash_nodeINS_17__hash_value_typeINS_12basic_stringIcNS_11char_traitsIcEENS_9allocatorIcEEEEP9Temp_tempEEPvEEEENS_25__bucket_list_deallocatorINS7_ISH_EEEEE5resetB7v160006EDn, symObjAddr: 0xFF88, symBinAddr: 0x100012580, symSize: 0x6C }
  - { offsetInCU: 0x3E9D7, offset: 0x3E9D7, size: 0x8, addend: 0x0, symName: __ZNSt3__117__compressed_pairIPPNS_16__hash_node_baseIPNS_11__hash_nodeINS_17__hash_value_typeINS_12basic_stringIcNS_11char_traitsIcEENS_9allocatorIcEEEEP9Temp_tempEEPvEEEENS_25__bucket_list_deallocatorINS7_ISH_EEEEE5firstB7v160006Ev, symObjAddr: 0xFFF4, symBinAddr: 0x1000125EC, symSize: 0x24 }
  - { offsetInCU: 0x3E9FC, offset: 0x3E9FC, size: 0x8, addend: 0x0, symName: __ZNSt3__117__compressed_pairIPPNS_16__hash_node_baseIPNS_11__hash_nodeINS_17__hash_value_typeINS_12basic_stringIcNS_11char_traitsIcEENS_9allocatorIcEEEEP9Temp_tempEEPvEEEENS_25__bucket_list_deallocatorINS7_ISH_EEEEE6secondB7v160006Ev, symObjAddr: 0x10018, symBinAddr: 0x100012610, symSize: 0x28 }
  - { offsetInCU: 0x3EA21, offset: 0x3EA21, size: 0x8, addend: 0x0, symName: __ZNSt3__125__bucket_list_deallocatorINS_9allocatorIPNS_16__hash_node_baseIPNS_11__hash_nodeINS_17__hash_value_typeINS_12basic_stringIcNS_11char_traitsIcEENS1_IcEEEEP9Temp_tempEEPvEEEEEEEclB7v160006EPSH_, symObjAddr: 0x10040, symBinAddr: 0x100012638, symSize: 0x58 }
  - { offsetInCU: 0x3EA55, offset: 0x3EA55, size: 0x8, addend: 0x0, symName: __ZNSt3__122__compressed_pair_elemIPPNS_16__hash_node_baseIPNS_11__hash_nodeINS_17__hash_value_typeINS_12basic_stringIcNS_11char_traitsIcEENS_9allocatorIcEEEEP9Temp_tempEEPvEEEELi0ELb0EE5__getB7v160006Ev, symObjAddr: 0x10098, symBinAddr: 0x100012690, symSize: 0x14 }
  - { offsetInCU: 0x3EA7A, offset: 0x3EA7A, size: 0x8, addend: 0x0, symName: __ZNSt3__122__compressed_pair_elemINS_25__bucket_list_deallocatorINS_9allocatorIPNS_16__hash_node_baseIPNS_11__hash_nodeINS_17__hash_value_typeINS_12basic_stringIcNS_11char_traitsIcEENS2_IcEEEEP9Temp_tempEEPvEEEEEEEELi1ELb0EE5__getB7v160006Ev, symObjAddr: 0x100AC, symBinAddr: 0x1000126A4, symSize: 0x14 }
  - { offsetInCU: 0x3EA9F, offset: 0x3EA9F, size: 0x8, addend: 0x0, symName: __ZNSt3__116allocator_traitsINS_9allocatorIPNS_16__hash_node_baseIPNS_11__hash_nodeINS_17__hash_value_typeINS_12basic_stringIcNS_11char_traitsIcEENS1_IcEEEEP9Temp_tempEEPvEEEEEEE10deallocateB7v160006ERSI_PSH_m, symObjAddr: 0x100C0, symBinAddr: 0x1000126B8, symSize: 0x34 }
  - { offsetInCU: 0x3EAE1, offset: 0x3EAE1, size: 0x8, addend: 0x0, symName: __ZNSt3__125__bucket_list_deallocatorINS_9allocatorIPNS_16__hash_node_baseIPNS_11__hash_nodeINS_17__hash_value_typeINS_12basic_stringIcNS_11char_traitsIcEENS1_IcEEEEP9Temp_tempEEPvEEEEEEE7__allocB7v160006Ev, symObjAddr: 0x100F4, symBinAddr: 0x1000126EC, symSize: 0x24 }
  - { offsetInCU: 0x3EB06, offset: 0x3EB06, size: 0x8, addend: 0x0, symName: __ZNSt3__125__bucket_list_deallocatorINS_9allocatorIPNS_16__hash_node_baseIPNS_11__hash_nodeINS_17__hash_value_typeINS_12basic_stringIcNS_11char_traitsIcEENS1_IcEEEEP9Temp_tempEEPvEEEEEEE4sizeB7v160006Ev, symObjAddr: 0x10118, symBinAddr: 0x100012710, symSize: 0x24 }
  - { offsetInCU: 0x3EB2B, offset: 0x3EB2B, size: 0x8, addend: 0x0, symName: __ZNSt3__19allocatorIPNS_16__hash_node_baseIPNS_11__hash_nodeINS_17__hash_value_typeINS_12basic_stringIcNS_11char_traitsIcEENS0_IcEEEEP9Temp_tempEEPvEEEEE10deallocateB7v160006EPSG_m, symObjAddr: 0x1013C, symBinAddr: 0x100012734, symSize: 0x40 }
  - { offsetInCU: 0x3EB6C, offset: 0x3EB6C, size: 0x8, addend: 0x0, symName: __ZNSt3__117__compressed_pairImNS_9allocatorIPNS_16__hash_node_baseIPNS_11__hash_nodeINS_17__hash_value_typeINS_12basic_stringIcNS_11char_traitsIcEENS1_IcEEEEP9Temp_tempEEPvEEEEEEE6secondB7v160006Ev, symObjAddr: 0x1017C, symBinAddr: 0x100012774, symSize: 0x24 }
  - { offsetInCU: 0x3EB91, offset: 0x3EB91, size: 0x8, addend: 0x0, symName: __ZNSt3__122__compressed_pair_elemINS_9allocatorIPNS_16__hash_node_baseIPNS_11__hash_nodeINS_17__hash_value_typeINS_12basic_stringIcNS_11char_traitsIcEENS1_IcEEEEP9Temp_tempEEPvEEEEEELi1ELb1EE5__getB7v160006Ev, symObjAddr: 0x101A0, symBinAddr: 0x100012798, symSize: 0x14 }
  - { offsetInCU: 0x3EBB6, offset: 0x3EBB6, size: 0x8, addend: 0x0, symName: __ZNSt3__117__compressed_pairImNS_9allocatorIPNS_16__hash_node_baseIPNS_11__hash_nodeINS_17__hash_value_typeINS_12basic_stringIcNS_11char_traitsIcEENS1_IcEEEEP9Temp_tempEEPvEEEEEEE5firstB7v160006Ev, symObjAddr: 0x101B4, symBinAddr: 0x1000127AC, symSize: 0x24 }
  - { offsetInCU: 0x3EBDB, offset: 0x3EBDB, size: 0x8, addend: 0x0, symName: __ZNSt3__14listIPN6LLVMIR5L_stmENS_9allocatorIS3_EEEC2B7v160006Ev, symObjAddr: 0x101D8, symBinAddr: 0x1000127D0, symSize: 0x34 }
  - { offsetInCU: 0x3EC04, offset: 0x3EC04, size: 0x8, addend: 0x0, symName: __ZNSt3__110__list_impIPN6LLVMIR5L_stmENS_9allocatorIS3_EEEC2Ev, symObjAddr: 0x1020C, symBinAddr: 0x100012804, symSize: 0x50 }
  - { offsetInCU: 0x3EC2F, offset: 0x3EC2F, size: 0x8, addend: 0x0, symName: __ZNSt3__117__compressed_pairImNS_9allocatorINS_11__list_nodeIPN6LLVMIR5L_stmEPvEEEEEC1B7v160006IiNS_18__default_init_tagEEEOT_OT0_, symObjAddr: 0x1025C, symBinAddr: 0x100012854, symSize: 0x3C }
  - { offsetInCU: 0x3EC86, offset: 0x3EC86, size: 0x8, addend: 0x0, symName: __ZNSt3__117__compressed_pairImNS_9allocatorINS_11__list_nodeIPN6LLVMIR5L_stmEPvEEEEEC2B7v160006IiNS_18__default_init_tagEEEOT_OT0_, symObjAddr: 0x10298, symBinAddr: 0x100012890, symSize: 0x40 }
  - { offsetInCU: 0x3ECDD, offset: 0x3ECDD, size: 0x8, addend: 0x0, symName: __ZNSt3__122__compressed_pair_elemINS_9allocatorINS_11__list_nodeIPN6LLVMIR5L_stmEPvEEEELi1ELb1EEC2B7v160006ENS_18__default_init_tagE, symObjAddr: 0x102D8, symBinAddr: 0x1000128D0, symSize: 0x2C }
  - { offsetInCU: 0x3ED10, offset: 0x3ED10, size: 0x8, addend: 0x0, symName: __ZNSt3__19allocatorINS_11__list_nodeIPN6LLVMIR5L_stmEPvEEEC2B7v160006Ev, symObjAddr: 0x10304, symBinAddr: 0x1000128FC, symSize: 0x2C }
  - { offsetInCU: 0x3ED39, offset: 0x3ED39, size: 0x8, addend: 0x0, symName: __ZNSt3__116__non_trivial_ifILb1ENS_9allocatorINS_11__list_nodeIPN6LLVMIR5L_stmEPvEEEEEC2B7v160006Ev, symObjAddr: 0x10330, symBinAddr: 0x100012928, symSize: 0x14 }
  - { offsetInCU: 0x3ED62, offset: 0x3ED62, size: 0x8, addend: 0x0, symName: __ZNSt3__16vectorIPN6LLVMIR5L_defENS_9allocatorIS3_EEED2B7v160006Ev, symObjAddr: 0x10344, symBinAddr: 0x10001293C, symSize: 0x44 }
  - { offsetInCU: 0x3ED8B, offset: 0x3ED8B, size: 0x8, addend: 0x0, symName: __ZNSt3__16vectorIPN6LLVMIR5L_defENS_9allocatorIS3_EEE16__destroy_vectorC1ERS6_, symObjAddr: 0x10388, symBinAddr: 0x100012980, symSize: 0x34 }
  - { offsetInCU: 0x3EDC3, offset: 0x3EDC3, size: 0x8, addend: 0x0, symName: __ZNSt3__16vectorIPN6LLVMIR5L_defENS_9allocatorIS3_EEE16__destroy_vectorclB7v160006Ev, symObjAddr: 0x103BC, symBinAddr: 0x1000129B4, symSize: 0x9C }
  - { offsetInCU: 0x3EDE8, offset: 0x3EDE8, size: 0x8, addend: 0x0, symName: __ZNSt3__16vectorIPN6LLVMIR5L_defENS_9allocatorIS3_EEE16__destroy_vectorC2ERS6_, symObjAddr: 0x10458, symBinAddr: 0x100012A50, symSize: 0x20 }
  - { offsetInCU: 0x3EE20, offset: 0x3EE20, size: 0x8, addend: 0x0, symName: __ZNKSt3__16vectorIPN6LLVMIR5L_defENS_9allocatorIS3_EEE17__annotate_deleteB7v160006Ev, symObjAddr: 0x10478, symBinAddr: 0x100012A70, symSize: 0xB8 }
  - { offsetInCU: 0x3EE45, offset: 0x3EE45, size: 0x8, addend: 0x0, symName: __ZNSt3__16vectorIPN6LLVMIR5L_defENS_9allocatorIS3_EEE7__clearB7v160006Ev, symObjAddr: 0x10540, symBinAddr: 0x100012B38, symSize: 0x28 }
  - { offsetInCU: 0x3EE6A, offset: 0x3EE6A, size: 0x8, addend: 0x0, symName: __ZNSt3__116allocator_traitsINS_9allocatorIPN6LLVMIR5L_defEEEE10deallocateB7v160006ERS5_PS4_m, symObjAddr: 0x10568, symBinAddr: 0x100012B60, symSize: 0x34 }
  - { offsetInCU: 0x3EEAC, offset: 0x3EEAC, size: 0x8, addend: 0x0, symName: __ZNSt3__16vectorIPN6LLVMIR5L_defENS_9allocatorIS3_EEE7__allocB7v160006Ev, symObjAddr: 0x1059C, symBinAddr: 0x100012B94, symSize: 0x28 }
  - { offsetInCU: 0x3EED1, offset: 0x3EED1, size: 0x8, addend: 0x0, symName: __ZNKSt3__16vectorIPN6LLVMIR5L_defENS_9allocatorIS3_EEE8capacityB7v160006Ev, symObjAddr: 0x105C4, symBinAddr: 0x100012BBC, symSize: 0x40 }
  - { offsetInCU: 0x3EEF6, offset: 0x3EEF6, size: 0x8, addend: 0x0, symName: __ZNKSt3__16vectorIPN6LLVMIR5L_defENS_9allocatorIS3_EEE31__annotate_contiguous_containerB7v160006EPKvS8_S8_S8_, symObjAddr: 0x10604, symBinAddr: 0x100012BFC, symSize: 0x20 }
  - { offsetInCU: 0x3EF47, offset: 0x3EF47, size: 0x8, addend: 0x0, symName: __ZNKSt3__16vectorIPN6LLVMIR5L_defENS_9allocatorIS3_EEE4dataB7v160006Ev, symObjAddr: 0x10624, symBinAddr: 0x100012C1C, symSize: 0x28 }
  - { offsetInCU: 0x3EF6C, offset: 0x3EF6C, size: 0x8, addend: 0x0, symName: __ZNKSt3__16vectorIPN6LLVMIR5L_defENS_9allocatorIS3_EEE4sizeB7v160006Ev, symObjAddr: 0x1064C, symBinAddr: 0x100012C44, symSize: 0x28 }
  - { offsetInCU: 0x3EF91, offset: 0x3EF91, size: 0x8, addend: 0x0, symName: __ZNSt3__16vectorIPN6LLVMIR5L_defENS_9allocatorIS3_EEE22__base_destruct_at_endB7v160006EPS3_, symObjAddr: 0x10688, symBinAddr: 0x100012C80, symSize: 0x8C }
  - { offsetInCU: 0x3EFD4, offset: 0x3EFD4, size: 0x8, addend: 0x0, symName: __ZNSt3__116allocator_traitsINS_9allocatorIPN6LLVMIR5L_defEEEE7destroyB7v160006IS4_vEEvRS5_PT_, symObjAddr: 0x10714, symBinAddr: 0x100012D0C, symSize: 0x2C }
  - { offsetInCU: 0x3F011, offset: 0x3F011, size: 0x8, addend: 0x0, symName: __ZNSt3__19allocatorIPN6LLVMIR5L_defEE7destroyB7v160006EPS3_, symObjAddr: 0x10740, symBinAddr: 0x100012D38, symSize: 0x14 }
  - { offsetInCU: 0x3F044, offset: 0x3F044, size: 0x8, addend: 0x0, symName: __ZNSt3__19allocatorIPN6LLVMIR5L_defEE10deallocateB7v160006EPS3_m, symObjAddr: 0x10754, symBinAddr: 0x100012D4C, symSize: 0x40 }
  - { offsetInCU: 0x3F085, offset: 0x3F085, size: 0x8, addend: 0x0, symName: __ZNSt3__117__compressed_pairIPPN6LLVMIR5L_defENS_9allocatorIS3_EEE6secondB7v160006Ev, symObjAddr: 0x10794, symBinAddr: 0x100012D8C, symSize: 0x24 }
  - { offsetInCU: 0x3F0AA, offset: 0x3F0AA, size: 0x8, addend: 0x0, symName: __ZNSt3__122__compressed_pair_elemINS_9allocatorIPN6LLVMIR5L_defEEELi1ELb1EE5__getB7v160006Ev, symObjAddr: 0x107B8, symBinAddr: 0x100012DB0, symSize: 0x14 }
  - { offsetInCU: 0x3F0CF, offset: 0x3F0CF, size: 0x8, addend: 0x0, symName: __ZNKSt3__16vectorIPN6LLVMIR5L_defENS_9allocatorIS3_EEE9__end_capB7v160006Ev, symObjAddr: 0x107CC, symBinAddr: 0x100012DC4, symSize: 0x28 }
  - { offsetInCU: 0x3F0F4, offset: 0x3F0F4, size: 0x8, addend: 0x0, symName: __ZNKSt3__117__compressed_pairIPPN6LLVMIR5L_defENS_9allocatorIS3_EEE5firstB7v160006Ev, symObjAddr: 0x107F4, symBinAddr: 0x100012DEC, symSize: 0x24 }
  - { offsetInCU: 0x3F119, offset: 0x3F119, size: 0x8, addend: 0x0, symName: __ZNKSt3__122__compressed_pair_elemIPPN6LLVMIR5L_defELi0ELb0EE5__getB7v160006Ev, symObjAddr: 0x10818, symBinAddr: 0x100012E10, symSize: 0x14 }
  - { offsetInCU: 0x3F13E, offset: 0x3F13E, size: 0x8, addend: 0x0, symName: __ZNSt3__16vectorIP10Func_localNS_9allocatorIS2_EEED2B7v160006Ev, symObjAddr: 0x1082C, symBinAddr: 0x100012E24, symSize: 0x44 }
  - { offsetInCU: 0x3F167, offset: 0x3F167, size: 0x8, addend: 0x0, symName: __ZNSt3__16vectorIP10Func_localNS_9allocatorIS2_EEE16__destroy_vectorC1ERS5_, symObjAddr: 0x10870, symBinAddr: 0x100012E68, symSize: 0x34 }
  - { offsetInCU: 0x3F19F, offset: 0x3F19F, size: 0x8, addend: 0x0, symName: __ZNSt3__16vectorIP10Func_localNS_9allocatorIS2_EEE16__destroy_vectorclB7v160006Ev, symObjAddr: 0x108A4, symBinAddr: 0x100012E9C, symSize: 0x9C }
  - { offsetInCU: 0x3F1C4, offset: 0x3F1C4, size: 0x8, addend: 0x0, symName: __ZNSt3__16vectorIP10Func_localNS_9allocatorIS2_EEE16__destroy_vectorC2ERS5_, symObjAddr: 0x10940, symBinAddr: 0x100012F38, symSize: 0x20 }
  - { offsetInCU: 0x3F1FC, offset: 0x3F1FC, size: 0x8, addend: 0x0, symName: __ZNKSt3__16vectorIP10Func_localNS_9allocatorIS2_EEE17__annotate_deleteB7v160006Ev, symObjAddr: 0x10960, symBinAddr: 0x100012F58, symSize: 0xB8 }
  - { offsetInCU: 0x3F221, offset: 0x3F221, size: 0x8, addend: 0x0, symName: __ZNSt3__16vectorIP10Func_localNS_9allocatorIS2_EEE7__clearB7v160006Ev, symObjAddr: 0x10A28, symBinAddr: 0x100013020, symSize: 0x28 }
  - { offsetInCU: 0x3F246, offset: 0x3F246, size: 0x8, addend: 0x0, symName: __ZNSt3__116allocator_traitsINS_9allocatorIP10Func_localEEE10deallocateB7v160006ERS4_PS3_m, symObjAddr: 0x10A50, symBinAddr: 0x100013048, symSize: 0x34 }
  - { offsetInCU: 0x3F288, offset: 0x3F288, size: 0x8, addend: 0x0, symName: __ZNSt3__16vectorIP10Func_localNS_9allocatorIS2_EEE7__allocB7v160006Ev, symObjAddr: 0x10A84, symBinAddr: 0x10001307C, symSize: 0x28 }
  - { offsetInCU: 0x3F2AD, offset: 0x3F2AD, size: 0x8, addend: 0x0, symName: __ZNKSt3__16vectorIP10Func_localNS_9allocatorIS2_EEE8capacityB7v160006Ev, symObjAddr: 0x10AAC, symBinAddr: 0x1000130A4, symSize: 0x40 }
  - { offsetInCU: 0x3F2D2, offset: 0x3F2D2, size: 0x8, addend: 0x0, symName: __ZNKSt3__16vectorIP10Func_localNS_9allocatorIS2_EEE31__annotate_contiguous_containerB7v160006EPKvS7_S7_S7_, symObjAddr: 0x10AEC, symBinAddr: 0x1000130E4, symSize: 0x20 }
  - { offsetInCU: 0x3F323, offset: 0x3F323, size: 0x8, addend: 0x0, symName: __ZNKSt3__16vectorIP10Func_localNS_9allocatorIS2_EEE4dataB7v160006Ev, symObjAddr: 0x10B0C, symBinAddr: 0x100013104, symSize: 0x28 }
  - { offsetInCU: 0x3F348, offset: 0x3F348, size: 0x8, addend: 0x0, symName: __ZNKSt3__16vectorIP10Func_localNS_9allocatorIS2_EEE4sizeB7v160006Ev, symObjAddr: 0x10B34, symBinAddr: 0x10001312C, symSize: 0x28 }
  - { offsetInCU: 0x3F36D, offset: 0x3F36D, size: 0x8, addend: 0x0, symName: __ZNSt3__16vectorIP10Func_localNS_9allocatorIS2_EEE22__base_destruct_at_endB7v160006EPS2_, symObjAddr: 0x10B70, symBinAddr: 0x100013168, symSize: 0x8C }
  - { offsetInCU: 0x3F3B0, offset: 0x3F3B0, size: 0x8, addend: 0x0, symName: __ZNSt3__116allocator_traitsINS_9allocatorIP10Func_localEEE7destroyB7v160006IS3_vEEvRS4_PT_, symObjAddr: 0x10BFC, symBinAddr: 0x1000131F4, symSize: 0x2C }
  - { offsetInCU: 0x3F3ED, offset: 0x3F3ED, size: 0x8, addend: 0x0, symName: __ZNSt3__19allocatorIP10Func_localE7destroyB7v160006EPS2_, symObjAddr: 0x10C28, symBinAddr: 0x100013220, symSize: 0x14 }
  - { offsetInCU: 0x3F420, offset: 0x3F420, size: 0x8, addend: 0x0, symName: __ZNSt3__19allocatorIP10Func_localE10deallocateB7v160006EPS2_m, symObjAddr: 0x10C3C, symBinAddr: 0x100013234, symSize: 0x40 }
  - { offsetInCU: 0x3F461, offset: 0x3F461, size: 0x8, addend: 0x0, symName: __ZNSt3__117__compressed_pairIPP10Func_localNS_9allocatorIS2_EEE6secondB7v160006Ev, symObjAddr: 0x10C7C, symBinAddr: 0x100013274, symSize: 0x24 }
  - { offsetInCU: 0x3F486, offset: 0x3F486, size: 0x8, addend: 0x0, symName: __ZNSt3__122__compressed_pair_elemINS_9allocatorIP10Func_localEELi1ELb1EE5__getB7v160006Ev, symObjAddr: 0x10CA0, symBinAddr: 0x100013298, symSize: 0x14 }
  - { offsetInCU: 0x3F4AB, offset: 0x3F4AB, size: 0x8, addend: 0x0, symName: __ZNKSt3__16vectorIP10Func_localNS_9allocatorIS2_EEE9__end_capB7v160006Ev, symObjAddr: 0x10CB4, symBinAddr: 0x1000132AC, symSize: 0x28 }
  - { offsetInCU: 0x3F4D0, offset: 0x3F4D0, size: 0x8, addend: 0x0, symName: __ZNKSt3__117__compressed_pairIPP10Func_localNS_9allocatorIS2_EEE5firstB7v160006Ev, symObjAddr: 0x10CDC, symBinAddr: 0x1000132D4, symSize: 0x24 }
  - { offsetInCU: 0x3F4F5, offset: 0x3F4F5, size: 0x8, addend: 0x0, symName: __ZNKSt3__122__compressed_pair_elemIPP10Func_localLi0ELb0EE5__getB7v160006Ev, symObjAddr: 0x10D00, symBinAddr: 0x1000132F8, symSize: 0x14 }
  - { offsetInCU: 0x3F51A, offset: 0x3F51A, size: 0x8, addend: 0x0, symName: __ZNSt3__16vectorIPN6LLVMIR6L_funcENS_9allocatorIS3_EEEC2B7v160006Ev, symObjAddr: 0x10D14, symBinAddr: 0x10001330C, symSize: 0x58 }
  - { offsetInCU: 0x3F543, offset: 0x3F543, size: 0x8, addend: 0x0, symName: __ZNSt3__117__compressed_pairIPPN6LLVMIR6L_funcENS_9allocatorIS3_EEEC1B7v160006IDnNS_18__default_init_tagEEEOT_OT0_, symObjAddr: 0x10D6C, symBinAddr: 0x100013364, symSize: 0x3C }
  - { offsetInCU: 0x3F59A, offset: 0x3F59A, size: 0x8, addend: 0x0, symName: __ZNSt3__117__compressed_pairIPPN6LLVMIR6L_funcENS_9allocatorIS3_EEEC2B7v160006IDnNS_18__default_init_tagEEEOT_OT0_, symObjAddr: 0x10DB8, symBinAddr: 0x1000133B0, symSize: 0x40 }
  - { offsetInCU: 0x3F5F1, offset: 0x3F5F1, size: 0x8, addend: 0x0, symName: __ZNSt3__122__compressed_pair_elemIPPN6LLVMIR6L_funcELi0ELb0EEC2B7v160006IDnvEEOT_, symObjAddr: 0x10DF8, symBinAddr: 0x1000133F0, symSize: 0x1C }
  - { offsetInCU: 0x3F632, offset: 0x3F632, size: 0x8, addend: 0x0, symName: __ZNSt3__122__compressed_pair_elemINS_9allocatorIPN6LLVMIR6L_funcEEELi1ELb1EEC2B7v160006ENS_18__default_init_tagE, symObjAddr: 0x10E14, symBinAddr: 0x10001340C, symSize: 0x2C }
  - { offsetInCU: 0x3F665, offset: 0x3F665, size: 0x8, addend: 0x0, symName: __ZNSt3__19allocatorIPN6LLVMIR6L_funcEEC2B7v160006Ev, symObjAddr: 0x10E40, symBinAddr: 0x100013438, symSize: 0x2C }
  - { offsetInCU: 0x3F68E, offset: 0x3F68E, size: 0x8, addend: 0x0, symName: __ZNSt3__116__non_trivial_ifILb1ENS_9allocatorIPN6LLVMIR6L_funcEEEEC2B7v160006Ev, symObjAddr: 0x10E6C, symBinAddr: 0x100013464, symSize: 0x14 }
  - { offsetInCU: 0x3F6B7, offset: 0x3F6B7, size: 0x8, addend: 0x0, symName: __ZNSt3__16vectorIPN6LLVMIR6L_funcENS_9allocatorIS3_EEED2B7v160006Ev, symObjAddr: 0x10E80, symBinAddr: 0x100013478, symSize: 0x44 }
  - { offsetInCU: 0x3F6E0, offset: 0x3F6E0, size: 0x8, addend: 0x0, symName: __ZNSt3__16vectorIPN6LLVMIR6L_funcENS_9allocatorIS3_EEE16__destroy_vectorC1ERS6_, symObjAddr: 0x10EC4, symBinAddr: 0x1000134BC, symSize: 0x34 }
  - { offsetInCU: 0x3F718, offset: 0x3F718, size: 0x8, addend: 0x0, symName: __ZNSt3__16vectorIPN6LLVMIR6L_funcENS_9allocatorIS3_EEE16__destroy_vectorclB7v160006Ev, symObjAddr: 0x10EF8, symBinAddr: 0x1000134F0, symSize: 0x9C }
  - { offsetInCU: 0x3F73D, offset: 0x3F73D, size: 0x8, addend: 0x0, symName: __ZNSt3__16vectorIPN6LLVMIR6L_funcENS_9allocatorIS3_EEE16__destroy_vectorC2ERS6_, symObjAddr: 0x10F94, symBinAddr: 0x10001358C, symSize: 0x20 }
  - { offsetInCU: 0x3F775, offset: 0x3F775, size: 0x8, addend: 0x0, symName: __ZNKSt3__16vectorIPN6LLVMIR6L_funcENS_9allocatorIS3_EEE17__annotate_deleteB7v160006Ev, symObjAddr: 0x10FB4, symBinAddr: 0x1000135AC, symSize: 0xB8 }
  - { offsetInCU: 0x3F79A, offset: 0x3F79A, size: 0x8, addend: 0x0, symName: __ZNSt3__16vectorIPN6LLVMIR6L_funcENS_9allocatorIS3_EEE7__clearB7v160006Ev, symObjAddr: 0x1107C, symBinAddr: 0x100013674, symSize: 0x28 }
  - { offsetInCU: 0x3F7BF, offset: 0x3F7BF, size: 0x8, addend: 0x0, symName: __ZNSt3__116allocator_traitsINS_9allocatorIPN6LLVMIR6L_funcEEEE10deallocateB7v160006ERS5_PS4_m, symObjAddr: 0x110A4, symBinAddr: 0x10001369C, symSize: 0x34 }
  - { offsetInCU: 0x3F801, offset: 0x3F801, size: 0x8, addend: 0x0, symName: __ZNSt3__16vectorIPN6LLVMIR6L_funcENS_9allocatorIS3_EEE7__allocB7v160006Ev, symObjAddr: 0x110D8, symBinAddr: 0x1000136D0, symSize: 0x28 }
  - { offsetInCU: 0x3F826, offset: 0x3F826, size: 0x8, addend: 0x0, symName: __ZNKSt3__16vectorIPN6LLVMIR6L_funcENS_9allocatorIS3_EEE8capacityB7v160006Ev, symObjAddr: 0x11100, symBinAddr: 0x1000136F8, symSize: 0x40 }
  - { offsetInCU: 0x3F84B, offset: 0x3F84B, size: 0x8, addend: 0x0, symName: __ZNKSt3__16vectorIPN6LLVMIR6L_funcENS_9allocatorIS3_EEE31__annotate_contiguous_containerB7v160006EPKvS8_S8_S8_, symObjAddr: 0x11140, symBinAddr: 0x100013738, symSize: 0x20 }
  - { offsetInCU: 0x3F89C, offset: 0x3F89C, size: 0x8, addend: 0x0, symName: __ZNKSt3__16vectorIPN6LLVMIR6L_funcENS_9allocatorIS3_EEE4dataB7v160006Ev, symObjAddr: 0x11160, symBinAddr: 0x100013758, symSize: 0x28 }
  - { offsetInCU: 0x3F8C1, offset: 0x3F8C1, size: 0x8, addend: 0x0, symName: __ZNKSt3__16vectorIPN6LLVMIR6L_funcENS_9allocatorIS3_EEE4sizeB7v160006Ev, symObjAddr: 0x11188, symBinAddr: 0x100013780, symSize: 0x28 }
  - { offsetInCU: 0x3F8E6, offset: 0x3F8E6, size: 0x8, addend: 0x0, symName: __ZNSt3__16vectorIPN6LLVMIR6L_funcENS_9allocatorIS3_EEE22__base_destruct_at_endB7v160006EPS3_, symObjAddr: 0x111C4, symBinAddr: 0x1000137BC, symSize: 0x8C }
  - { offsetInCU: 0x3F929, offset: 0x3F929, size: 0x8, addend: 0x0, symName: __ZNSt3__116allocator_traitsINS_9allocatorIPN6LLVMIR6L_funcEEEE7destroyB7v160006IS4_vEEvRS5_PT_, symObjAddr: 0x11250, symBinAddr: 0x100013848, symSize: 0x2C }
  - { offsetInCU: 0x3F966, offset: 0x3F966, size: 0x8, addend: 0x0, symName: __ZNSt3__19allocatorIPN6LLVMIR6L_funcEE7destroyB7v160006EPS3_, symObjAddr: 0x1127C, symBinAddr: 0x100013874, symSize: 0x14 }
  - { offsetInCU: 0x3F999, offset: 0x3F999, size: 0x8, addend: 0x0, symName: __ZNSt3__19allocatorIPN6LLVMIR6L_funcEE10deallocateB7v160006EPS3_m, symObjAddr: 0x11290, symBinAddr: 0x100013888, symSize: 0x40 }
  - { offsetInCU: 0x3F9DA, offset: 0x3F9DA, size: 0x8, addend: 0x0, symName: __ZNSt3__117__compressed_pairIPPN6LLVMIR6L_funcENS_9allocatorIS3_EEE6secondB7v160006Ev, symObjAddr: 0x112D0, symBinAddr: 0x1000138C8, symSize: 0x24 }
  - { offsetInCU: 0x3F9FF, offset: 0x3F9FF, size: 0x8, addend: 0x0, symName: __ZNSt3__122__compressed_pair_elemINS_9allocatorIPN6LLVMIR6L_funcEEELi1ELb1EE5__getB7v160006Ev, symObjAddr: 0x112F4, symBinAddr: 0x1000138EC, symSize: 0x14 }
  - { offsetInCU: 0x3FA24, offset: 0x3FA24, size: 0x8, addend: 0x0, symName: __ZNKSt3__16vectorIPN6LLVMIR6L_funcENS_9allocatorIS3_EEE9__end_capB7v160006Ev, symObjAddr: 0x11308, symBinAddr: 0x100013900, symSize: 0x28 }
  - { offsetInCU: 0x3FA49, offset: 0x3FA49, size: 0x8, addend: 0x0, symName: __ZNKSt3__117__compressed_pairIPPN6LLVMIR6L_funcENS_9allocatorIS3_EEE5firstB7v160006Ev, symObjAddr: 0x11330, symBinAddr: 0x100013928, symSize: 0x24 }
  - { offsetInCU: 0x3FA6E, offset: 0x3FA6E, size: 0x8, addend: 0x0, symName: __ZNKSt3__122__compressed_pair_elemIPPN6LLVMIR6L_funcELi0ELb0EE5__getB7v160006Ev, symObjAddr: 0x11354, symBinAddr: 0x10001394C, symSize: 0x14 }
  - { offsetInCU: 0x3FA93, offset: 0x3FA93, size: 0x8, addend: 0x0, symName: __ZNSt3__16vectorIP10Func_localNS_9allocatorIS2_EEE11__make_iterB7v160006EPS2_, symObjAddr: 0x11368, symBinAddr: 0x100013960, symSize: 0x34 }
  - { offsetInCU: 0x3FAC7, offset: 0x3FAC7, size: 0x8, addend: 0x0, symName: __ZNSt3__111__wrap_iterIPP10Func_localEC1B7v160006EPKvS3_, symObjAddr: 0x1139C, symBinAddr: 0x100013994, symSize: 0x3C }
  - { offsetInCU: 0x3FB0C, offset: 0x3FB0C, size: 0x8, addend: 0x0, symName: __ZNSt3__111__wrap_iterIPP10Func_localEC2B7v160006EPKvS3_, symObjAddr: 0x113D8, symBinAddr: 0x1000139D0, symSize: 0x24 }
  - { offsetInCU: 0x3FB51, offset: 0x3FB51, size: 0x8, addend: 0x0, symName: __ZNSt3__16vectorIPN6LLVMIR6L_funcENS_9allocatorIS3_EEE9__end_capB7v160006Ev, symObjAddr: 0x113FC, symBinAddr: 0x1000139F4, symSize: 0x28 }
  - { offsetInCU: 0x3FB7B, offset: 0x3FB7B, size: 0x8, addend: 0x0, symName: __ZNSt3__16vectorIPN6LLVMIR6L_funcENS_9allocatorIS3_EEE22__construct_one_at_endB7v160006IJS3_EEEvDpOT_, symObjAddr: 0x11424, symBinAddr: 0x100013A1C, symSize: 0x90 }
  - { offsetInCU: 0x3FBC8, offset: 0x3FBC8, size: 0x8, addend: 0x0, symName: __ZNSt3__16vectorIPN6LLVMIR6L_funcENS_9allocatorIS3_EEE21__push_back_slow_pathIS3_EEvOT_, symObjAddr: 0x114B4, symBinAddr: 0x100013AAC, symSize: 0xD8 }
  - { offsetInCU: 0x3FC25, offset: 0x3FC25, size: 0x8, addend: 0x0, symName: __ZNSt3__117__compressed_pairIPPN6LLVMIR6L_funcENS_9allocatorIS3_EEE5firstB7v160006Ev, symObjAddr: 0x1158C, symBinAddr: 0x100013B84, symSize: 0x24 }
  - { offsetInCU: 0x3FC4A, offset: 0x3FC4A, size: 0x8, addend: 0x0, symName: __ZNSt3__122__compressed_pair_elemIPPN6LLVMIR6L_funcELi0ELb0EE5__getB7v160006Ev, symObjAddr: 0x115B0, symBinAddr: 0x100013BA8, symSize: 0x14 }
  - { offsetInCU: 0x3FC88, offset: 0x3FC88, size: 0x8, addend: 0x0, symName: __ZNSt3__16vectorIPN6LLVMIR6L_funcENS_9allocatorIS3_EEE21_ConstructTransactionC1B7v160006ERS6_m, symObjAddr: 0x115C4, symBinAddr: 0x100013BBC, symSize: 0x3C }
  - { offsetInCU: 0x3FCCF, offset: 0x3FCCF, size: 0x8, addend: 0x0, symName: __ZNSt3__116allocator_traitsINS_9allocatorIPN6LLVMIR6L_funcEEEE9constructB7v160006IS4_JS4_EvEEvRS5_PT_DpOT0_, symObjAddr: 0x11600, symBinAddr: 0x100013BF8, symSize: 0x34 }
  - { offsetInCU: 0x3FD26, offset: 0x3FD26, size: 0x8, addend: 0x0, symName: __ZNSt3__16vectorIPN6LLVMIR6L_funcENS_9allocatorIS3_EEE21_ConstructTransactionD1B7v160006Ev, symObjAddr: 0x11634, symBinAddr: 0x100013C2C, symSize: 0x2C }
  - { offsetInCU: 0x3FD4F, offset: 0x3FD4F, size: 0x8, addend: 0x0, symName: __ZNSt3__16vectorIPN6LLVMIR6L_funcENS_9allocatorIS3_EEE21_ConstructTransactionC2B7v160006ERS6_m, symObjAddr: 0x11660, symBinAddr: 0x100013C58, symSize: 0x44 }
  - { offsetInCU: 0x3FD96, offset: 0x3FD96, size: 0x8, addend: 0x0, symName: __ZNSt3__19allocatorIPN6LLVMIR6L_funcEE9constructB7v160006IS3_JS3_EEEvPT_DpOT0_, symObjAddr: 0x116A4, symBinAddr: 0x100013C9C, symSize: 0x28 }
  - { offsetInCU: 0x3FDEB, offset: 0x3FDEB, size: 0x8, addend: 0x0, symName: __ZNSt3__16vectorIPN6LLVMIR6L_funcENS_9allocatorIS3_EEE21_ConstructTransactionD2B7v160006Ev, symObjAddr: 0x116CC, symBinAddr: 0x100013CC4, symSize: 0x20 }
  - { offsetInCU: 0x3FE13, offset: 0x3FE13, size: 0x8, addend: 0x0, symName: __ZNKSt3__16vectorIPN6LLVMIR6L_funcENS_9allocatorIS3_EEE11__recommendB7v160006Em, symObjAddr: 0x116EC, symBinAddr: 0x100013CE4, symSize: 0xB4 }
  - { offsetInCU: 0x3FE67, offset: 0x3FE67, size: 0x8, addend: 0x0, symName: __ZNSt3__114__split_bufferIPN6LLVMIR6L_funcERNS_9allocatorIS3_EEEC1EmmS6_, symObjAddr: 0x117A0, symBinAddr: 0x100013D98, symSize: 0x44 }
  - { offsetInCU: 0x3FEBC, offset: 0x3FEBC, size: 0x8, addend: 0x0, symName: __ZNSt3__114__split_bufferIPN6LLVMIR6L_funcERNS_9allocatorIS3_EEED1Ev, symObjAddr: 0x118FC, symBinAddr: 0x100013EF4, symSize: 0x2C }
  - { offsetInCU: 0x3FEE6, offset: 0x3FEE6, size: 0x8, addend: 0x0, symName: __ZNKSt3__16vectorIPN6LLVMIR6L_funcENS_9allocatorIS3_EEE8max_sizeEv, symObjAddr: 0x11928, symBinAddr: 0x100013F20, symSize: 0x60 }
  - { offsetInCU: 0x3FF0D, offset: 0x3FF0D, size: 0x8, addend: 0x0, symName: __ZNKSt3__16vectorIPN6LLVMIR6L_funcENS_9allocatorIS3_EEE20__throw_length_errorB7v160006Ev, symObjAddr: 0x11988, symBinAddr: 0x100013F80, symSize: 0x1C }
  - { offsetInCU: 0x3FF3C, offset: 0x3FF3C, size: 0x8, addend: 0x0, symName: __ZNSt3__116allocator_traitsINS_9allocatorIPN6LLVMIR6L_funcEEEE8max_sizeB7v160006IS5_vEEmRKS5_, symObjAddr: 0x119D0, symBinAddr: 0x100013FC8, symSize: 0x24 }
  - { offsetInCU: 0x3FF6A, offset: 0x3FF6A, size: 0x8, addend: 0x0, symName: __ZNKSt3__16vectorIPN6LLVMIR6L_funcENS_9allocatorIS3_EEE7__allocB7v160006Ev, symObjAddr: 0x119F4, symBinAddr: 0x100013FEC, symSize: 0x28 }
  - { offsetInCU: 0x3FF8F, offset: 0x3FF8F, size: 0x8, addend: 0x0, symName: __ZNKSt3__19allocatorIPN6LLVMIR6L_funcEE8max_sizeB7v160006Ev, symObjAddr: 0x11A1C, symBinAddr: 0x100014014, symSize: 0x14 }
  - { offsetInCU: 0x3FFB4, offset: 0x3FFB4, size: 0x8, addend: 0x0, symName: __ZNKSt3__117__compressed_pairIPPN6LLVMIR6L_funcENS_9allocatorIS3_EEE6secondB7v160006Ev, symObjAddr: 0x11A30, symBinAddr: 0x100014028, symSize: 0x24 }
  - { offsetInCU: 0x3FFD9, offset: 0x3FFD9, size: 0x8, addend: 0x0, symName: __ZNKSt3__122__compressed_pair_elemINS_9allocatorIPN6LLVMIR6L_funcEEELi1ELb1EE5__getB7v160006Ev, symObjAddr: 0x11A54, symBinAddr: 0x10001404C, symSize: 0x14 }
  - { offsetInCU: 0x3FFFE, offset: 0x3FFFE, size: 0x8, addend: 0x0, symName: __ZNSt3__114__split_bufferIPN6LLVMIR6L_funcERNS_9allocatorIS3_EEEC2EmmS6_, symObjAddr: 0x11ABC, symBinAddr: 0x1000140B4, symSize: 0xD4 }
  - { offsetInCU: 0x40070, offset: 0x40070, size: 0x8, addend: 0x0, symName: __ZNSt3__117__compressed_pairIPPN6LLVMIR6L_funcERNS_9allocatorIS3_EEEC1B7v160006IDnS7_EEOT_OT0_, symObjAddr: 0x11B90, symBinAddr: 0x100014188, symSize: 0x3C }
  - { offsetInCU: 0x400C7, offset: 0x400C7, size: 0x8, addend: 0x0, symName: __ZNSt3__114__split_bufferIPN6LLVMIR6L_funcERNS_9allocatorIS3_EEE7__allocB7v160006Ev, symObjAddr: 0x11C0C, symBinAddr: 0x100014204, symSize: 0x28 }
  - { offsetInCU: 0x400EC, offset: 0x400EC, size: 0x8, addend: 0x0, symName: __ZNSt3__114__split_bufferIPN6LLVMIR6L_funcERNS_9allocatorIS3_EEE9__end_capB7v160006Ev, symObjAddr: 0x11C34, symBinAddr: 0x10001422C, symSize: 0x28 }
  - { offsetInCU: 0x40111, offset: 0x40111, size: 0x8, addend: 0x0, symName: __ZNSt3__117__compressed_pairIPPN6LLVMIR6L_funcERNS_9allocatorIS3_EEEC2B7v160006IDnS7_EEOT_OT0_, symObjAddr: 0x11C5C, symBinAddr: 0x100014254, symSize: 0x48 }
  - { offsetInCU: 0x40168, offset: 0x40168, size: 0x8, addend: 0x0, symName: __ZNSt3__122__compressed_pair_elemIRNS_9allocatorIPN6LLVMIR6L_funcEEELi1ELb0EEC2B7v160006IS6_vEEOT_, symObjAddr: 0x11CA4, symBinAddr: 0x10001429C, symSize: 0x20 }
  - { offsetInCU: 0x401A9, offset: 0x401A9, size: 0x8, addend: 0x0, symName: __ZNSt3__19allocatorIPN6LLVMIR6L_funcEE8allocateB7v160006Em, symObjAddr: 0x11CC4, symBinAddr: 0x1000142BC, symSize: 0x58 }
  - { offsetInCU: 0x401DC, offset: 0x401DC, size: 0x8, addend: 0x0, symName: __ZNSt3__117__compressed_pairIPPN6LLVMIR6L_funcERNS_9allocatorIS3_EEE6secondB7v160006Ev, symObjAddr: 0x11D1C, symBinAddr: 0x100014314, symSize: 0x28 }
  - { offsetInCU: 0x40201, offset: 0x40201, size: 0x8, addend: 0x0, symName: __ZNSt3__122__compressed_pair_elemIRNS_9allocatorIPN6LLVMIR6L_funcEEELi1ELb0EE5__getB7v160006Ev, symObjAddr: 0x11D44, symBinAddr: 0x10001433C, symSize: 0x18 }
  - { offsetInCU: 0x40226, offset: 0x40226, size: 0x8, addend: 0x0, symName: __ZNSt3__117__compressed_pairIPPN6LLVMIR6L_funcERNS_9allocatorIS3_EEE5firstB7v160006Ev, symObjAddr: 0x11D5C, symBinAddr: 0x100014354, symSize: 0x24 }
  - { offsetInCU: 0x4024B, offset: 0x4024B, size: 0x8, addend: 0x0, symName: __ZNSt3__116reverse_iteratorIPPN6LLVMIR6L_funcEEC1B7v160006ES4_, symObjAddr: 0x11DF8, symBinAddr: 0x1000143F0, symSize: 0x34 }
  - { offsetInCU: 0x40282, offset: 0x40282, size: 0x8, addend: 0x0, symName: __ZNKSt3__116reverse_iteratorIPPN6LLVMIR6L_funcEE4baseB7v160006Ev, symObjAddr: 0x11E2C, symBinAddr: 0x100014424, symSize: 0x18 }
  - { offsetInCU: 0x402A7, offset: 0x402A7, size: 0x8, addend: 0x0, symName: __ZNKSt3__16vectorIPN6LLVMIR6L_funcENS_9allocatorIS3_EEE14__annotate_newB7v160006Em, symObjAddr: 0x11E80, symBinAddr: 0x100014478, symSize: 0xAC }
  - { offsetInCU: 0x402FE, offset: 0x402FE, size: 0x8, addend: 0x0, symName: __ZNKSt3__111__move_loopINS_17_ClassicAlgPolicyEEclB7v160006INS_16reverse_iteratorIPPN6LLVMIR6L_funcEEES9_S9_EENS_4pairIT_T1_EESB_T0_SC_, symObjAddr: 0x1222C, symBinAddr: 0x100014824, symSize: 0xA0 }
  - { offsetInCU: 0x40368, offset: 0x40368, size: 0x8, addend: 0x0, symName: __ZNSt3__18_IterOpsINS_17_ClassicAlgPolicyEE11__iter_moveB7v160006IRNS_16reverse_iteratorIPPN6LLVMIR6L_funcEEEEENS_9enable_ifIXsr12is_referenceIDTdeclsr3stdE7declvalIRT_EEEEE5valueEDTclsr3stdE4movedeclsr3stdE7declvalISD_EEEEE4typeEOSC_, symObjAddr: 0x12460, symBinAddr: 0x100014A58, symSize: 0x28 }
  - { offsetInCU: 0x40394, offset: 0x40394, size: 0x8, addend: 0x0, symName: __ZNKSt3__116reverse_iteratorIPPN6LLVMIR6L_funcEEdeB7v160006Ev, symObjAddr: 0x12488, symBinAddr: 0x100014A80, symSize: 0x28 }
  - { offsetInCU: 0x403C7, offset: 0x403C7, size: 0x8, addend: 0x0, symName: __ZNSt3__116reverse_iteratorIPPN6LLVMIR6L_funcEEppB7v160006Ev, symObjAddr: 0x124B0, symBinAddr: 0x100014AA8, symSize: 0x20 }
  - { offsetInCU: 0x403EC, offset: 0x403EC, size: 0x8, addend: 0x0, symName: __ZNSt3__18_IterOpsINS_17_ClassicAlgPolicyEE25__validate_iter_referenceB7v160006IRNS_16reverse_iteratorIPPN6LLVMIR6L_funcEEEEEvv, symObjAddr: 0x124D0, symBinAddr: 0x100014AC8, symSize: 0x4 }
  - { offsetInCU: 0x4040A, offset: 0x4040A, size: 0x8, addend: 0x0, symName: __ZNSt3__118__unwrap_iter_implINS_16reverse_iteratorIPPN6LLVMIR6L_funcEEELb0EE8__unwrapB7v160006ES6_, symObjAddr: 0x124D4, symBinAddr: 0x100014ACC, symSize: 0x24 }
  - { offsetInCU: 0x40432, offset: 0x40432, size: 0x8, addend: 0x0, symName: __ZNSt3__14pairINS_16reverse_iteratorIPPN6LLVMIR6L_funcEEES6_EC1B7v160006IS6_S6_LPv0EEEOT_OT0_, symObjAddr: 0x124F8, symBinAddr: 0x100014AF0, symSize: 0x3C }
  - { offsetInCU: 0x4048F, offset: 0x4048F, size: 0x8, addend: 0x0, symName: __ZNSt3__14pairINS_16reverse_iteratorIPPN6LLVMIR6L_funcEEES6_EC2B7v160006IS6_S6_LPv0EEEOT_OT0_, symObjAddr: 0x12534, symBinAddr: 0x100014B2C, symSize: 0x34 }
  - { offsetInCU: 0x404EC, offset: 0x404EC, size: 0x8, addend: 0x0, symName: __ZNSt3__118__unwrap_iter_implINS_16reverse_iteratorIPPN6LLVMIR6L_funcEEELb0EE8__rewrapB7v160006ES6_S6_, symObjAddr: 0x12568, symBinAddr: 0x100014B60, symSize: 0x2C }
  - { offsetInCU: 0x40519, offset: 0x40519, size: 0x8, addend: 0x0, symName: __ZNSt3__116reverse_iteratorIPPN6LLVMIR6L_funcEEC2B7v160006ES4_, symObjAddr: 0x12594, symBinAddr: 0x100014B8C, symSize: 0x28 }
  - { offsetInCU: 0x40550, offset: 0x40550, size: 0x8, addend: 0x0, symName: __ZNSt3__114__split_bufferIPN6LLVMIR6L_funcERNS_9allocatorIS3_EEED2Ev, symObjAddr: 0x125BC, symBinAddr: 0x100014BB4, symSize: 0x8C }
  - { offsetInCU: 0x4057B, offset: 0x4057B, size: 0x8, addend: 0x0, symName: __ZNSt3__114__split_bufferIPN6LLVMIR6L_funcERNS_9allocatorIS3_EEE5clearB7v160006Ev, symObjAddr: 0x12648, symBinAddr: 0x100014C40, symSize: 0x28 }
  - { offsetInCU: 0x405A0, offset: 0x405A0, size: 0x8, addend: 0x0, symName: __ZNKSt3__114__split_bufferIPN6LLVMIR6L_funcERNS_9allocatorIS3_EEE8capacityB7v160006Ev, symObjAddr: 0x12670, symBinAddr: 0x100014C68, symSize: 0x40 }
  - { offsetInCU: 0x405C5, offset: 0x405C5, size: 0x8, addend: 0x0, symName: __ZNSt3__114__split_bufferIPN6LLVMIR6L_funcERNS_9allocatorIS3_EEE17__destruct_at_endB7v160006EPS3_, symObjAddr: 0x126B0, symBinAddr: 0x100014CA8, symSize: 0x2C }
  - { offsetInCU: 0x405F7, offset: 0x405F7, size: 0x8, addend: 0x0, symName: __ZNSt3__114__split_bufferIPN6LLVMIR6L_funcERNS_9allocatorIS3_EEE17__destruct_at_endB7v160006EPS3_NS_17integral_constantIbLb0EEE, symObjAddr: 0x126DC, symBinAddr: 0x100014CD4, symSize: 0x80 }
  - { offsetInCU: 0x40636, offset: 0x40636, size: 0x8, addend: 0x0, symName: __ZNKSt3__114__split_bufferIPN6LLVMIR6L_funcERNS_9allocatorIS3_EEE9__end_capB7v160006Ev, symObjAddr: 0x1275C, symBinAddr: 0x100014D54, symSize: 0x28 }
  - { offsetInCU: 0x4065B, offset: 0x4065B, size: 0x8, addend: 0x0, symName: __ZNKSt3__117__compressed_pairIPPN6LLVMIR6L_funcERNS_9allocatorIS3_EEE5firstB7v160006Ev, symObjAddr: 0x12784, symBinAddr: 0x100014D7C, symSize: 0x24 }
  - { offsetInCU: 0x40680, offset: 0x40680, size: 0x8, addend: 0x0, symName: __ZNSt3__16vectorIPN6LLVMIR6L_funcENS_9allocatorIS3_EEE11__make_iterB7v160006EPS3_, symObjAddr: 0x127A8, symBinAddr: 0x100014DA0, symSize: 0x34 }
  - { offsetInCU: 0x406B4, offset: 0x406B4, size: 0x8, addend: 0x0, symName: __ZNSt3__111__wrap_iterIPPN6LLVMIR6L_funcEEC1B7v160006EPKvS4_, symObjAddr: 0x127DC, symBinAddr: 0x100014DD4, symSize: 0x3C }
  - { offsetInCU: 0x406F9, offset: 0x406F9, size: 0x8, addend: 0x0, symName: __ZNSt3__111__wrap_iterIPPN6LLVMIR6L_funcEEC2B7v160006EPKvS4_, symObjAddr: 0x12818, symBinAddr: 0x100014E10, symSize: 0x24 }
  - { offsetInCU: 0x4073E, offset: 0x4073E, size: 0x8, addend: 0x0, symName: __ZNSt3__16vectorIPN6LLVMIR5L_defENS_9allocatorIS3_EEEC2B7v160006Ev, symObjAddr: 0x1283C, symBinAddr: 0x100014E34, symSize: 0x58 }
  - { offsetInCU: 0x40767, offset: 0x40767, size: 0x8, addend: 0x0, symName: __ZNSt3__117__compressed_pairIPPN6LLVMIR5L_defENS_9allocatorIS3_EEEC1B7v160006IDnNS_18__default_init_tagEEEOT_OT0_, symObjAddr: 0x12894, symBinAddr: 0x100014E8C, symSize: 0x3C }
  - { offsetInCU: 0x407BE, offset: 0x407BE, size: 0x8, addend: 0x0, symName: __ZNSt3__117__compressed_pairIPPN6LLVMIR5L_defENS_9allocatorIS3_EEEC2B7v160006IDnNS_18__default_init_tagEEEOT_OT0_, symObjAddr: 0x128E0, symBinAddr: 0x100014ED8, symSize: 0x40 }
  - { offsetInCU: 0x40815, offset: 0x40815, size: 0x8, addend: 0x0, symName: __ZNSt3__122__compressed_pair_elemIPPN6LLVMIR5L_defELi0ELb0EEC2B7v160006IDnvEEOT_, symObjAddr: 0x12920, symBinAddr: 0x100014F18, symSize: 0x1C }
  - { offsetInCU: 0x40856, offset: 0x40856, size: 0x8, addend: 0x0, symName: __ZNSt3__122__compressed_pair_elemINS_9allocatorIPN6LLVMIR5L_defEEELi1ELb1EEC2B7v160006ENS_18__default_init_tagE, symObjAddr: 0x1293C, symBinAddr: 0x100014F34, symSize: 0x2C }
  - { offsetInCU: 0x40889, offset: 0x40889, size: 0x8, addend: 0x0, symName: __ZNSt3__19allocatorIPN6LLVMIR5L_defEEC2B7v160006Ev, symObjAddr: 0x12968, symBinAddr: 0x100014F60, symSize: 0x2C }
  - { offsetInCU: 0x408B2, offset: 0x408B2, size: 0x8, addend: 0x0, symName: __ZNSt3__116__non_trivial_ifILb1ENS_9allocatorIPN6LLVMIR5L_defEEEEC2B7v160006Ev, symObjAddr: 0x12994, symBinAddr: 0x100014F8C, symSize: 0x14 }
  - { offsetInCU: 0x408DB, offset: 0x408DB, size: 0x8, addend: 0x0, symName: __ZNSt3__16vectorI7TempDefNS_9allocatorIS1_EEEC2B7v160006Ev, symObjAddr: 0x129A8, symBinAddr: 0x100014FA0, symSize: 0x58 }
  - { offsetInCU: 0x40904, offset: 0x40904, size: 0x8, addend: 0x0, symName: __ZNSt3__117__compressed_pairIP7TempDefNS_9allocatorIS1_EEEC1B7v160006IDnNS_18__default_init_tagEEEOT_OT0_, symObjAddr: 0x12A00, symBinAddr: 0x100014FF8, symSize: 0x3C }
  - { offsetInCU: 0x4095B, offset: 0x4095B, size: 0x8, addend: 0x0, symName: __ZNSt3__117__compressed_pairIP7TempDefNS_9allocatorIS1_EEEC2B7v160006IDnNS_18__default_init_tagEEEOT_OT0_, symObjAddr: 0x12A4C, symBinAddr: 0x100015044, symSize: 0x40 }
  - { offsetInCU: 0x409B2, offset: 0x409B2, size: 0x8, addend: 0x0, symName: __ZNSt3__122__compressed_pair_elemIP7TempDefLi0ELb0EEC2B7v160006IDnvEEOT_, symObjAddr: 0x12A8C, symBinAddr: 0x100015084, symSize: 0x1C }
  - { offsetInCU: 0x409F3, offset: 0x409F3, size: 0x8, addend: 0x0, symName: __ZNSt3__122__compressed_pair_elemINS_9allocatorI7TempDefEELi1ELb1EEC2B7v160006ENS_18__default_init_tagE, symObjAddr: 0x12AA8, symBinAddr: 0x1000150A0, symSize: 0x2C }
  - { offsetInCU: 0x40A26, offset: 0x40A26, size: 0x8, addend: 0x0, symName: __ZNSt3__19allocatorI7TempDefEC2B7v160006Ev, symObjAddr: 0x12AD4, symBinAddr: 0x1000150CC, symSize: 0x2C }
  - { offsetInCU: 0x40A4F, offset: 0x40A4F, size: 0x8, addend: 0x0, symName: __ZNSt3__116__non_trivial_ifILb1ENS_9allocatorI7TempDefEEEC2B7v160006Ev, symObjAddr: 0x12B00, symBinAddr: 0x1000150F8, symSize: 0x14 }
  - { offsetInCU: 0x40A78, offset: 0x40A78, size: 0x8, addend: 0x0, symName: __ZNSt3__16vectorI7TempDefNS_9allocatorIS1_EEED2B7v160006Ev, symObjAddr: 0x12B14, symBinAddr: 0x10001510C, symSize: 0x44 }
  - { offsetInCU: 0x40AA1, offset: 0x40AA1, size: 0x8, addend: 0x0, symName: __ZNSt3__16vectorI7TempDefNS_9allocatorIS1_EEE16__destroy_vectorC1ERS4_, symObjAddr: 0x12B58, symBinAddr: 0x100015150, symSize: 0x34 }
  - { offsetInCU: 0x40AD9, offset: 0x40AD9, size: 0x8, addend: 0x0, symName: __ZNSt3__16vectorI7TempDefNS_9allocatorIS1_EEE16__destroy_vectorclB7v160006Ev, symObjAddr: 0x12B8C, symBinAddr: 0x100015184, symSize: 0x9C }
  - { offsetInCU: 0x40AFE, offset: 0x40AFE, size: 0x8, addend: 0x0, symName: __ZNSt3__16vectorI7TempDefNS_9allocatorIS1_EEE16__destroy_vectorC2ERS4_, symObjAddr: 0x12C28, symBinAddr: 0x100015220, symSize: 0x20 }
  - { offsetInCU: 0x40B36, offset: 0x40B36, size: 0x8, addend: 0x0, symName: __ZNKSt3__16vectorI7TempDefNS_9allocatorIS1_EEE17__annotate_deleteB7v160006Ev, symObjAddr: 0x12C48, symBinAddr: 0x100015240, symSize: 0xB8 }
  - { offsetInCU: 0x40B5B, offset: 0x40B5B, size: 0x8, addend: 0x0, symName: __ZNSt3__16vectorI7TempDefNS_9allocatorIS1_EEE7__clearB7v160006Ev, symObjAddr: 0x12D10, symBinAddr: 0x100015308, symSize: 0x28 }
  - { offsetInCU: 0x40B80, offset: 0x40B80, size: 0x8, addend: 0x0, symName: __ZNSt3__116allocator_traitsINS_9allocatorI7TempDefEEE10deallocateB7v160006ERS3_PS2_m, symObjAddr: 0x12D38, symBinAddr: 0x100015330, symSize: 0x34 }
  - { offsetInCU: 0x40BC2, offset: 0x40BC2, size: 0x8, addend: 0x0, symName: __ZNSt3__16vectorI7TempDefNS_9allocatorIS1_EEE7__allocB7v160006Ev, symObjAddr: 0x12D6C, symBinAddr: 0x100015364, symSize: 0x28 }
  - { offsetInCU: 0x40BE7, offset: 0x40BE7, size: 0x8, addend: 0x0, symName: __ZNKSt3__16vectorI7TempDefNS_9allocatorIS1_EEE8capacityB7v160006Ev, symObjAddr: 0x12D94, symBinAddr: 0x10001538C, symSize: 0x40 }
  - { offsetInCU: 0x40C0C, offset: 0x40C0C, size: 0x8, addend: 0x0, symName: __ZNKSt3__16vectorI7TempDefNS_9allocatorIS1_EEE31__annotate_contiguous_containerB7v160006EPKvS6_S6_S6_, symObjAddr: 0x12DD4, symBinAddr: 0x1000153CC, symSize: 0x20 }
  - { offsetInCU: 0x40C5D, offset: 0x40C5D, size: 0x8, addend: 0x0, symName: __ZNKSt3__16vectorI7TempDefNS_9allocatorIS1_EEE4dataB7v160006Ev, symObjAddr: 0x12DF4, symBinAddr: 0x1000153EC, symSize: 0x28 }
  - { offsetInCU: 0x40C82, offset: 0x40C82, size: 0x8, addend: 0x0, symName: __ZNKSt3__16vectorI7TempDefNS_9allocatorIS1_EEE4sizeB7v160006Ev, symObjAddr: 0x12E1C, symBinAddr: 0x100015414, symSize: 0x28 }
  - { offsetInCU: 0x40CA7, offset: 0x40CA7, size: 0x8, addend: 0x0, symName: __ZNSt3__16vectorI7TempDefNS_9allocatorIS1_EEE22__base_destruct_at_endB7v160006EPS1_, symObjAddr: 0x12E58, symBinAddr: 0x100015450, symSize: 0x8C }
  - { offsetInCU: 0x40CEA, offset: 0x40CEA, size: 0x8, addend: 0x0, symName: __ZNSt3__116allocator_traitsINS_9allocatorI7TempDefEEE7destroyB7v160006IS2_vEEvRS3_PT_, symObjAddr: 0x12EE4, symBinAddr: 0x1000154DC, symSize: 0x2C }
  - { offsetInCU: 0x40D27, offset: 0x40D27, size: 0x8, addend: 0x0, symName: __ZNSt3__19allocatorI7TempDefE7destroyB7v160006EPS1_, symObjAddr: 0x12F10, symBinAddr: 0x100015508, symSize: 0x28 }
  - { offsetInCU: 0x40D5A, offset: 0x40D5A, size: 0x8, addend: 0x0, symName: __ZNSt3__19allocatorI7TempDefE10deallocateB7v160006EPS1_m, symObjAddr: 0x12F38, symBinAddr: 0x100015530, symSize: 0x40 }
  - { offsetInCU: 0x40D9B, offset: 0x40D9B, size: 0x8, addend: 0x0, symName: __ZNSt3__117__compressed_pairIP7TempDefNS_9allocatorIS1_EEE6secondB7v160006Ev, symObjAddr: 0x12F78, symBinAddr: 0x100015570, symSize: 0x24 }
  - { offsetInCU: 0x40DC0, offset: 0x40DC0, size: 0x8, addend: 0x0, symName: __ZNSt3__122__compressed_pair_elemINS_9allocatorI7TempDefEELi1ELb1EE5__getB7v160006Ev, symObjAddr: 0x12F9C, symBinAddr: 0x100015594, symSize: 0x14 }
  - { offsetInCU: 0x40DE5, offset: 0x40DE5, size: 0x8, addend: 0x0, symName: __ZNKSt3__16vectorI7TempDefNS_9allocatorIS1_EEE9__end_capB7v160006Ev, symObjAddr: 0x12FB0, symBinAddr: 0x1000155A8, symSize: 0x28 }
  - { offsetInCU: 0x40E0A, offset: 0x40E0A, size: 0x8, addend: 0x0, symName: __ZNKSt3__117__compressed_pairIP7TempDefNS_9allocatorIS1_EEE5firstB7v160006Ev, symObjAddr: 0x12FD8, symBinAddr: 0x1000155D0, symSize: 0x24 }
  - { offsetInCU: 0x40E2F, offset: 0x40E2F, size: 0x8, addend: 0x0, symName: __ZNKSt3__122__compressed_pair_elemIP7TempDefLi0ELb0EE5__getB7v160006Ev, symObjAddr: 0x12FFC, symBinAddr: 0x1000155F4, symSize: 0x14 }
  - { offsetInCU: 0x40E54, offset: 0x40E54, size: 0x8, addend: 0x0, symName: __ZNSt3__112basic_stringIcNS_11char_traitsIcEENS_9allocatorIcEEEC2B7v160006IDnEEPKc, symObjAddr: 0x13010, symBinAddr: 0x100015608, symSize: 0x60 }
  - { offsetInCU: 0x40E91, offset: 0x40E91, size: 0x8, addend: 0x0, symName: __ZNSt3__111char_traitsIcE6lengthEPKc, symObjAddr: 0x13070, symBinAddr: 0x100015668, symSize: 0x34 }
  - { offsetInCU: 0x40EB4, offset: 0x40EB4, size: 0x8, addend: 0x0, symName: __ZNSt3__16vectorIPN6LLVMIR5L_defENS_9allocatorIS3_EEE9__end_capB7v160006Ev, symObjAddr: 0x130C8, symBinAddr: 0x1000156C0, symSize: 0x28 }
  - { offsetInCU: 0x40EDE, offset: 0x40EDE, size: 0x8, addend: 0x0, symName: __ZNSt3__16vectorIPN6LLVMIR5L_defENS_9allocatorIS3_EEE22__construct_one_at_endB7v160006IJS3_EEEvDpOT_, symObjAddr: 0x130F0, symBinAddr: 0x1000156E8, symSize: 0x90 }
  - { offsetInCU: 0x40F2B, offset: 0x40F2B, size: 0x8, addend: 0x0, symName: __ZNSt3__16vectorIPN6LLVMIR5L_defENS_9allocatorIS3_EEE21__push_back_slow_pathIS3_EEvOT_, symObjAddr: 0x13180, symBinAddr: 0x100015778, symSize: 0xD8 }
  - { offsetInCU: 0x40F88, offset: 0x40F88, size: 0x8, addend: 0x0, symName: __ZNSt3__117__compressed_pairIPPN6LLVMIR5L_defENS_9allocatorIS3_EEE5firstB7v160006Ev, symObjAddr: 0x13258, symBinAddr: 0x100015850, symSize: 0x24 }
  - { offsetInCU: 0x40FAD, offset: 0x40FAD, size: 0x8, addend: 0x0, symName: __ZNSt3__122__compressed_pair_elemIPPN6LLVMIR5L_defELi0ELb0EE5__getB7v160006Ev, symObjAddr: 0x1327C, symBinAddr: 0x100015874, symSize: 0x14 }
  - { offsetInCU: 0x40FEB, offset: 0x40FEB, size: 0x8, addend: 0x0, symName: __ZNSt3__16vectorIPN6LLVMIR5L_defENS_9allocatorIS3_EEE21_ConstructTransactionC1B7v160006ERS6_m, symObjAddr: 0x13290, symBinAddr: 0x100015888, symSize: 0x3C }
  - { offsetInCU: 0x41032, offset: 0x41032, size: 0x8, addend: 0x0, symName: __ZNSt3__116allocator_traitsINS_9allocatorIPN6LLVMIR5L_defEEEE9constructB7v160006IS4_JS4_EvEEvRS5_PT_DpOT0_, symObjAddr: 0x132CC, symBinAddr: 0x1000158C4, symSize: 0x34 }
  - { offsetInCU: 0x41089, offset: 0x41089, size: 0x8, addend: 0x0, symName: __ZNSt3__16vectorIPN6LLVMIR5L_defENS_9allocatorIS3_EEE21_ConstructTransactionD1B7v160006Ev, symObjAddr: 0x13300, symBinAddr: 0x1000158F8, symSize: 0x2C }
  - { offsetInCU: 0x410B2, offset: 0x410B2, size: 0x8, addend: 0x0, symName: __ZNSt3__16vectorIPN6LLVMIR5L_defENS_9allocatorIS3_EEE21_ConstructTransactionC2B7v160006ERS6_m, symObjAddr: 0x1332C, symBinAddr: 0x100015924, symSize: 0x44 }
  - { offsetInCU: 0x410F9, offset: 0x410F9, size: 0x8, addend: 0x0, symName: __ZNSt3__19allocatorIPN6LLVMIR5L_defEE9constructB7v160006IS3_JS3_EEEvPT_DpOT0_, symObjAddr: 0x13370, symBinAddr: 0x100015968, symSize: 0x28 }
  - { offsetInCU: 0x4114E, offset: 0x4114E, size: 0x8, addend: 0x0, symName: __ZNSt3__16vectorIPN6LLVMIR5L_defENS_9allocatorIS3_EEE21_ConstructTransactionD2B7v160006Ev, symObjAddr: 0x13398, symBinAddr: 0x100015990, symSize: 0x20 }
  - { offsetInCU: 0x41176, offset: 0x41176, size: 0x8, addend: 0x0, symName: __ZNKSt3__16vectorIPN6LLVMIR5L_defENS_9allocatorIS3_EEE11__recommendB7v160006Em, symObjAddr: 0x133B8, symBinAddr: 0x1000159B0, symSize: 0xB4 }
  - { offsetInCU: 0x411CA, offset: 0x411CA, size: 0x8, addend: 0x0, symName: __ZNSt3__114__split_bufferIPN6LLVMIR5L_defERNS_9allocatorIS3_EEEC1EmmS6_, symObjAddr: 0x1346C, symBinAddr: 0x100015A64, symSize: 0x44 }
  - { offsetInCU: 0x4121F, offset: 0x4121F, size: 0x8, addend: 0x0, symName: __ZNSt3__114__split_bufferIPN6LLVMIR5L_defERNS_9allocatorIS3_EEED1Ev, symObjAddr: 0x135C8, symBinAddr: 0x100015BC0, symSize: 0x2C }
  - { offsetInCU: 0x41249, offset: 0x41249, size: 0x8, addend: 0x0, symName: __ZNKSt3__16vectorIPN6LLVMIR5L_defENS_9allocatorIS3_EEE8max_sizeEv, symObjAddr: 0x135F4, symBinAddr: 0x100015BEC, symSize: 0x60 }
  - { offsetInCU: 0x41270, offset: 0x41270, size: 0x8, addend: 0x0, symName: __ZNKSt3__16vectorIPN6LLVMIR5L_defENS_9allocatorIS3_EEE20__throw_length_errorB7v160006Ev, symObjAddr: 0x13654, symBinAddr: 0x100015C4C, symSize: 0x1C }
  - { offsetInCU: 0x4129F, offset: 0x4129F, size: 0x8, addend: 0x0, symName: __ZNSt3__116allocator_traitsINS_9allocatorIPN6LLVMIR5L_defEEEE8max_sizeB7v160006IS5_vEEmRKS5_, symObjAddr: 0x13670, symBinAddr: 0x100015C68, symSize: 0x24 }
  - { offsetInCU: 0x412CD, offset: 0x412CD, size: 0x8, addend: 0x0, symName: __ZNKSt3__16vectorIPN6LLVMIR5L_defENS_9allocatorIS3_EEE7__allocB7v160006Ev, symObjAddr: 0x13694, symBinAddr: 0x100015C8C, symSize: 0x28 }
  - { offsetInCU: 0x412F2, offset: 0x412F2, size: 0x8, addend: 0x0, symName: __ZNKSt3__19allocatorIPN6LLVMIR5L_defEE8max_sizeB7v160006Ev, symObjAddr: 0x136BC, symBinAddr: 0x100015CB4, symSize: 0x14 }
  - { offsetInCU: 0x41317, offset: 0x41317, size: 0x8, addend: 0x0, symName: __ZNKSt3__117__compressed_pairIPPN6LLVMIR5L_defENS_9allocatorIS3_EEE6secondB7v160006Ev, symObjAddr: 0x136D0, symBinAddr: 0x100015CC8, symSize: 0x24 }
  - { offsetInCU: 0x4133C, offset: 0x4133C, size: 0x8, addend: 0x0, symName: __ZNKSt3__122__compressed_pair_elemINS_9allocatorIPN6LLVMIR5L_defEEELi1ELb1EE5__getB7v160006Ev, symObjAddr: 0x136F4, symBinAddr: 0x100015CEC, symSize: 0x14 }
  - { offsetInCU: 0x41361, offset: 0x41361, size: 0x8, addend: 0x0, symName: __ZNSt3__114__split_bufferIPN6LLVMIR5L_defERNS_9allocatorIS3_EEEC2EmmS6_, symObjAddr: 0x13708, symBinAddr: 0x100015D00, symSize: 0xD4 }
  - { offsetInCU: 0x413D3, offset: 0x413D3, size: 0x8, addend: 0x0, symName: __ZNSt3__117__compressed_pairIPPN6LLVMIR5L_defERNS_9allocatorIS3_EEEC1B7v160006IDnS7_EEOT_OT0_, symObjAddr: 0x137DC, symBinAddr: 0x100015DD4, symSize: 0x3C }
  - { offsetInCU: 0x4142A, offset: 0x4142A, size: 0x8, addend: 0x0, symName: __ZNSt3__114__split_bufferIPN6LLVMIR5L_defERNS_9allocatorIS3_EEE7__allocB7v160006Ev, symObjAddr: 0x13858, symBinAddr: 0x100015E50, symSize: 0x28 }
  - { offsetInCU: 0x4144F, offset: 0x4144F, size: 0x8, addend: 0x0, symName: __ZNSt3__114__split_bufferIPN6LLVMIR5L_defERNS_9allocatorIS3_EEE9__end_capB7v160006Ev, symObjAddr: 0x13880, symBinAddr: 0x100015E78, symSize: 0x28 }
  - { offsetInCU: 0x41474, offset: 0x41474, size: 0x8, addend: 0x0, symName: __ZNSt3__117__compressed_pairIPPN6LLVMIR5L_defERNS_9allocatorIS3_EEEC2B7v160006IDnS7_EEOT_OT0_, symObjAddr: 0x138A8, symBinAddr: 0x100015EA0, symSize: 0x48 }
  - { offsetInCU: 0x414CB, offset: 0x414CB, size: 0x8, addend: 0x0, symName: __ZNSt3__122__compressed_pair_elemIRNS_9allocatorIPN6LLVMIR5L_defEEELi1ELb0EEC2B7v160006IS6_vEEOT_, symObjAddr: 0x138F0, symBinAddr: 0x100015EE8, symSize: 0x20 }
  - { offsetInCU: 0x4150C, offset: 0x4150C, size: 0x8, addend: 0x0, symName: __ZNSt3__19allocatorIPN6LLVMIR5L_defEE8allocateB7v160006Em, symObjAddr: 0x13910, symBinAddr: 0x100015F08, symSize: 0x58 }
  - { offsetInCU: 0x4153F, offset: 0x4153F, size: 0x8, addend: 0x0, symName: __ZNSt3__117__compressed_pairIPPN6LLVMIR5L_defERNS_9allocatorIS3_EEE6secondB7v160006Ev, symObjAddr: 0x13968, symBinAddr: 0x100015F60, symSize: 0x28 }
  - { offsetInCU: 0x41564, offset: 0x41564, size: 0x8, addend: 0x0, symName: __ZNSt3__122__compressed_pair_elemIRNS_9allocatorIPN6LLVMIR5L_defEEELi1ELb0EE5__getB7v160006Ev, symObjAddr: 0x13990, symBinAddr: 0x100015F88, symSize: 0x18 }
  - { offsetInCU: 0x41589, offset: 0x41589, size: 0x8, addend: 0x0, symName: __ZNSt3__117__compressed_pairIPPN6LLVMIR5L_defERNS_9allocatorIS3_EEE5firstB7v160006Ev, symObjAddr: 0x139A8, symBinAddr: 0x100015FA0, symSize: 0x24 }
  - { offsetInCU: 0x415AE, offset: 0x415AE, size: 0x8, addend: 0x0, symName: __ZNSt3__116reverse_iteratorIPPN6LLVMIR5L_defEEC1B7v160006ES4_, symObjAddr: 0x13A44, symBinAddr: 0x10001603C, symSize: 0x34 }
  - { offsetInCU: 0x415E5, offset: 0x415E5, size: 0x8, addend: 0x0, symName: __ZNKSt3__116reverse_iteratorIPPN6LLVMIR5L_defEE4baseB7v160006Ev, symObjAddr: 0x13A78, symBinAddr: 0x100016070, symSize: 0x18 }
  - { offsetInCU: 0x4160A, offset: 0x4160A, size: 0x8, addend: 0x0, symName: __ZNKSt3__16vectorIPN6LLVMIR5L_defENS_9allocatorIS3_EEE14__annotate_newB7v160006Em, symObjAddr: 0x13ACC, symBinAddr: 0x1000160C4, symSize: 0xAC }
  - { offsetInCU: 0x41657, offset: 0x41657, size: 0x8, addend: 0x0, symName: __ZNKSt3__111__move_loopINS_17_ClassicAlgPolicyEEclB7v160006INS_16reverse_iteratorIPPN6LLVMIR5L_defEEES9_S9_EENS_4pairIT_T1_EESB_T0_SC_, symObjAddr: 0x13E78, symBinAddr: 0x100016470, symSize: 0xA0 }
  - { offsetInCU: 0x416C1, offset: 0x416C1, size: 0x8, addend: 0x0, symName: __ZNSt3__18_IterOpsINS_17_ClassicAlgPolicyEE11__iter_moveB7v160006IRNS_16reverse_iteratorIPPN6LLVMIR5L_defEEEEENS_9enable_ifIXsr12is_referenceIDTdeclsr3stdE7declvalIRT_EEEEE5valueEDTclsr3stdE4movedeclsr3stdE7declvalISD_EEEEE4typeEOSC_, symObjAddr: 0x140AC, symBinAddr: 0x1000166A4, symSize: 0x28 }
  - { offsetInCU: 0x416ED, offset: 0x416ED, size: 0x8, addend: 0x0, symName: __ZNKSt3__116reverse_iteratorIPPN6LLVMIR5L_defEEdeB7v160006Ev, symObjAddr: 0x140D4, symBinAddr: 0x1000166CC, symSize: 0x28 }
  - { offsetInCU: 0x41720, offset: 0x41720, size: 0x8, addend: 0x0, symName: __ZNSt3__116reverse_iteratorIPPN6LLVMIR5L_defEEppB7v160006Ev, symObjAddr: 0x140FC, symBinAddr: 0x1000166F4, symSize: 0x20 }
  - { offsetInCU: 0x41745, offset: 0x41745, size: 0x8, addend: 0x0, symName: __ZNSt3__18_IterOpsINS_17_ClassicAlgPolicyEE25__validate_iter_referenceB7v160006IRNS_16reverse_iteratorIPPN6LLVMIR5L_defEEEEEvv, symObjAddr: 0x1411C, symBinAddr: 0x100016714, symSize: 0x4 }
  - { offsetInCU: 0x41763, offset: 0x41763, size: 0x8, addend: 0x0, symName: __ZNSt3__118__unwrap_iter_implINS_16reverse_iteratorIPPN6LLVMIR5L_defEEELb0EE8__unwrapB7v160006ES6_, symObjAddr: 0x14120, symBinAddr: 0x100016718, symSize: 0x24 }
  - { offsetInCU: 0x4178B, offset: 0x4178B, size: 0x8, addend: 0x0, symName: __ZNSt3__14pairINS_16reverse_iteratorIPPN6LLVMIR5L_defEEES6_EC1B7v160006IS6_S6_LPv0EEEOT_OT0_, symObjAddr: 0x14144, symBinAddr: 0x10001673C, symSize: 0x3C }
  - { offsetInCU: 0x417E8, offset: 0x417E8, size: 0x8, addend: 0x0, symName: __ZNSt3__14pairINS_16reverse_iteratorIPPN6LLVMIR5L_defEEES6_EC2B7v160006IS6_S6_LPv0EEEOT_OT0_, symObjAddr: 0x14180, symBinAddr: 0x100016778, symSize: 0x34 }
  - { offsetInCU: 0x41845, offset: 0x41845, size: 0x8, addend: 0x0, symName: __ZNSt3__118__unwrap_iter_implINS_16reverse_iteratorIPPN6LLVMIR5L_defEEELb0EE8__rewrapB7v160006ES6_S6_, symObjAddr: 0x141B4, symBinAddr: 0x1000167AC, symSize: 0x2C }
  - { offsetInCU: 0x41872, offset: 0x41872, size: 0x8, addend: 0x0, symName: __ZNSt3__116reverse_iteratorIPPN6LLVMIR5L_defEEC2B7v160006ES4_, symObjAddr: 0x141E0, symBinAddr: 0x1000167D8, symSize: 0x28 }
  - { offsetInCU: 0x418A9, offset: 0x418A9, size: 0x8, addend: 0x0, symName: __ZNSt3__114__split_bufferIPN6LLVMIR5L_defERNS_9allocatorIS3_EEED2Ev, symObjAddr: 0x14208, symBinAddr: 0x100016800, symSize: 0x8C }
  - { offsetInCU: 0x418D4, offset: 0x418D4, size: 0x8, addend: 0x0, symName: __ZNSt3__114__split_bufferIPN6LLVMIR5L_defERNS_9allocatorIS3_EEE5clearB7v160006Ev, symObjAddr: 0x14294, symBinAddr: 0x10001688C, symSize: 0x28 }
  - { offsetInCU: 0x418F9, offset: 0x418F9, size: 0x8, addend: 0x0, symName: __ZNKSt3__114__split_bufferIPN6LLVMIR5L_defERNS_9allocatorIS3_EEE8capacityB7v160006Ev, symObjAddr: 0x142BC, symBinAddr: 0x1000168B4, symSize: 0x40 }
  - { offsetInCU: 0x4191E, offset: 0x4191E, size: 0x8, addend: 0x0, symName: __ZNSt3__114__split_bufferIPN6LLVMIR5L_defERNS_9allocatorIS3_EEE17__destruct_at_endB7v160006EPS3_, symObjAddr: 0x142FC, symBinAddr: 0x1000168F4, symSize: 0x2C }
  - { offsetInCU: 0x41950, offset: 0x41950, size: 0x8, addend: 0x0, symName: __ZNSt3__114__split_bufferIPN6LLVMIR5L_defERNS_9allocatorIS3_EEE17__destruct_at_endB7v160006EPS3_NS_17integral_constantIbLb0EEE, symObjAddr: 0x14328, symBinAddr: 0x100016920, symSize: 0x80 }
  - { offsetInCU: 0x4198F, offset: 0x4198F, size: 0x8, addend: 0x0, symName: __ZNKSt3__114__split_bufferIPN6LLVMIR5L_defERNS_9allocatorIS3_EEE9__end_capB7v160006Ev, symObjAddr: 0x143A8, symBinAddr: 0x1000169A0, symSize: 0x28 }
  - { offsetInCU: 0x419B4, offset: 0x419B4, size: 0x8, addend: 0x0, symName: __ZNKSt3__117__compressed_pairIPPN6LLVMIR5L_defERNS_9allocatorIS3_EEE5firstB7v160006Ev, symObjAddr: 0x143D0, symBinAddr: 0x1000169C8, symSize: 0x24 }
  - { offsetInCU: 0x419D9, offset: 0x419D9, size: 0x8, addend: 0x0, symName: __ZNSt3__16vectorI7TempDefNS_9allocatorIS1_EEEC2B7v160006ESt16initializer_listIS1_E, symObjAddr: 0x143F4, symBinAddr: 0x1000169EC, symSize: 0x128 }
  - { offsetInCU: 0x41A29, offset: 0x41A29, size: 0x8, addend: 0x0, symName: __ZNKSt16initializer_listI7TempDefE4sizeB7v160006Ev, symObjAddr: 0x1455C, symBinAddr: 0x100016B54, symSize: 0x18 }
  - { offsetInCU: 0x41A4E, offset: 0x41A4E, size: 0x8, addend: 0x0, symName: __ZNSt3__16vectorI7TempDefNS_9allocatorIS1_EEE11__vallocateB7v160006Em, symObjAddr: 0x14574, symBinAddr: 0x100016B6C, symSize: 0xAC }
  - { offsetInCU: 0x41A90, offset: 0x41A90, size: 0x8, addend: 0x0, symName: __ZNSt3__16vectorI7TempDefNS_9allocatorIS1_EEE18__construct_at_endIPKS1_Li0EEEvT_S8_m, symObjAddr: 0x14620, symBinAddr: 0x100016C18, symSize: 0x8C }
  - { offsetInCU: 0x41B02, offset: 0x41B02, size: 0x8, addend: 0x0, symName: __ZNKSt16initializer_listI7TempDefE5beginB7v160006Ev, symObjAddr: 0x146AC, symBinAddr: 0x100016CA4, symSize: 0x18 }
  - { offsetInCU: 0x41B27, offset: 0x41B27, size: 0x8, addend: 0x0, symName: __ZNKSt16initializer_listI7TempDefE3endB7v160006Ev, symObjAddr: 0x146C4, symBinAddr: 0x100016CBC, symSize: 0x20 }
  - { offsetInCU: 0x41B4C, offset: 0x41B4C, size: 0x8, addend: 0x0, symName: __ZNSt3__128__exception_guard_exceptionsINS_6vectorI7TempDefNS_9allocatorIS2_EEE16__destroy_vectorEE10__completeB7v160006Ev, symObjAddr: 0x146E4, symBinAddr: 0x100016CDC, symSize: 0x1C }
  - { offsetInCU: 0x41B71, offset: 0x41B71, size: 0x8, addend: 0x0, symName: __ZNSt3__128__exception_guard_exceptionsINS_6vectorI7TempDefNS_9allocatorIS2_EEE16__destroy_vectorEED1B7v160006Ev, symObjAddr: 0x14700, symBinAddr: 0x100016CF8, symSize: 0x2C }
  - { offsetInCU: 0x41B9A, offset: 0x41B9A, size: 0x8, addend: 0x0, symName: __ZNSt3__128__exception_guard_exceptionsINS_6vectorI7TempDefNS_9allocatorIS2_EEE16__destroy_vectorEEC1B7v160006ES6_, symObjAddr: 0x1472C, symBinAddr: 0x100016D24, symSize: 0x34 }
  - { offsetInCU: 0x41BD1, offset: 0x41BD1, size: 0x8, addend: 0x0, symName: __ZNSt3__128__exception_guard_exceptionsINS_6vectorI7TempDefNS_9allocatorIS2_EEE16__destroy_vectorEEC2B7v160006ES6_, symObjAddr: 0x14760, symBinAddr: 0x100016D58, symSize: 0x24 }
  - { offsetInCU: 0x41C07, offset: 0x41C07, size: 0x8, addend: 0x0, symName: __ZNKSt3__16vectorI7TempDefNS_9allocatorIS1_EEE8max_sizeEv, symObjAddr: 0x14784, symBinAddr: 0x100016D7C, symSize: 0x60 }
  - { offsetInCU: 0x41C2E, offset: 0x41C2E, size: 0x8, addend: 0x0, symName: __ZNKSt3__16vectorI7TempDefNS_9allocatorIS1_EEE20__throw_length_errorB7v160006Ev, symObjAddr: 0x147E4, symBinAddr: 0x100016DDC, symSize: 0x1C }
  - { offsetInCU: 0x41C53, offset: 0x41C53, size: 0x8, addend: 0x0, symName: __ZNSt3__16vectorI7TempDefNS_9allocatorIS1_EEE9__end_capB7v160006Ev, symObjAddr: 0x14840, symBinAddr: 0x100016E38, symSize: 0x28 }
  - { offsetInCU: 0x41C78, offset: 0x41C78, size: 0x8, addend: 0x0, symName: __ZNKSt3__16vectorI7TempDefNS_9allocatorIS1_EEE14__annotate_newB7v160006Em, symObjAddr: 0x14868, symBinAddr: 0x100016E60, symSize: 0xAC }
  - { offsetInCU: 0x41CB6, offset: 0x41CB6, size: 0x8, addend: 0x0, symName: __ZNSt3__116allocator_traitsINS_9allocatorI7TempDefEEE8max_sizeB7v160006IS3_vEEmRKS3_, symObjAddr: 0x14914, symBinAddr: 0x100016F0C, symSize: 0x24 }
  - { offsetInCU: 0x41CE4, offset: 0x41CE4, size: 0x8, addend: 0x0, symName: __ZNKSt3__16vectorI7TempDefNS_9allocatorIS1_EEE7__allocB7v160006Ev, symObjAddr: 0x14938, symBinAddr: 0x100016F30, symSize: 0x28 }
  - { offsetInCU: 0x41D09, offset: 0x41D09, size: 0x8, addend: 0x0, symName: __ZNKSt3__19allocatorI7TempDefE8max_sizeB7v160006Ev, symObjAddr: 0x14960, symBinAddr: 0x100016F58, symSize: 0x14 }
  - { offsetInCU: 0x41D2E, offset: 0x41D2E, size: 0x8, addend: 0x0, symName: __ZNKSt3__117__compressed_pairIP7TempDefNS_9allocatorIS1_EEE6secondB7v160006Ev, symObjAddr: 0x14974, symBinAddr: 0x100016F6C, symSize: 0x24 }
  - { offsetInCU: 0x41D53, offset: 0x41D53, size: 0x8, addend: 0x0, symName: __ZNKSt3__122__compressed_pair_elemINS_9allocatorI7TempDefEELi1ELb1EE5__getB7v160006Ev, symObjAddr: 0x14998, symBinAddr: 0x100016F90, symSize: 0x14 }
  - { offsetInCU: 0x41D78, offset: 0x41D78, size: 0x8, addend: 0x0, symName: __ZNSt3__19allocatorI7TempDefE8allocateB7v160006Em, symObjAddr: 0x149AC, symBinAddr: 0x100016FA4, symSize: 0x58 }
  - { offsetInCU: 0x41DAB, offset: 0x41DAB, size: 0x8, addend: 0x0, symName: __ZNSt3__117__compressed_pairIP7TempDefNS_9allocatorIS1_EEE5firstB7v160006Ev, symObjAddr: 0x14A04, symBinAddr: 0x100016FFC, symSize: 0x24 }
  - { offsetInCU: 0x41DD0, offset: 0x41DD0, size: 0x8, addend: 0x0, symName: __ZNSt3__122__compressed_pair_elemIP7TempDefLi0ELb0EE5__getB7v160006Ev, symObjAddr: 0x14A28, symBinAddr: 0x100017020, symSize: 0x14 }
  - { offsetInCU: 0x41E0E, offset: 0x41E0E, size: 0x8, addend: 0x0, symName: __ZNSt3__16vectorI7TempDefNS_9allocatorIS1_EEE21_ConstructTransactionC1B7v160006ERS4_m, symObjAddr: 0x14A3C, symBinAddr: 0x100017034, symSize: 0x3C }
  - { offsetInCU: 0x41E55, offset: 0x41E55, size: 0x8, addend: 0x0, symName: __ZNSt3__16vectorI7TempDefNS_9allocatorIS1_EEE21_ConstructTransactionD1B7v160006Ev, symObjAddr: 0x14B6C, symBinAddr: 0x100017164, symSize: 0x2C }
  - { offsetInCU: 0x41E7E, offset: 0x41E7E, size: 0x8, addend: 0x0, symName: __ZNSt3__16vectorI7TempDefNS_9allocatorIS1_EEE21_ConstructTransactionC2B7v160006ERS4_m, symObjAddr: 0x14B98, symBinAddr: 0x100017190, symSize: 0x44 }
  - { offsetInCU: 0x41EC5, offset: 0x41EC5, size: 0x8, addend: 0x0, symName: __ZNSt3__129_AllocatorDestroyRangeReverseINS_9allocatorI7TempDefEEPS2_EC1B7v160006ERS3_RS4_S7_, symObjAddr: 0x14C28, symBinAddr: 0x100017220, symSize: 0x44 }
  - { offsetInCU: 0x41F1B, offset: 0x41F1B, size: 0x8, addend: 0x0, symName: __ZNSt3__116allocator_traitsINS_9allocatorI7TempDefEEE9constructB7v160006IS2_JRKS2_EvEEvRS3_PT_DpOT0_, symObjAddr: 0x14C6C, symBinAddr: 0x100017264, symSize: 0x34 }
  - { offsetInCU: 0x41F72, offset: 0x41F72, size: 0x8, addend: 0x0, symName: __ZNSt3__128__exception_guard_exceptionsINS_29_AllocatorDestroyRangeReverseINS_9allocatorI7TempDefEEPS3_EEE10__completeB7v160006Ev, symObjAddr: 0x14CA0, symBinAddr: 0x100017298, symSize: 0x1C }
  - { offsetInCU: 0x41F97, offset: 0x41F97, size: 0x8, addend: 0x0, symName: __ZNSt3__128__exception_guard_exceptionsINS_29_AllocatorDestroyRangeReverseINS_9allocatorI7TempDefEEPS3_EEED1B7v160006Ev, symObjAddr: 0x14CBC, symBinAddr: 0x1000172B4, symSize: 0x2C }
  - { offsetInCU: 0x41FC0, offset: 0x41FC0, size: 0x8, addend: 0x0, symName: __ZNSt3__128__exception_guard_exceptionsINS_29_AllocatorDestroyRangeReverseINS_9allocatorI7TempDefEEPS3_EEEC1B7v160006ES6_, symObjAddr: 0x14CE8, symBinAddr: 0x1000172E0, symSize: 0x34 }
  - { offsetInCU: 0x41FF8, offset: 0x41FF8, size: 0x8, addend: 0x0, symName: __ZNSt3__128__exception_guard_exceptionsINS_29_AllocatorDestroyRangeReverseINS_9allocatorI7TempDefEEPS3_EEEC2B7v160006ES6_, symObjAddr: 0x14D1C, symBinAddr: 0x100017314, symSize: 0x30 }
  - { offsetInCU: 0x42030, offset: 0x42030, size: 0x8, addend: 0x0, symName: __ZNSt3__129_AllocatorDestroyRangeReverseINS_9allocatorI7TempDefEEPS2_EC2B7v160006ERS3_RS4_S7_, symObjAddr: 0x14D4C, symBinAddr: 0x100017344, symSize: 0x38 }
  - { offsetInCU: 0x42086, offset: 0x42086, size: 0x8, addend: 0x0, symName: __ZNSt3__19allocatorI7TempDefE9constructB7v160006IS1_JRKS1_EEEvPT_DpOT0_, symObjAddr: 0x14D84, symBinAddr: 0x10001737C, symSize: 0x30 }
  - { offsetInCU: 0x420DB, offset: 0x420DB, size: 0x8, addend: 0x0, symName: __ZNSt3__128__exception_guard_exceptionsINS_29_AllocatorDestroyRangeReverseINS_9allocatorI7TempDefEEPS3_EEED2B7v160006Ev, symObjAddr: 0x14DB4, symBinAddr: 0x1000173AC, symSize: 0x50 }
  - { offsetInCU: 0x42104, offset: 0x42104, size: 0x8, addend: 0x0, symName: __ZNKSt3__129_AllocatorDestroyRangeReverseINS_9allocatorI7TempDefEEPS2_EclB7v160006Ev, symObjAddr: 0x14E04, symBinAddr: 0x1000173FC, symSize: 0x68 }
  - { offsetInCU: 0x42129, offset: 0x42129, size: 0x8, addend: 0x0, symName: __ZNSt3__116reverse_iteratorIP7TempDefEC1B7v160006ES2_, symObjAddr: 0x14EDC, symBinAddr: 0x1000174D4, symSize: 0x34 }
  - { offsetInCU: 0x42160, offset: 0x42160, size: 0x8, addend: 0x0, symName: __ZNSt3__116reverse_iteratorIP7TempDefEppB7v160006Ev, symObjAddr: 0x14F7C, symBinAddr: 0x100017574, symSize: 0x20 }
  - { offsetInCU: 0x42185, offset: 0x42185, size: 0x8, addend: 0x0, symName: __ZNKSt3__116reverse_iteratorIP7TempDefE4baseB7v160006Ev, symObjAddr: 0x14F9C, symBinAddr: 0x100017594, symSize: 0x18 }
  - { offsetInCU: 0x421AF, offset: 0x421AF, size: 0x8, addend: 0x0, symName: __ZNSt3__119__to_address_helperINS_16reverse_iteratorIP7TempDefEEvE6__callB7v160006ERKS4_, symObjAddr: 0x14FB4, symBinAddr: 0x1000175AC, symSize: 0x38 }
  - { offsetInCU: 0x421D2, offset: 0x421D2, size: 0x8, addend: 0x0, symName: __ZNKSt3__116reverse_iteratorIP7TempDefEptB7v160006Ev, symObjAddr: 0x14FEC, symBinAddr: 0x1000175E4, symSize: 0x24 }
  - { offsetInCU: 0x421F7, offset: 0x421F7, size: 0x8, addend: 0x0, symName: __ZNKSt3__116reverse_iteratorIP7TempDefEdeB7v160006Ev, symObjAddr: 0x15010, symBinAddr: 0x100017608, symSize: 0x28 }
  - { offsetInCU: 0x4222A, offset: 0x4222A, size: 0x8, addend: 0x0, symName: __ZNSt3__116reverse_iteratorIP7TempDefEC2B7v160006ES2_, symObjAddr: 0x15038, symBinAddr: 0x100017630, symSize: 0x28 }
  - { offsetInCU: 0x42261, offset: 0x42261, size: 0x8, addend: 0x0, symName: __ZNSt3__16vectorI7TempDefNS_9allocatorIS1_EEE21_ConstructTransactionD2B7v160006Ev, symObjAddr: 0x15060, symBinAddr: 0x100017658, symSize: 0x20 }
  - { offsetInCU: 0x4228A, offset: 0x4228A, size: 0x8, addend: 0x0, symName: __ZNSt3__128__exception_guard_exceptionsINS_6vectorI7TempDefNS_9allocatorIS2_EEE16__destroy_vectorEED2B7v160006Ev, symObjAddr: 0x15080, symBinAddr: 0x100017678, symSize: 0x50 }
  - { offsetInCU: 0x422C6, offset: 0x422C6, size: 0x8, addend: 0x0, symName: __ZNSt3__112__hash_tableINS_17__hash_value_typeINS_12basic_stringIcNS_11char_traitsIcEENS_9allocatorIcEEEEN6LLVMIR8FuncTypeEEENS_22__unordered_map_hasherIS7_SA_NS_4hashIS7_EENS_8equal_toIS7_EELb1EEENS_21__unordered_map_equalIS7_SA_SF_SD_Lb1EEENS5_ISA_EEE25__emplace_unique_key_argsIS7_JRKNS_21piecewise_construct_tENS_5tupleIJOS7_EEENSP_IJEEEEEENS_4pairINS_15__hash_iteratorIPNS_11__hash_nodeISA_PvEEEEbEERKT_DpOT0_, symObjAddr: 0x150D0, symBinAddr: 0x1000176C8, symSize: 0x4D0 }
  - { offsetInCU: 0x423D0, offset: 0x423D0, size: 0x8, addend: 0x0, symName: __ZNKSt3__115__hash_iteratorIPNS_11__hash_nodeINS_17__hash_value_typeINS_12basic_stringIcNS_11char_traitsIcEENS_9allocatorIcEEEEN6LLVMIR8FuncTypeEEEPvEEEptB7v160006Ev, symObjAddr: 0x155D0, symBinAddr: 0x100017BC8, symSize: 0x30 }
  - { offsetInCU: 0x423F5, offset: 0x423F5, size: 0x8, addend: 0x0, symName: __ZNSt3__112__hash_tableINS_17__hash_value_typeINS_12basic_stringIcNS_11char_traitsIcEENS_9allocatorIcEEEEN6LLVMIR8FuncTypeEEENS_22__unordered_map_hasherIS7_SA_NS_4hashIS7_EENS_8equal_toIS7_EELb1EEENS_21__unordered_map_equalIS7_SA_SF_SD_Lb1EEENS5_ISA_EEE13hash_functionB7v160006Ev, symObjAddr: 0x15600, symBinAddr: 0x100017BF8, symSize: 0x28 }
  - { offsetInCU: 0x4241A, offset: 0x4241A, size: 0x8, addend: 0x0, symName: __ZNKSt3__122__unordered_map_hasherINS_12basic_stringIcNS_11char_traitsIcEENS_9allocatorIcEEEENS_17__hash_value_typeIS6_N6LLVMIR8FuncTypeEEENS_4hashIS6_EENS_8equal_toIS6_EELb1EEclB7v160006ERKS6_, symObjAddr: 0x15628, symBinAddr: 0x100017C20, symSize: 0x2C }
  - { offsetInCU: 0x4244E, offset: 0x4244E, size: 0x8, addend: 0x0, symName: __ZNKSt3__112__hash_tableINS_17__hash_value_typeINS_12basic_stringIcNS_11char_traitsIcEENS_9allocatorIcEEEEN6LLVMIR8FuncTypeEEENS_22__unordered_map_hasherIS7_SA_NS_4hashIS7_EENS_8equal_toIS7_EELb1EEENS_21__unordered_map_equalIS7_SA_SF_SD_Lb1EEENS5_ISA_EEE12bucket_countB7v160006Ev, symObjAddr: 0x15654, symBinAddr: 0x100017C4C, symSize: 0x28 }
  - { offsetInCU: 0x42473, offset: 0x42473, size: 0x8, addend: 0x0, symName: __ZNKSt3__110unique_ptrIA_PNS_16__hash_node_baseIPNS_11__hash_nodeINS_17__hash_value_typeINS_12basic_stringIcNS_11char_traitsIcEENS_9allocatorIcEEEEN6LLVMIR8FuncTypeEEEPvEEEENS_25__bucket_list_deallocatorINS7_ISH_EEEEEixB7v160006Em, symObjAddr: 0x15714, symBinAddr: 0x100017D0C, symSize: 0x34 }
  - { offsetInCU: 0x424A7, offset: 0x424A7, size: 0x8, addend: 0x0, symName: __ZNKSt3__116__hash_node_baseIPNS_11__hash_nodeINS_17__hash_value_typeINS_12basic_stringIcNS_11char_traitsIcEENS_9allocatorIcEEEEN6LLVMIR8FuncTypeEEEPvEEE6__hashB7v160006Ev, symObjAddr: 0x15748, symBinAddr: 0x100017D40, symSize: 0x18 }
  - { offsetInCU: 0x424CC, offset: 0x424CC, size: 0x8, addend: 0x0, symName: __ZNSt3__112__hash_tableINS_17__hash_value_typeINS_12basic_stringIcNS_11char_traitsIcEENS_9allocatorIcEEEEN6LLVMIR8FuncTypeEEENS_22__unordered_map_hasherIS7_SA_NS_4hashIS7_EENS_8equal_toIS7_EELb1EEENS_21__unordered_map_equalIS7_SA_SF_SD_Lb1EEENS5_ISA_EEE6key_eqB7v160006Ev, symObjAddr: 0x15760, symBinAddr: 0x100017D58, symSize: 0x28 }
  - { offsetInCU: 0x424F1, offset: 0x424F1, size: 0x8, addend: 0x0, symName: __ZNKSt3__121__unordered_map_equalINS_12basic_stringIcNS_11char_traitsIcEENS_9allocatorIcEEEENS_17__hash_value_typeIS6_N6LLVMIR8FuncTypeEEENS_8equal_toIS6_EENS_4hashIS6_EELb1EEclB7v160006ERKSA_RKS6_, symObjAddr: 0x15788, symBinAddr: 0x100017D80, symSize: 0x48 }
  - { offsetInCU: 0x42533, offset: 0x42533, size: 0x8, addend: 0x0, symName: __ZNSt3__112__hash_tableINS_17__hash_value_typeINS_12basic_stringIcNS_11char_traitsIcEENS_9allocatorIcEEEEN6LLVMIR8FuncTypeEEENS_22__unordered_map_hasherIS7_SA_NS_4hashIS7_EENS_8equal_toIS7_EELb1EEENS_21__unordered_map_equalIS7_SA_SF_SD_Lb1EEENS5_ISA_EEE21__construct_node_hashIRKNS_21piecewise_construct_tEJNS_5tupleIJOS7_EEENSP_IJEEEEEENS_10unique_ptrINS_11__hash_nodeISA_PvEENS_22__hash_node_destructorINS5_ISW_EEEEEEmOT_DpOT0_, symObjAddr: 0x157D0, symBinAddr: 0x100017DC8, symSize: 0x150 }
  - { offsetInCU: 0x425CE, offset: 0x425CE, size: 0x8, addend: 0x0, symName: __ZNSt3__112__hash_tableINS_17__hash_value_typeINS_12basic_stringIcNS_11char_traitsIcEENS_9allocatorIcEEEEN6LLVMIR8FuncTypeEEENS_22__unordered_map_hasherIS7_SA_NS_4hashIS7_EENS_8equal_toIS7_EELb1EEENS_21__unordered_map_equalIS7_SA_SF_SD_Lb1EEENS5_ISA_EEE4sizeB7v160006Ev, symObjAddr: 0x15920, symBinAddr: 0x100017F18, symSize: 0x28 }
  - { offsetInCU: 0x425F3, offset: 0x425F3, size: 0x8, addend: 0x0, symName: __ZNSt3__112__hash_tableINS_17__hash_value_typeINS_12basic_stringIcNS_11char_traitsIcEENS_9allocatorIcEEEEN6LLVMIR8FuncTypeEEENS_22__unordered_map_hasherIS7_SA_NS_4hashIS7_EENS_8equal_toIS7_EELb1EEENS_21__unordered_map_equalIS7_SA_SF_SD_Lb1EEENS5_ISA_EEE15max_load_factorB7v160006Ev, symObjAddr: 0x15948, symBinAddr: 0x100017F40, symSize: 0x28 }
  - { offsetInCU: 0x42618, offset: 0x42618, size: 0x8, addend: 0x0, symName: __ZNSt3__112__hash_tableINS_17__hash_value_typeINS_12basic_stringIcNS_11char_traitsIcEENS_9allocatorIcEEEEN6LLVMIR8FuncTypeEEENS_22__unordered_map_hasherIS7_SA_NS_4hashIS7_EENS_8equal_toIS7_EELb1EEENS_21__unordered_map_equalIS7_SA_SF_SD_Lb1EEENS5_ISA_EEE15__rehash_uniqueB7v160006Em, symObjAddr: 0x15970, symBinAddr: 0x100017F68, symSize: 0x2C }
  - { offsetInCU: 0x4264B, offset: 0x4264B, size: 0x8, addend: 0x0, symName: __Z4ceilB7v160006f, symObjAddr: 0x159EC, symBinAddr: 0x100017FE4, symSize: 0x18 }
  - { offsetInCU: 0x4267A, offset: 0x4267A, size: 0x8, addend: 0x0, symName: __ZNSt3__116__hash_node_baseIPNS_11__hash_nodeINS_17__hash_value_typeINS_12basic_stringIcNS_11char_traitsIcEENS_9allocatorIcEEEEN6LLVMIR8FuncTypeEEEPvEEE5__ptrB7v160006Ev, symObjAddr: 0x15A04, symBinAddr: 0x100017FFC, symSize: 0x24 }
  - { offsetInCU: 0x4269F, offset: 0x4269F, size: 0x8, addend: 0x0, symName: __ZNKSt3__110unique_ptrINS_11__hash_nodeINS_17__hash_value_typeINS_12basic_stringIcNS_11char_traitsIcEENS_9allocatorIcEEEEN6LLVMIR8FuncTypeEEEPvEENS_22__hash_node_destructorINS6_ISD_EEEEEptB7v160006Ev, symObjAddr: 0x15A28, symBinAddr: 0x100018020, symSize: 0x28 }
  - { offsetInCU: 0x426C4, offset: 0x426C4, size: 0x8, addend: 0x0, symName: __ZNKSt3__110unique_ptrINS_11__hash_nodeINS_17__hash_value_typeINS_12basic_stringIcNS_11char_traitsIcEENS_9allocatorIcEEEEN6LLVMIR8FuncTypeEEEPvEENS_22__hash_node_destructorINS6_ISD_EEEEE3getB7v160006Ev, symObjAddr: 0x15A50, symBinAddr: 0x100018048, symSize: 0x28 }
  - { offsetInCU: 0x426E9, offset: 0x426E9, size: 0x8, addend: 0x0, symName: __ZNSt3__110unique_ptrINS_11__hash_nodeINS_17__hash_value_typeINS_12basic_stringIcNS_11char_traitsIcEENS_9allocatorIcEEEEN6LLVMIR8FuncTypeEEEPvEENS_22__hash_node_destructorINS6_ISD_EEEEE7releaseB7v160006Ev, symObjAddr: 0x15A78, symBinAddr: 0x100018070, symSize: 0x44 }
  - { offsetInCU: 0x4271D, offset: 0x4271D, size: 0x8, addend: 0x0, symName: __ZNSt3__110unique_ptrINS_11__hash_nodeINS_17__hash_value_typeINS_12basic_stringIcNS_11char_traitsIcEENS_9allocatorIcEEEEN6LLVMIR8FuncTypeEEEPvEENS_22__hash_node_destructorINS6_ISD_EEEEED1B7v160006Ev, symObjAddr: 0x15ABC, symBinAddr: 0x1000180B4, symSize: 0x2C }
  - { offsetInCU: 0x42746, offset: 0x42746, size: 0x8, addend: 0x0, symName: __ZNSt3__115__hash_iteratorIPNS_11__hash_nodeINS_17__hash_value_typeINS_12basic_stringIcNS_11char_traitsIcEENS_9allocatorIcEEEEN6LLVMIR8FuncTypeEEEPvEEEC1B7v160006EPNS_16__hash_node_baseISE_EEPKv, symObjAddr: 0x15AE8, symBinAddr: 0x1000180E0, symSize: 0x3C }
  - { offsetInCU: 0x42797, offset: 0x42797, size: 0x8, addend: 0x0, symName: __ZNSt3__14pairINS_15__hash_iteratorIPNS_11__hash_nodeINS_17__hash_value_typeINS_12basic_stringIcNS_11char_traitsIcEENS_9allocatorIcEEEEN6LLVMIR8FuncTypeEEEPvEEEEbEC1B7v160006ISG_RbLSD_0EEEOT_OT0_, symObjAddr: 0x15B24, symBinAddr: 0x10001811C, symSize: 0x3C }
  - { offsetInCU: 0x427F4, offset: 0x427F4, size: 0x8, addend: 0x0, symName: __ZNSt3__117__compressed_pairImNS_22__unordered_map_hasherINS_12basic_stringIcNS_11char_traitsIcEENS_9allocatorIcEEEENS_17__hash_value_typeIS7_N6LLVMIR8FuncTypeEEENS_4hashIS7_EENS_8equal_toIS7_EELb1EEEE6secondB7v160006Ev, symObjAddr: 0x15B60, symBinAddr: 0x100018158, symSize: 0x24 }
  - { offsetInCU: 0x42819, offset: 0x42819, size: 0x8, addend: 0x0, symName: __ZNSt3__122__compressed_pair_elemINS_22__unordered_map_hasherINS_12basic_stringIcNS_11char_traitsIcEENS_9allocatorIcEEEENS_17__hash_value_typeIS7_N6LLVMIR8FuncTypeEEENS_4hashIS7_EENS_8equal_toIS7_EELb1EEELi1ELb1EE5__getB7v160006Ev, symObjAddr: 0x15B84, symBinAddr: 0x10001817C, symSize: 0x14 }
  - { offsetInCU: 0x4283E, offset: 0x4283E, size: 0x8, addend: 0x0, symName: __ZNKSt3__113__string_hashIcNS_9allocatorIcEEEclERKNS_12basic_stringIcNS_11char_traitsIcEES2_EE, symObjAddr: 0x15B98, symBinAddr: 0x100018190, symSize: 0x64 }
  - { offsetInCU: 0x42872, offset: 0x42872, size: 0x8, addend: 0x0, symName: __ZNKSt3__112basic_stringIcNS_11char_traitsIcEENS_9allocatorIcEEE4dataB7v160006Ev, symObjAddr: 0x15C38, symBinAddr: 0x100018230, symSize: 0x28 }
  - { offsetInCU: 0x42897, offset: 0x42897, size: 0x8, addend: 0x0, symName: __ZNKSt3__112basic_stringIcNS_11char_traitsIcEENS_9allocatorIcEEE4sizeB7v160006Ev, symObjAddr: 0x15C60, symBinAddr: 0x100018258, symSize: 0x54 }
  - { offsetInCU: 0x428BC, offset: 0x428BC, size: 0x8, addend: 0x0, symName: __ZNSt3__121__murmur2_or_cityhashImLm64EEclEPKvm, symObjAddr: 0x15CB4, symBinAddr: 0x1000182AC, symSize: 0x410 }
  - { offsetInCU: 0x42956, offset: 0x42956, size: 0x8, addend: 0x0, symName: __ZNSt3__121__murmur2_or_cityhashImLm64EE18__hash_len_0_to_16EPKcm, symObjAddr: 0x160C4, symBinAddr: 0x1000186BC, symSize: 0x1C0 }
  - { offsetInCU: 0x42A2F, offset: 0x42A2F, size: 0x8, addend: 0x0, symName: __ZNSt3__121__murmur2_or_cityhashImLm64EE19__hash_len_17_to_32EPKcm, symObjAddr: 0x16284, symBinAddr: 0x10001887C, symSize: 0x130 }
  - { offsetInCU: 0x42A98, offset: 0x42A98, size: 0x8, addend: 0x0, symName: __ZNSt3__121__murmur2_or_cityhashImLm64EE19__hash_len_33_to_64EPKcm, symObjAddr: 0x163B4, symBinAddr: 0x1000189AC, symSize: 0x2B8 }
  - { offsetInCU: 0x42B4A, offset: 0x42B4A, size: 0x8, addend: 0x0, symName: __ZNSt3__121__murmur2_or_cityhashImLm64EE13__hash_len_16Emm, symObjAddr: 0x1668C, symBinAddr: 0x100018C84, symSize: 0x80 }
  - { offsetInCU: 0x42BA5, offset: 0x42BA5, size: 0x8, addend: 0x0, symName: __ZNSt3__121__murmur2_or_cityhashImLm64EE29__weak_hash_len_32_with_seedsEPKcmm, symObjAddr: 0x1670C, symBinAddr: 0x100018D04, symSize: 0x88 }
  - { offsetInCU: 0x42BE4, offset: 0x42BE4, size: 0x8, addend: 0x0, symName: __ZNSt3__121__murmur2_or_cityhashImLm64EE8__rotateEmi, symObjAddr: 0x16794, symBinAddr: 0x100018D8C, symSize: 0x64 }
  - { offsetInCU: 0x42C15, offset: 0x42C15, size: 0x8, addend: 0x0, symName: __ZNSt3__14pairImmEaSB7v160006EOS1_, symObjAddr: 0x167F8, symBinAddr: 0x100018DF0, symSize: 0x30 }
  - { offsetInCU: 0x42C49, offset: 0x42C49, size: 0x8, addend: 0x0, symName: __ZNSt3__121__murmur2_or_cityhashImLm64EE11__shift_mixEm, symObjAddr: 0x16864, symBinAddr: 0x100018E5C, symSize: 0x1C }
  - { offsetInCU: 0x42C6C, offset: 0x42C6C, size: 0x8, addend: 0x0, symName: __ZNSt3__121__murmur2_or_cityhashImLm64EE22__rotate_by_at_least_1Emi, symObjAddr: 0x16880, symBinAddr: 0x100018E78, symSize: 0x38 }
  - { offsetInCU: 0x42C9D, offset: 0x42C9D, size: 0x8, addend: 0x0, symName: __ZNSt3__121__murmur2_or_cityhashImLm64EE29__weak_hash_len_32_with_seedsEmmmmmm, symObjAddr: 0x168D8, symBinAddr: 0x100018ED0, symSize: 0xD8 }
  - { offsetInCU: 0x42D19, offset: 0x42D19, size: 0x8, addend: 0x0, symName: __ZNSt3__14pairImmEC1B7v160006ImmLPv0EEEOT_OT0_, symObjAddr: 0x169B0, symBinAddr: 0x100018FA8, symSize: 0x3C }
  - { offsetInCU: 0x42D76, offset: 0x42D76, size: 0x8, addend: 0x0, symName: __ZNSt3__14pairImmEC2B7v160006ImmLPv0EEEOT_OT0_, symObjAddr: 0x169EC, symBinAddr: 0x100018FE4, symSize: 0x34 }
  - { offsetInCU: 0x42DD3, offset: 0x42DD3, size: 0x8, addend: 0x0, symName: __ZNKSt3__112basic_stringIcNS_11char_traitsIcEENS_9allocatorIcEEE13__get_pointerB7v160006Ev, symObjAddr: 0x16A34, symBinAddr: 0x10001902C, symSize: 0x54 }
  - { offsetInCU: 0x42DF8, offset: 0x42DF8, size: 0x8, addend: 0x0, symName: __ZNKSt3__112basic_stringIcNS_11char_traitsIcEENS_9allocatorIcEEE18__get_long_pointerB7v160006Ev, symObjAddr: 0x16A88, symBinAddr: 0x100019080, symSize: 0x28 }
  - { offsetInCU: 0x42E1D, offset: 0x42E1D, size: 0x8, addend: 0x0, symName: __ZNKSt3__112basic_stringIcNS_11char_traitsIcEENS_9allocatorIcEEE19__get_short_pointerB7v160006Ev, symObjAddr: 0x16AB0, symBinAddr: 0x1000190A8, symSize: 0x28 }
  - { offsetInCU: 0x42E42, offset: 0x42E42, size: 0x8, addend: 0x0, symName: __ZNSt3__114pointer_traitsIPKcE10pointer_toB7v160006ERS1_, symObjAddr: 0x16AD8, symBinAddr: 0x1000190D0, symSize: 0x14 }
  - { offsetInCU: 0x42E65, offset: 0x42E65, size: 0x8, addend: 0x0, symName: __ZNKSt3__112basic_stringIcNS_11char_traitsIcEENS_9allocatorIcEEE15__get_long_sizeB7v160006Ev, symObjAddr: 0x16AEC, symBinAddr: 0x1000190E4, symSize: 0x28 }
  - { offsetInCU: 0x42E8A, offset: 0x42E8A, size: 0x8, addend: 0x0, symName: __ZNKSt3__112basic_stringIcNS_11char_traitsIcEENS_9allocatorIcEEE16__get_short_sizeB7v160006Ev, symObjAddr: 0x16B14, symBinAddr: 0x10001910C, symSize: 0x34 }
  - { offsetInCU: 0x42EAF, offset: 0x42EAF, size: 0x8, addend: 0x0, symName: __ZNKSt3__110unique_ptrIA_PNS_16__hash_node_baseIPNS_11__hash_nodeINS_17__hash_value_typeINS_12basic_stringIcNS_11char_traitsIcEENS_9allocatorIcEEEEN6LLVMIR8FuncTypeEEEPvEEEENS_25__bucket_list_deallocatorINS7_ISH_EEEEE11get_deleterB7v160006Ev, symObjAddr: 0x16B48, symBinAddr: 0x100019140, symSize: 0x24 }
  - { offsetInCU: 0x42ED4, offset: 0x42ED4, size: 0x8, addend: 0x0, symName: __ZNKSt3__125__bucket_list_deallocatorINS_9allocatorIPNS_16__hash_node_baseIPNS_11__hash_nodeINS_17__hash_value_typeINS_12basic_stringIcNS_11char_traitsIcEENS1_IcEEEEN6LLVMIR8FuncTypeEEEPvEEEEEEE4sizeB7v160006Ev, symObjAddr: 0x16B6C, symBinAddr: 0x100019164, symSize: 0x28 }
  - { offsetInCU: 0x42EF9, offset: 0x42EF9, size: 0x8, addend: 0x0, symName: __ZNKSt3__117__compressed_pairIPPNS_16__hash_node_baseIPNS_11__hash_nodeINS_17__hash_value_typeINS_12basic_stringIcNS_11char_traitsIcEENS_9allocatorIcEEEEN6LLVMIR8FuncTypeEEEPvEEEENS_25__bucket_list_deallocatorINS7_ISH_EEEEE6secondB7v160006Ev, symObjAddr: 0x16B94, symBinAddr: 0x10001918C, symSize: 0x28 }
  - { offsetInCU: 0x42F1E, offset: 0x42F1E, size: 0x8, addend: 0x0, symName: __ZNKSt3__122__compressed_pair_elemINS_25__bucket_list_deallocatorINS_9allocatorIPNS_16__hash_node_baseIPNS_11__hash_nodeINS_17__hash_value_typeINS_12basic_stringIcNS_11char_traitsIcEENS2_IcEEEEN6LLVMIR8FuncTypeEEEPvEEEEEEEELi1ELb0EE5__getB7v160006Ev, symObjAddr: 0x16BBC, symBinAddr: 0x1000191B4, symSize: 0x14 }
  - { offsetInCU: 0x42F43, offset: 0x42F43, size: 0x8, addend: 0x0, symName: __ZNKSt3__117__compressed_pairImNS_9allocatorIPNS_16__hash_node_baseIPNS_11__hash_nodeINS_17__hash_value_typeINS_12basic_stringIcNS_11char_traitsIcEENS1_IcEEEEN6LLVMIR8FuncTypeEEEPvEEEEEEE5firstB7v160006Ev, symObjAddr: 0x16BD0, symBinAddr: 0x1000191C8, symSize: 0x24 }
  - { offsetInCU: 0x42F68, offset: 0x42F68, size: 0x8, addend: 0x0, symName: __ZNKSt3__117__compressed_pairIPPNS_16__hash_node_baseIPNS_11__hash_nodeINS_17__hash_value_typeINS_12basic_stringIcNS_11char_traitsIcEENS_9allocatorIcEEEEN6LLVMIR8FuncTypeEEEPvEEEENS_25__bucket_list_deallocatorINS7_ISH_EEEEE5firstB7v160006Ev, symObjAddr: 0x16BF4, symBinAddr: 0x1000191EC, symSize: 0x24 }
  - { offsetInCU: 0x42F8D, offset: 0x42F8D, size: 0x8, addend: 0x0, symName: __ZNKSt3__122__compressed_pair_elemIPPNS_16__hash_node_baseIPNS_11__hash_nodeINS_17__hash_value_typeINS_12basic_stringIcNS_11char_traitsIcEENS_9allocatorIcEEEEN6LLVMIR8FuncTypeEEEPvEEEELi0ELb0EE5__getB7v160006Ev, symObjAddr: 0x16C18, symBinAddr: 0x100019210, symSize: 0x14 }
  - { offsetInCU: 0x42FB2, offset: 0x42FB2, size: 0x8, addend: 0x0, symName: __ZNSt3__117__compressed_pairIfNS_21__unordered_map_equalINS_12basic_stringIcNS_11char_traitsIcEENS_9allocatorIcEEEENS_17__hash_value_typeIS7_N6LLVMIR8FuncTypeEEENS_8equal_toIS7_EENS_4hashIS7_EELb1EEEE6secondB7v160006Ev, symObjAddr: 0x16C2C, symBinAddr: 0x100019224, symSize: 0x24 }
  - { offsetInCU: 0x42FD7, offset: 0x42FD7, size: 0x8, addend: 0x0, symName: __ZNSt3__122__compressed_pair_elemINS_21__unordered_map_equalINS_12basic_stringIcNS_11char_traitsIcEENS_9allocatorIcEEEENS_17__hash_value_typeIS7_N6LLVMIR8FuncTypeEEENS_8equal_toIS7_EENS_4hashIS7_EELb1EEELi1ELb1EE5__getB7v160006Ev, symObjAddr: 0x16C50, symBinAddr: 0x100019248, symSize: 0x14 }
  - { offsetInCU: 0x42FFC, offset: 0x42FFC, size: 0x8, addend: 0x0, symName: __ZNKSt3__18equal_toINS_12basic_stringIcNS_11char_traitsIcEENS_9allocatorIcEEEEEclB7v160006ERKS6_S9_, symObjAddr: 0x16C64, symBinAddr: 0x10001925C, symSize: 0x34 }
  - { offsetInCU: 0x4303F, offset: 0x4303F, size: 0x8, addend: 0x0, symName: __ZNKSt3__117__hash_value_typeINS_12basic_stringIcNS_11char_traitsIcEENS_9allocatorIcEEEEN6LLVMIR8FuncTypeEE11__get_valueB7v160006Ev, symObjAddr: 0x16C98, symBinAddr: 0x100019290, symSize: 0x24 }
  - { offsetInCU: 0x43064, offset: 0x43064, size: 0x8, addend: 0x0, symName: __ZNSt3__111char_traitsIcE7compareEPKcS3_m, symObjAddr: 0x16E04, symBinAddr: 0x1000193FC, symSize: 0x6C }
  - { offsetInCU: 0x430A3, offset: 0x430A3, size: 0x8, addend: 0x0, symName: __ZNSt3__116allocator_traitsINS_9allocatorINS_11__hash_nodeINS_17__hash_value_typeINS_12basic_stringIcNS_11char_traitsIcEENS1_IcEEEEN6LLVMIR8FuncTypeEEEPvEEEEE8allocateB7v160006ERSE_m, symObjAddr: 0x16EDC, symBinAddr: 0x1000194D4, symSize: 0x2C }
  - { offsetInCU: 0x430D6, offset: 0x430D6, size: 0x8, addend: 0x0, symName: __ZNSt3__122__hash_node_destructorINS_9allocatorINS_11__hash_nodeINS_17__hash_value_typeINS_12basic_stringIcNS_11char_traitsIcEENS1_IcEEEEN6LLVMIR8FuncTypeEEEPvEEEEEC1B7v160006ERSE_b, symObjAddr: 0x16F08, symBinAddr: 0x100019500, symSize: 0x48 }
  - { offsetInCU: 0x43122, offset: 0x43122, size: 0x8, addend: 0x0, symName: __ZNSt3__110unique_ptrINS_11__hash_nodeINS_17__hash_value_typeINS_12basic_stringIcNS_11char_traitsIcEENS_9allocatorIcEEEEN6LLVMIR8FuncTypeEEEPvEENS_22__hash_node_destructorINS6_ISD_EEEEEC1B7v160006ILb1EvEEPSD_NS_16__dependent_typeINS_27__unique_ptr_deleter_sfinaeISG_EEXT_EE20__good_rval_ref_typeE, symObjAddr: 0x16F50, symBinAddr: 0x100019548, symSize: 0x3C }
  - { offsetInCU: 0x43172, offset: 0x43172, size: 0x8, addend: 0x0, symName: __ZNSt3__116allocator_traitsINS_9allocatorINS_11__hash_nodeINS_17__hash_value_typeINS_12basic_stringIcNS_11char_traitsIcEENS1_IcEEEEN6LLVMIR8FuncTypeEEEPvEEEEE9constructB7v160006INS_4pairIKS8_SA_EEJRKNS_21piecewise_construct_tENS_5tupleIJOS8_EEENSN_IJEEEEvEEvRSE_PT_DpOT0_, symObjAddr: 0x16F8C, symBinAddr: 0x100019584, symSize: 0x44 }
  - { offsetInCU: 0x431F1, offset: 0x431F1, size: 0x8, addend: 0x0, symName: __ZNSt3__110unique_ptrINS_11__hash_nodeINS_17__hash_value_typeINS_12basic_stringIcNS_11char_traitsIcEENS_9allocatorIcEEEEN6LLVMIR8FuncTypeEEEPvEENS_22__hash_node_destructorINS6_ISD_EEEEE11get_deleterB7v160006Ev, symObjAddr: 0x16FD0, symBinAddr: 0x1000195C8, symSize: 0x24 }
  - { offsetInCU: 0x43216, offset: 0x43216, size: 0x8, addend: 0x0, symName: __ZNSt3__19allocatorINS_11__hash_nodeINS_17__hash_value_typeINS_12basic_stringIcNS_11char_traitsIcEENS0_IcEEEEN6LLVMIR8FuncTypeEEEPvEEE8allocateB7v160006Em, symObjAddr: 0x16FF4, symBinAddr: 0x1000195EC, symSize: 0x5C }
  - { offsetInCU: 0x43253, offset: 0x43253, size: 0x8, addend: 0x0, symName: __ZNSt3__116allocator_traitsINS_9allocatorINS_11__hash_nodeINS_17__hash_value_typeINS_12basic_stringIcNS_11char_traitsIcEENS1_IcEEEEN6LLVMIR8FuncTypeEEEPvEEEEE8max_sizeB7v160006ISE_vEEmRKSE_, symObjAddr: 0x17050, symBinAddr: 0x100019648, symSize: 0x24 }
  - { offsetInCU: 0x43281, offset: 0x43281, size: 0x8, addend: 0x0, symName: __ZNKSt3__19allocatorINS_11__hash_nodeINS_17__hash_value_typeINS_12basic_stringIcNS_11char_traitsIcEENS0_IcEEEEN6LLVMIR8FuncTypeEEEPvEEE8max_sizeB7v160006Ev, symObjAddr: 0x17074, symBinAddr: 0x10001966C, symSize: 0x20 }
  - { offsetInCU: 0x432A6, offset: 0x432A6, size: 0x8, addend: 0x0, symName: __ZNSt3__122__hash_node_destructorINS_9allocatorINS_11__hash_nodeINS_17__hash_value_typeINS_12basic_stringIcNS_11char_traitsIcEENS1_IcEEEEN6LLVMIR8FuncTypeEEEPvEEEEEC2B7v160006ERSE_b, symObjAddr: 0x17094, symBinAddr: 0x10001968C, symSize: 0x38 }
  - { offsetInCU: 0x432ED, offset: 0x432ED, size: 0x8, addend: 0x0, symName: __ZNSt3__110unique_ptrINS_11__hash_nodeINS_17__hash_value_typeINS_12basic_stringIcNS_11char_traitsIcEENS_9allocatorIcEEEEN6LLVMIR8FuncTypeEEEPvEENS_22__hash_node_destructorINS6_ISD_EEEEEC2B7v160006ILb1EvEEPSD_NS_16__dependent_typeINS_27__unique_ptr_deleter_sfinaeISG_EEXT_EE20__good_rval_ref_typeE, symObjAddr: 0x170CC, symBinAddr: 0x1000196C4, symSize: 0x48 }
  - { offsetInCU: 0x4333D, offset: 0x4333D, size: 0x8, addend: 0x0, symName: __ZNSt3__117__compressed_pairIPNS_11__hash_nodeINS_17__hash_value_typeINS_12basic_stringIcNS_11char_traitsIcEENS_9allocatorIcEEEEN6LLVMIR8FuncTypeEEEPvEENS_22__hash_node_destructorINS6_ISD_EEEEEC1B7v160006IRSE_SH_EEOT_OT0_, symObjAddr: 0x17114, symBinAddr: 0x10001970C, symSize: 0x3C }
  - { offsetInCU: 0x43394, offset: 0x43394, size: 0x8, addend: 0x0, symName: __ZNSt3__117__compressed_pairIPNS_11__hash_nodeINS_17__hash_value_typeINS_12basic_stringIcNS_11char_traitsIcEENS_9allocatorIcEEEEN6LLVMIR8FuncTypeEEEPvEENS_22__hash_node_destructorINS6_ISD_EEEEEC2B7v160006IRSE_SH_EEOT_OT0_, symObjAddr: 0x17150, symBinAddr: 0x100019748, symSize: 0x48 }
  - { offsetInCU: 0x433EB, offset: 0x433EB, size: 0x8, addend: 0x0, symName: __ZNSt3__122__compressed_pair_elemIPNS_11__hash_nodeINS_17__hash_value_typeINS_12basic_stringIcNS_11char_traitsIcEENS_9allocatorIcEEEEN6LLVMIR8FuncTypeEEEPvEELi0ELb0EEC2B7v160006IRSE_vEEOT_, symObjAddr: 0x17198, symBinAddr: 0x100019790, symSize: 0x24 }
  - { offsetInCU: 0x4342C, offset: 0x4342C, size: 0x8, addend: 0x0, symName: __ZNSt3__122__compressed_pair_elemINS_22__hash_node_destructorINS_9allocatorINS_11__hash_nodeINS_17__hash_value_typeINS_12basic_stringIcNS_11char_traitsIcEENS2_IcEEEEN6LLVMIR8FuncTypeEEEPvEEEEEELi1ELb0EEC2B7v160006ISG_vEEOT_, symObjAddr: 0x171BC, symBinAddr: 0x1000197B4, symSize: 0x24 }
  - { offsetInCU: 0x4346D, offset: 0x4346D, size: 0x8, addend: 0x0, symName: __ZNSt3__19allocatorINS_11__hash_nodeINS_17__hash_value_typeINS_12basic_stringIcNS_11char_traitsIcEENS0_IcEEEEN6LLVMIR8FuncTypeEEEPvEEE9constructB7v160006INS_4pairIKS7_S9_EEJRKNS_21piecewise_construct_tENS_5tupleIJOS7_EEENSL_IJEEEEEEvPT_DpOT0_, symObjAddr: 0x171E0, symBinAddr: 0x1000197D8, symSize: 0x44 }
  - { offsetInCU: 0x434E8, offset: 0x434E8, size: 0x8, addend: 0x0, symName: __ZNSt3__14pairIKNS_12basic_stringIcNS_11char_traitsIcEENS_9allocatorIcEEEEN6LLVMIR8FuncTypeEEC1B7v160006IJOS6_EJEEENS_21piecewise_construct_tENS_5tupleIJDpT_EEENSE_IJDpT0_EEE, symObjAddr: 0x17224, symBinAddr: 0x10001981C, symSize: 0x3C }
  - { offsetInCU: 0x4354E, offset: 0x4354E, size: 0x8, addend: 0x0, symName: __ZNSt3__14pairIKNS_12basic_stringIcNS_11char_traitsIcEENS_9allocatorIcEEEEN6LLVMIR8FuncTypeEEC1B7v160006IJOS6_EJEJLm0EEJEEENS_21piecewise_construct_tERNS_5tupleIJDpT_EEERNSE_IJDpT0_EEENS_15__tuple_indicesIJXspT1_EEEENSN_IJXspT2_EEEE, symObjAddr: 0x17260, symBinAddr: 0x100019858, symSize: 0x3C }
  - { offsetInCU: 0x435DA, offset: 0x435DA, size: 0x8, addend: 0x0, symName: __ZNSt3__14pairIKNS_12basic_stringIcNS_11char_traitsIcEENS_9allocatorIcEEEEN6LLVMIR8FuncTypeEEC2B7v160006IJOS6_EJEJLm0EEJEEENS_21piecewise_construct_tERNS_5tupleIJDpT_EEERNSE_IJDpT0_EEENS_15__tuple_indicesIJXspT1_EEEENSN_IJXspT2_EEEE, symObjAddr: 0x1729C, symBinAddr: 0x100019894, symSize: 0x98 }
  - { offsetInCU: 0x43666, offset: 0x43666, size: 0x8, addend: 0x0, symName: __ZNSt3__112basic_stringIcNS_11char_traitsIcEENS_9allocatorIcEEEC1B7v160006EOS5_, symObjAddr: 0x17358, symBinAddr: 0x100019950, symSize: 0x34 }
  - { offsetInCU: 0x4369E, offset: 0x4369E, size: 0x8, addend: 0x0, symName: __ZNSt3__112__tuple_leafILm0EONS_12basic_stringIcNS_11char_traitsIcEENS_9allocatorIcEEEELb0EE3getB7v160006Ev, symObjAddr: 0x1738C, symBinAddr: 0x100019984, symSize: 0x18 }
  - { offsetInCU: 0x436C3, offset: 0x436C3, size: 0x8, addend: 0x0, symName: __ZNSt3__112basic_stringIcNS_11char_traitsIcEENS_9allocatorIcEEEC2B7v160006EOS5_, symObjAddr: 0x173A4, symBinAddr: 0x10001999C, symSize: 0x80 }
  - { offsetInCU: 0x436FB, offset: 0x436FB, size: 0x8, addend: 0x0, symName: __ZNSt3__117__compressed_pairIPNS_11__hash_nodeINS_17__hash_value_typeINS_12basic_stringIcNS_11char_traitsIcEENS_9allocatorIcEEEEN6LLVMIR8FuncTypeEEEPvEENS_22__hash_node_destructorINS6_ISD_EEEEE6secondB7v160006Ev, symObjAddr: 0x17438, symBinAddr: 0x100019A30, symSize: 0x28 }
  - { offsetInCU: 0x43720, offset: 0x43720, size: 0x8, addend: 0x0, symName: __ZNSt3__122__compressed_pair_elemINS_22__hash_node_destructorINS_9allocatorINS_11__hash_nodeINS_17__hash_value_typeINS_12basic_stringIcNS_11char_traitsIcEENS2_IcEEEEN6LLVMIR8FuncTypeEEEPvEEEEEELi1ELb0EE5__getB7v160006Ev, symObjAddr: 0x17460, symBinAddr: 0x100019A58, symSize: 0x14 }
  - { offsetInCU: 0x43745, offset: 0x43745, size: 0x8, addend: 0x0, symName: __ZNSt3__117__compressed_pairImNS_22__unordered_map_hasherINS_12basic_stringIcNS_11char_traitsIcEENS_9allocatorIcEEEENS_17__hash_value_typeIS7_N6LLVMIR8FuncTypeEEENS_4hashIS7_EENS_8equal_toIS7_EELb1EEEE5firstB7v160006Ev, symObjAddr: 0x17474, symBinAddr: 0x100019A6C, symSize: 0x24 }
  - { offsetInCU: 0x4376A, offset: 0x4376A, size: 0x8, addend: 0x0, symName: __ZNSt3__117__compressed_pairIfNS_21__unordered_map_equalINS_12basic_stringIcNS_11char_traitsIcEENS_9allocatorIcEEEENS_17__hash_value_typeIS7_N6LLVMIR8FuncTypeEEENS_8equal_toIS7_EENS_4hashIS7_EELb1EEEE5firstB7v160006Ev, symObjAddr: 0x17498, symBinAddr: 0x100019A90, symSize: 0x24 }
  - { offsetInCU: 0x4378F, offset: 0x4378F, size: 0x8, addend: 0x0, symName: __ZNSt3__122__compressed_pair_elemIfLi0ELb0EE5__getB7v160006Ev, symObjAddr: 0x174BC, symBinAddr: 0x100019AB4, symSize: 0x14 }
  - { offsetInCU: 0x437B3, offset: 0x437B3, size: 0x8, addend: 0x0, symName: __ZNSt3__112__hash_tableINS_17__hash_value_typeINS_12basic_stringIcNS_11char_traitsIcEENS_9allocatorIcEEEEN6LLVMIR8FuncTypeEEENS_22__unordered_map_hasherIS7_SA_NS_4hashIS7_EENS_8equal_toIS7_EELb1EEENS_21__unordered_map_equalIS7_SA_SF_SD_Lb1EEENS5_ISA_EEE8__rehashILb1EEEvm, symObjAddr: 0x174D0, symBinAddr: 0x100019AC8, symSize: 0x1A8 }
  - { offsetInCU: 0x43801, offset: 0x43801, size: 0x8, addend: 0x0, symName: __ZNSt3__112__hash_tableINS_17__hash_value_typeINS_12basic_stringIcNS_11char_traitsIcEENS_9allocatorIcEEEEN6LLVMIR8FuncTypeEEENS_22__unordered_map_hasherIS7_SA_NS_4hashIS7_EENS_8equal_toIS7_EELb1EEENS_21__unordered_map_equalIS7_SA_SF_SD_Lb1EEENS5_ISA_EEE11__do_rehashILb1EEEvm, symObjAddr: 0x17678, symBinAddr: 0x100019C70, symSize: 0x290 }
  - { offsetInCU: 0x438E3, offset: 0x438E3, size: 0x8, addend: 0x0, symName: __ZNSt3__110unique_ptrIA_PNS_16__hash_node_baseIPNS_11__hash_nodeINS_17__hash_value_typeINS_12basic_stringIcNS_11char_traitsIcEENS_9allocatorIcEEEEN6LLVMIR8FuncTypeEEEPvEEEENS_25__bucket_list_deallocatorINS7_ISH_EEEEE11get_deleterB7v160006Ev, symObjAddr: 0x17984, symBinAddr: 0x100019F7C, symSize: 0x24 }
  - { offsetInCU: 0x43908, offset: 0x43908, size: 0x8, addend: 0x0, symName: __ZNSt3__110unique_ptrIA_PNS_16__hash_node_baseIPNS_11__hash_nodeINS_17__hash_value_typeINS_12basic_stringIcNS_11char_traitsIcEENS_9allocatorIcEEEEN6LLVMIR8FuncTypeEEEPvEEEENS_25__bucket_list_deallocatorINS7_ISH_EEEEE5resetB7v160006IPSH_EENS_9enable_ifIXsr28_CheckArrayPointerConversionIT_EE5valueEvE4typeESQ_, symObjAddr: 0x179A8, symBinAddr: 0x100019FA0, symSize: 0x78 }
  - { offsetInCU: 0x43954, offset: 0x43954, size: 0x8, addend: 0x0, symName: __ZNSt3__116allocator_traitsINS_9allocatorIPNS_16__hash_node_baseIPNS_11__hash_nodeINS_17__hash_value_typeINS_12basic_stringIcNS_11char_traitsIcEENS1_IcEEEEN6LLVMIR8FuncTypeEEEPvEEEEEEE8allocateB7v160006ERSI_m, symObjAddr: 0x17A20, symBinAddr: 0x10001A018, symSize: 0x2C }
  - { offsetInCU: 0x43987, offset: 0x43987, size: 0x8, addend: 0x0, symName: __ZNSt3__19allocatorIPNS_16__hash_node_baseIPNS_11__hash_nodeINS_17__hash_value_typeINS_12basic_stringIcNS_11char_traitsIcEENS0_IcEEEEN6LLVMIR8FuncTypeEEEPvEEEEE8allocateB7v160006Em, symObjAddr: 0x17A4C, symBinAddr: 0x10001A044, symSize: 0x58 }
  - { offsetInCU: 0x439C4, offset: 0x439C4, size: 0x8, addend: 0x0, symName: __ZNSt3__116allocator_traitsINS_9allocatorIPNS_16__hash_node_baseIPNS_11__hash_nodeINS_17__hash_value_typeINS_12basic_stringIcNS_11char_traitsIcEENS1_IcEEEEN6LLVMIR8FuncTypeEEEPvEEEEEEE8max_sizeB7v160006ISI_vEEmRKSI_, symObjAddr: 0x17AA4, symBinAddr: 0x10001A09C, symSize: 0x24 }
  - { offsetInCU: 0x439F2, offset: 0x439F2, size: 0x8, addend: 0x0, symName: __ZNKSt3__19allocatorIPNS_16__hash_node_baseIPNS_11__hash_nodeINS_17__hash_value_typeINS_12basic_stringIcNS_11char_traitsIcEENS0_IcEEEEN6LLVMIR8FuncTypeEEEPvEEEEE8max_sizeB7v160006Ev, symObjAddr: 0x17AC8, symBinAddr: 0x10001A0C0, symSize: 0x14 }
  - { offsetInCU: 0x43A17, offset: 0x43A17, size: 0x8, addend: 0x0, symName: __ZNKSt3__117__compressed_pairIPNS_11__hash_nodeINS_17__hash_value_typeINS_12basic_stringIcNS_11char_traitsIcEENS_9allocatorIcEEEEN6LLVMIR8FuncTypeEEEPvEENS_22__hash_node_destructorINS6_ISD_EEEEE5firstB7v160006Ev, symObjAddr: 0x17AF8, symBinAddr: 0x10001A0F0, symSize: 0x24 }
  - { offsetInCU: 0x43A3C, offset: 0x43A3C, size: 0x8, addend: 0x0, symName: __ZNKSt3__122__compressed_pair_elemIPNS_11__hash_nodeINS_17__hash_value_typeINS_12basic_stringIcNS_11char_traitsIcEENS_9allocatorIcEEEEN6LLVMIR8FuncTypeEEEPvEELi0ELb0EE5__getB7v160006Ev, symObjAddr: 0x17B1C, symBinAddr: 0x10001A114, symSize: 0x14 }
  - { offsetInCU: 0x43A61, offset: 0x43A61, size: 0x8, addend: 0x0, symName: __ZNSt3__117__compressed_pairIPNS_11__hash_nodeINS_17__hash_value_typeINS_12basic_stringIcNS_11char_traitsIcEENS_9allocatorIcEEEEN6LLVMIR8FuncTypeEEEPvEENS_22__hash_node_destructorINS6_ISD_EEEEE5firstB7v160006Ev, symObjAddr: 0x17B30, symBinAddr: 0x10001A128, symSize: 0x24 }
  - { offsetInCU: 0x43A86, offset: 0x43A86, size: 0x8, addend: 0x0, symName: __ZNSt3__122__compressed_pair_elemIPNS_11__hash_nodeINS_17__hash_value_typeINS_12basic_stringIcNS_11char_traitsIcEENS_9allocatorIcEEEEN6LLVMIR8FuncTypeEEEPvEELi0ELb0EE5__getB7v160006Ev, symObjAddr: 0x17B54, symBinAddr: 0x10001A14C, symSize: 0x14 }
  - { offsetInCU: 0x43AAB, offset: 0x43AAB, size: 0x8, addend: 0x0, symName: __ZNSt3__110unique_ptrINS_11__hash_nodeINS_17__hash_value_typeINS_12basic_stringIcNS_11char_traitsIcEENS_9allocatorIcEEEEN6LLVMIR8FuncTypeEEEPvEENS_22__hash_node_destructorINS6_ISD_EEEEED2B7v160006Ev, symObjAddr: 0x17B68, symBinAddr: 0x10001A160, symSize: 0x30 }
  - { offsetInCU: 0x43AD4, offset: 0x43AD4, size: 0x8, addend: 0x0, symName: __ZNSt3__110unique_ptrINS_11__hash_nodeINS_17__hash_value_typeINS_12basic_stringIcNS_11char_traitsIcEENS_9allocatorIcEEEEN6LLVMIR8FuncTypeEEEPvEENS_22__hash_node_destructorINS6_ISD_EEEEE5resetB7v160006EPSD_, symObjAddr: 0x17B98, symBinAddr: 0x10001A190, symSize: 0x78 }
  - { offsetInCU: 0x43B17, offset: 0x43B17, size: 0x8, addend: 0x0, symName: __ZNSt3__122__hash_node_destructorINS_9allocatorINS_11__hash_nodeINS_17__hash_value_typeINS_12basic_stringIcNS_11char_traitsIcEENS1_IcEEEEN6LLVMIR8FuncTypeEEEPvEEEEEclB7v160006EPSD_, symObjAddr: 0x17C10, symBinAddr: 0x10001A208, symSize: 0x94 }
  - { offsetInCU: 0x43B4B, offset: 0x43B4B, size: 0x8, addend: 0x0, symName: __ZNSt3__115__hash_iteratorIPNS_11__hash_nodeINS_17__hash_value_typeINS_12basic_stringIcNS_11char_traitsIcEENS_9allocatorIcEEEEN6LLVMIR8FuncTypeEEEPvEEEC2B7v160006EPNS_16__hash_node_baseISE_EEPKv, symObjAddr: 0x17CA4, symBinAddr: 0x10001A29C, symSize: 0x24 }
  - { offsetInCU: 0x43B92, offset: 0x43B92, size: 0x8, addend: 0x0, symName: __ZNSt3__14pairINS_15__hash_iteratorIPNS_11__hash_nodeINS_17__hash_value_typeINS_12basic_stringIcNS_11char_traitsIcEENS_9allocatorIcEEEEN6LLVMIR8FuncTypeEEEPvEEEEbEC2B7v160006ISG_RbLSD_0EEEOT_OT0_, symObjAddr: 0x17CC8, symBinAddr: 0x10001A2C0, symSize: 0x38 }
  - { offsetInCU: 0x43BEF, offset: 0x43BEF, size: 0x8, addend: 0x0, symName: __ZNSt3__15tupleIJONS_12basic_stringIcNS_11char_traitsIcEENS_9allocatorIcEEEEEEC1B7v160006IJS6_ELi0EEEDpOT_, symObjAddr: 0x17D00, symBinAddr: 0x10001A2F8, symSize: 0x34 }
  - { offsetInCU: 0x43C38, offset: 0x43C38, size: 0x8, addend: 0x0, symName: __ZNSt3__15tupleIJONS_12basic_stringIcNS_11char_traitsIcEENS_9allocatorIcEEEEEEC2B7v160006IJS6_ELi0EEEDpOT_, symObjAddr: 0x17D34, symBinAddr: 0x10001A32C, symSize: 0x34 }
  - { offsetInCU: 0x43C81, offset: 0x43C81, size: 0x8, addend: 0x0, symName: __ZNSt3__112__tuple_implINS_15__tuple_indicesIJLm0EEEEJONS_12basic_stringIcNS_11char_traitsIcEENS_9allocatorIcEEEEEEC1B7v160006IJLm0EEJS9_EJEJEJS8_EEENS1_IJXspT_EEEENS_13__tuple_typesIJDpT0_EEENS1_IJXspT1_EEEENSD_IJDpT2_EEEDpOT3_, symObjAddr: 0x17D68, symBinAddr: 0x10001A360, symSize: 0x34 }
  - { offsetInCU: 0x43D11, offset: 0x43D11, size: 0x8, addend: 0x0, symName: __ZNSt3__112__tuple_implINS_15__tuple_indicesIJLm0EEEEJONS_12basic_stringIcNS_11char_traitsIcEENS_9allocatorIcEEEEEEC2B7v160006IJLm0EEJS9_EJEJEJS8_EEENS1_IJXspT_EEEENS_13__tuple_typesIJDpT0_EEENS1_IJXspT1_EEEENSD_IJDpT2_EEEDpOT3_, symObjAddr: 0x17D9C, symBinAddr: 0x10001A394, symSize: 0x34 }
  - { offsetInCU: 0x43DA1, offset: 0x43DA1, size: 0x8, addend: 0x0, symName: __ZNSt3__112__tuple_leafILm0EONS_12basic_stringIcNS_11char_traitsIcEENS_9allocatorIcEEEELb0EEC2B7v160006IS6_vEEOT_, symObjAddr: 0x17DD0, symBinAddr: 0x10001A3C8, symSize: 0x20 }
  - { offsetInCU: 0x43DE3, offset: 0x43DE3, size: 0x8, addend: 0x0, symName: __ZNSt3__114pointer_traitsIPNS_17__hash_value_typeINS_12basic_stringIcNS_11char_traitsIcEENS_9allocatorIcEEEEN6LLVMIR8FuncTypeEEEE10pointer_toB7v160006ERSA_, symObjAddr: 0x17DF0, symBinAddr: 0x10001A3E8, symSize: 0x14 }
  - { offsetInCU: 0x43E06, offset: 0x43E06, size: 0x8, addend: 0x0, symName: __ZNSt3__16vectorIP18aA_programElement_NS_9allocatorIS2_EEE11__make_iterB7v160006EPS2_, symObjAddr: 0x17E04, symBinAddr: 0x10001A3FC, symSize: 0x34 }
  - { offsetInCU: 0x43E3A, offset: 0x43E3A, size: 0x8, addend: 0x0, symName: __ZNSt3__111__wrap_iterIPP18aA_programElement_EC1B7v160006EPKvS3_, symObjAddr: 0x17E38, symBinAddr: 0x10001A430, symSize: 0x3C }
  - { offsetInCU: 0x43E7F, offset: 0x43E7F, size: 0x8, addend: 0x0, symName: __ZNSt3__111__wrap_iterIPP18aA_programElement_EC2B7v160006EPKvS3_, symObjAddr: 0x17E74, symBinAddr: 0x10001A46C, symSize: 0x24 }
  - { offsetInCU: 0x43EC4, offset: 0x43EC4, size: 0x8, addend: 0x0, symName: __ZNSt3__112__hash_tableINS_17__hash_value_typeINS_12basic_stringIcNS_11char_traitsIcEENS_9allocatorIcEEEEP9Name_nameEENS_22__unordered_map_hasherIS7_SA_NS_4hashIS7_EENS_8equal_toIS7_EELb1EEENS_21__unordered_map_equalIS7_SA_SF_SD_Lb1EEENS5_ISA_EEE16__emplace_uniqueB7v160006IRS7_S9_EENS_9enable_ifIXsr21__can_extract_map_keyIT_S7_NS_4pairIKS7_S9_EEEE5valueENSP_INS_15__hash_iteratorIPNS_11__hash_nodeISA_PvEEEEbEEE4typeEOSO_OT0_, symObjAddr: 0x17E98, symBinAddr: 0x10001A490, symSize: 0x48 }
  - { offsetInCU: 0x43F19, offset: 0x43F19, size: 0x8, addend: 0x0, symName: __ZNSt3__14pairINS_19__hash_map_iteratorINS_15__hash_iteratorIPNS_11__hash_nodeINS_17__hash_value_typeINS_12basic_stringIcNS_11char_traitsIcEENS_9allocatorIcEEEEP9Name_nameEEPvEEEEEEbEC1B7v160006ISH_bLSE_0EEEONS0_IT_T0_EE, symObjAddr: 0x17EE0, symBinAddr: 0x10001A4D8, symSize: 0x34 }
  - { offsetInCU: 0x43F68, offset: 0x43F68, size: 0x8, addend: 0x0, symName: __ZNSt3__112__hash_tableINS_17__hash_value_typeINS_12basic_stringIcNS_11char_traitsIcEENS_9allocatorIcEEEEP9Name_nameEENS_22__unordered_map_hasherIS7_SA_NS_4hashIS7_EENS_8equal_toIS7_EELb1EEENS_21__unordered_map_equalIS7_SA_SF_SD_Lb1EEENS5_ISA_EEE25__emplace_unique_key_argsIS7_JRS7_S9_EEENS_4pairINS_15__hash_iteratorIPNS_11__hash_nodeISA_PvEEEEbEERKT_DpOT0_, symObjAddr: 0x17F14, symBinAddr: 0x10001A50C, symSize: 0x4AC }
  - { offsetInCU: 0x4405D, offset: 0x4405D, size: 0x8, addend: 0x0, symName: __ZNSt3__112__hash_tableINS_17__hash_value_typeINS_12basic_stringIcNS_11char_traitsIcEENS_9allocatorIcEEEEP9Name_nameEENS_22__unordered_map_hasherIS7_SA_NS_4hashIS7_EENS_8equal_toIS7_EELb1EEENS_21__unordered_map_equalIS7_SA_SF_SD_Lb1EEENS5_ISA_EEE13hash_functionB7v160006Ev, symObjAddr: 0x183C0, symBinAddr: 0x10001A9B8, symSize: 0x28 }
  - { offsetInCU: 0x44082, offset: 0x44082, size: 0x8, addend: 0x0, symName: __ZNKSt3__122__unordered_map_hasherINS_12basic_stringIcNS_11char_traitsIcEENS_9allocatorIcEEEENS_17__hash_value_typeIS6_P9Name_nameEENS_4hashIS6_EENS_8equal_toIS6_EELb1EEclB7v160006ERKS6_, symObjAddr: 0x183E8, symBinAddr: 0x10001A9E0, symSize: 0x2C }
  - { offsetInCU: 0x440B6, offset: 0x440B6, size: 0x8, addend: 0x0, symName: __ZNKSt3__112__hash_tableINS_17__hash_value_typeINS_12basic_stringIcNS_11char_traitsIcEENS_9allocatorIcEEEEP9Name_nameEENS_22__unordered_map_hasherIS7_SA_NS_4hashIS7_EENS_8equal_toIS7_EELb1EEENS_21__unordered_map_equalIS7_SA_SF_SD_Lb1EEENS5_ISA_EEE12bucket_countB7v160006Ev, symObjAddr: 0x18414, symBinAddr: 0x10001AA0C, symSize: 0x28 }
  - { offsetInCU: 0x440DB, offset: 0x440DB, size: 0x8, addend: 0x0, symName: __ZNKSt3__110unique_ptrIA_PNS_16__hash_node_baseIPNS_11__hash_nodeINS_17__hash_value_typeINS_12basic_stringIcNS_11char_traitsIcEENS_9allocatorIcEEEEP9Name_nameEEPvEEEENS_25__bucket_list_deallocatorINS7_ISH_EEEEEixB7v160006Em, symObjAddr: 0x1843C, symBinAddr: 0x10001AA34, symSize: 0x34 }
  - { offsetInCU: 0x4410F, offset: 0x4410F, size: 0x8, addend: 0x0, symName: __ZNKSt3__116__hash_node_baseIPNS_11__hash_nodeINS_17__hash_value_typeINS_12basic_stringIcNS_11char_traitsIcEENS_9allocatorIcEEEEP9Name_nameEEPvEEE6__hashB7v160006Ev, symObjAddr: 0x18470, symBinAddr: 0x10001AA68, symSize: 0x18 }
  - { offsetInCU: 0x44134, offset: 0x44134, size: 0x8, addend: 0x0, symName: __ZNSt3__112__hash_tableINS_17__hash_value_typeINS_12basic_stringIcNS_11char_traitsIcEENS_9allocatorIcEEEEP9Name_nameEENS_22__unordered_map_hasherIS7_SA_NS_4hashIS7_EENS_8equal_toIS7_EELb1EEENS_21__unordered_map_equalIS7_SA_SF_SD_Lb1EEENS5_ISA_EEE6key_eqB7v160006Ev, symObjAddr: 0x18488, symBinAddr: 0x10001AA80, symSize: 0x28 }
  - { offsetInCU: 0x44159, offset: 0x44159, size: 0x8, addend: 0x0, symName: __ZNKSt3__121__unordered_map_equalINS_12basic_stringIcNS_11char_traitsIcEENS_9allocatorIcEEEENS_17__hash_value_typeIS6_P9Name_nameEENS_8equal_toIS6_EENS_4hashIS6_EELb1EEclB7v160006ERKSA_RKS6_, symObjAddr: 0x184B0, symBinAddr: 0x10001AAA8, symSize: 0x48 }
  - { offsetInCU: 0x4419B, offset: 0x4419B, size: 0x8, addend: 0x0, symName: __ZNSt3__112__hash_tableINS_17__hash_value_typeINS_12basic_stringIcNS_11char_traitsIcEENS_9allocatorIcEEEEP9Name_nameEENS_22__unordered_map_hasherIS7_SA_NS_4hashIS7_EENS_8equal_toIS7_EELb1EEENS_21__unordered_map_equalIS7_SA_SF_SD_Lb1EEENS5_ISA_EEE21__construct_node_hashIRS7_JS9_EEENS_10unique_ptrINS_11__hash_nodeISA_PvEENS_22__hash_node_destructorINS5_ISQ_EEEEEEmOT_DpOT0_, symObjAddr: 0x184F8, symBinAddr: 0x10001AAF0, symSize: 0x148 }
  - { offsetInCU: 0x44222, offset: 0x44222, size: 0x8, addend: 0x0, symName: __ZNSt3__112__hash_tableINS_17__hash_value_typeINS_12basic_stringIcNS_11char_traitsIcEENS_9allocatorIcEEEEP9Name_nameEENS_22__unordered_map_hasherIS7_SA_NS_4hashIS7_EENS_8equal_toIS7_EELb1EEENS_21__unordered_map_equalIS7_SA_SF_SD_Lb1EEENS5_ISA_EEE4sizeB7v160006Ev, symObjAddr: 0x18640, symBinAddr: 0x10001AC38, symSize: 0x28 }
  - { offsetInCU: 0x44247, offset: 0x44247, size: 0x8, addend: 0x0, symName: __ZNSt3__112__hash_tableINS_17__hash_value_typeINS_12basic_stringIcNS_11char_traitsIcEENS_9allocatorIcEEEEP9Name_nameEENS_22__unordered_map_hasherIS7_SA_NS_4hashIS7_EENS_8equal_toIS7_EELb1EEENS_21__unordered_map_equalIS7_SA_SF_SD_Lb1EEENS5_ISA_EEE15max_load_factorB7v160006Ev, symObjAddr: 0x18668, symBinAddr: 0x10001AC60, symSize: 0x28 }
  - { offsetInCU: 0x4426C, offset: 0x4426C, size: 0x8, addend: 0x0, symName: __ZNSt3__112__hash_tableINS_17__hash_value_typeINS_12basic_stringIcNS_11char_traitsIcEENS_9allocatorIcEEEEP9Name_nameEENS_22__unordered_map_hasherIS7_SA_NS_4hashIS7_EENS_8equal_toIS7_EELb1EEENS_21__unordered_map_equalIS7_SA_SF_SD_Lb1EEENS5_ISA_EEE15__rehash_uniqueB7v160006Em, symObjAddr: 0x18690, symBinAddr: 0x10001AC88, symSize: 0x2C }
  - { offsetInCU: 0x442A0, offset: 0x442A0, size: 0x8, addend: 0x0, symName: __ZNSt3__116__hash_node_baseIPNS_11__hash_nodeINS_17__hash_value_typeINS_12basic_stringIcNS_11char_traitsIcEENS_9allocatorIcEEEEP9Name_nameEEPvEEE5__ptrB7v160006Ev, symObjAddr: 0x186BC, symBinAddr: 0x10001ACB4, symSize: 0x24 }
  - { offsetInCU: 0x442C5, offset: 0x442C5, size: 0x8, addend: 0x0, symName: __ZNKSt3__110unique_ptrINS_11__hash_nodeINS_17__hash_value_typeINS_12basic_stringIcNS_11char_traitsIcEENS_9allocatorIcEEEEP9Name_nameEEPvEENS_22__hash_node_destructorINS6_ISD_EEEEEptB7v160006Ev, symObjAddr: 0x186E0, symBinAddr: 0x10001ACD8, symSize: 0x28 }
  - { offsetInCU: 0x442EA, offset: 0x442EA, size: 0x8, addend: 0x0, symName: __ZNKSt3__110unique_ptrINS_11__hash_nodeINS_17__hash_value_typeINS_12basic_stringIcNS_11char_traitsIcEENS_9allocatorIcEEEEP9Name_nameEEPvEENS_22__hash_node_destructorINS6_ISD_EEEEE3getB7v160006Ev, symObjAddr: 0x18708, symBinAddr: 0x10001AD00, symSize: 0x28 }
  - { offsetInCU: 0x4430F, offset: 0x4430F, size: 0x8, addend: 0x0, symName: __ZNSt3__110unique_ptrINS_11__hash_nodeINS_17__hash_value_typeINS_12basic_stringIcNS_11char_traitsIcEENS_9allocatorIcEEEEP9Name_nameEEPvEENS_22__hash_node_destructorINS6_ISD_EEEEE7releaseB7v160006Ev, symObjAddr: 0x18730, symBinAddr: 0x10001AD28, symSize: 0x44 }
  - { offsetInCU: 0x44343, offset: 0x44343, size: 0x8, addend: 0x0, symName: __ZNSt3__110unique_ptrINS_11__hash_nodeINS_17__hash_value_typeINS_12basic_stringIcNS_11char_traitsIcEENS_9allocatorIcEEEEP9Name_nameEEPvEENS_22__hash_node_destructorINS6_ISD_EEEEED1B7v160006Ev, symObjAddr: 0x18774, symBinAddr: 0x10001AD6C, symSize: 0x2C }
  - { offsetInCU: 0x4436C, offset: 0x4436C, size: 0x8, addend: 0x0, symName: __ZNSt3__115__hash_iteratorIPNS_11__hash_nodeINS_17__hash_value_typeINS_12basic_stringIcNS_11char_traitsIcEENS_9allocatorIcEEEEP9Name_nameEEPvEEEC1B7v160006EPNS_16__hash_node_baseISE_EEPKv, symObjAddr: 0x187A0, symBinAddr: 0x10001AD98, symSize: 0x3C }
  - { offsetInCU: 0x443B8, offset: 0x443B8, size: 0x8, addend: 0x0, symName: __ZNSt3__14pairINS_15__hash_iteratorIPNS_11__hash_nodeINS_17__hash_value_typeINS_12basic_stringIcNS_11char_traitsIcEENS_9allocatorIcEEEEP9Name_nameEEPvEEEEbEC1B7v160006ISG_RbLSD_0EEEOT_OT0_, symObjAddr: 0x187DC, symBinAddr: 0x10001ADD4, symSize: 0x3C }
  - { offsetInCU: 0x44415, offset: 0x44415, size: 0x8, addend: 0x0, symName: __ZNSt3__117__compressed_pairImNS_22__unordered_map_hasherINS_12basic_stringIcNS_11char_traitsIcEENS_9allocatorIcEEEENS_17__hash_value_typeIS7_P9Name_nameEENS_4hashIS7_EENS_8equal_toIS7_EELb1EEEE6secondB7v160006Ev, symObjAddr: 0x18818, symBinAddr: 0x10001AE10, symSize: 0x24 }
  - { offsetInCU: 0x4443A, offset: 0x4443A, size: 0x8, addend: 0x0, symName: __ZNSt3__122__compressed_pair_elemINS_22__unordered_map_hasherINS_12basic_stringIcNS_11char_traitsIcEENS_9allocatorIcEEEENS_17__hash_value_typeIS7_P9Name_nameEENS_4hashIS7_EENS_8equal_toIS7_EELb1EEELi1ELb1EE5__getB7v160006Ev, symObjAddr: 0x1883C, symBinAddr: 0x10001AE34, symSize: 0x14 }
  - { offsetInCU: 0x4445F, offset: 0x4445F, size: 0x8, addend: 0x0, symName: __ZNKSt3__110unique_ptrIA_PNS_16__hash_node_baseIPNS_11__hash_nodeINS_17__hash_value_typeINS_12basic_stringIcNS_11char_traitsIcEENS_9allocatorIcEEEEP9Name_nameEEPvEEEENS_25__bucket_list_deallocatorINS7_ISH_EEEEE11get_deleterB7v160006Ev, symObjAddr: 0x18850, symBinAddr: 0x10001AE48, symSize: 0x24 }
  - { offsetInCU: 0x44484, offset: 0x44484, size: 0x8, addend: 0x0, symName: __ZNKSt3__125__bucket_list_deallocatorINS_9allocatorIPNS_16__hash_node_baseIPNS_11__hash_nodeINS_17__hash_value_typeINS_12basic_stringIcNS_11char_traitsIcEENS1_IcEEEEP9Name_nameEEPvEEEEEEE4sizeB7v160006Ev, symObjAddr: 0x18874, symBinAddr: 0x10001AE6C, symSize: 0x28 }
  - { offsetInCU: 0x444A9, offset: 0x444A9, size: 0x8, addend: 0x0, symName: __ZNKSt3__117__compressed_pairIPPNS_16__hash_node_baseIPNS_11__hash_nodeINS_17__hash_value_typeINS_12basic_stringIcNS_11char_traitsIcEENS_9allocatorIcEEEEP9Name_nameEEPvEEEENS_25__bucket_list_deallocatorINS7_ISH_EEEEE6secondB7v160006Ev, symObjAddr: 0x1889C, symBinAddr: 0x10001AE94, symSize: 0x28 }
  - { offsetInCU: 0x444CE, offset: 0x444CE, size: 0x8, addend: 0x0, symName: __ZNKSt3__122__compressed_pair_elemINS_25__bucket_list_deallocatorINS_9allocatorIPNS_16__hash_node_baseIPNS_11__hash_nodeINS_17__hash_value_typeINS_12basic_stringIcNS_11char_traitsIcEENS2_IcEEEEP9Name_nameEEPvEEEEEEEELi1ELb0EE5__getB7v160006Ev, symObjAddr: 0x188C4, symBinAddr: 0x10001AEBC, symSize: 0x14 }
  - { offsetInCU: 0x444F3, offset: 0x444F3, size: 0x8, addend: 0x0, symName: __ZNKSt3__117__compressed_pairImNS_9allocatorIPNS_16__hash_node_baseIPNS_11__hash_nodeINS_17__hash_value_typeINS_12basic_stringIcNS_11char_traitsIcEENS1_IcEEEEP9Name_nameEEPvEEEEEEE5firstB7v160006Ev, symObjAddr: 0x188D8, symBinAddr: 0x10001AED0, symSize: 0x24 }
  - { offsetInCU: 0x44518, offset: 0x44518, size: 0x8, addend: 0x0, symName: __ZNKSt3__117__compressed_pairIPPNS_16__hash_node_baseIPNS_11__hash_nodeINS_17__hash_value_typeINS_12basic_stringIcNS_11char_traitsIcEENS_9allocatorIcEEEEP9Name_nameEEPvEEEENS_25__bucket_list_deallocatorINS7_ISH_EEEEE5firstB7v160006Ev, symObjAddr: 0x188FC, symBinAddr: 0x10001AEF4, symSize: 0x24 }
  - { offsetInCU: 0x4453D, offset: 0x4453D, size: 0x8, addend: 0x0, symName: __ZNKSt3__122__compressed_pair_elemIPPNS_16__hash_node_baseIPNS_11__hash_nodeINS_17__hash_value_typeINS_12basic_stringIcNS_11char_traitsIcEENS_9allocatorIcEEEEP9Name_nameEEPvEEEELi0ELb0EE5__getB7v160006Ev, symObjAddr: 0x18920, symBinAddr: 0x10001AF18, symSize: 0x14 }
  - { offsetInCU: 0x44562, offset: 0x44562, size: 0x8, addend: 0x0, symName: __ZNSt3__117__compressed_pairIfNS_21__unordered_map_equalINS_12basic_stringIcNS_11char_traitsIcEENS_9allocatorIcEEEENS_17__hash_value_typeIS7_P9Name_nameEENS_8equal_toIS7_EENS_4hashIS7_EELb1EEEE6secondB7v160006Ev, symObjAddr: 0x18934, symBinAddr: 0x10001AF2C, symSize: 0x24 }
  - { offsetInCU: 0x44587, offset: 0x44587, size: 0x8, addend: 0x0, symName: __ZNSt3__122__compressed_pair_elemINS_21__unordered_map_equalINS_12basic_stringIcNS_11char_traitsIcEENS_9allocatorIcEEEENS_17__hash_value_typeIS7_P9Name_nameEENS_8equal_toIS7_EENS_4hashIS7_EELb1EEELi1ELb1EE5__getB7v160006Ev, symObjAddr: 0x18958, symBinAddr: 0x10001AF50, symSize: 0x14 }
  - { offsetInCU: 0x445AC, offset: 0x445AC, size: 0x8, addend: 0x0, symName: __ZNKSt3__117__hash_value_typeINS_12basic_stringIcNS_11char_traitsIcEENS_9allocatorIcEEEEP9Name_nameE11__get_valueB7v160006Ev, symObjAddr: 0x1896C, symBinAddr: 0x10001AF64, symSize: 0x24 }
  - { offsetInCU: 0x445D1, offset: 0x445D1, size: 0x8, addend: 0x0, symName: __ZNSt3__116allocator_traitsINS_9allocatorINS_11__hash_nodeINS_17__hash_value_typeINS_12basic_stringIcNS_11char_traitsIcEENS1_IcEEEEP9Name_nameEEPvEEEEE8allocateB7v160006ERSE_m, symObjAddr: 0x189C8, symBinAddr: 0x10001AFC0, symSize: 0x2C }
  - { offsetInCU: 0x44604, offset: 0x44604, size: 0x8, addend: 0x0, symName: __ZNSt3__122__hash_node_destructorINS_9allocatorINS_11__hash_nodeINS_17__hash_value_typeINS_12basic_stringIcNS_11char_traitsIcEENS1_IcEEEEP9Name_nameEEPvEEEEEC1B7v160006ERSE_b, symObjAddr: 0x189F4, symBinAddr: 0x10001AFEC, symSize: 0x48 }
  - { offsetInCU: 0x44650, offset: 0x44650, size: 0x8, addend: 0x0, symName: __ZNSt3__110unique_ptrINS_11__hash_nodeINS_17__hash_value_typeINS_12basic_stringIcNS_11char_traitsIcEENS_9allocatorIcEEEEP9Name_nameEEPvEENS_22__hash_node_destructorINS6_ISD_EEEEEC1B7v160006ILb1EvEEPSD_NS_16__dependent_typeINS_27__unique_ptr_deleter_sfinaeISG_EEXT_EE20__good_rval_ref_typeE, symObjAddr: 0x18A3C, symBinAddr: 0x10001B034, symSize: 0x3C }
  - { offsetInCU: 0x446A0, offset: 0x446A0, size: 0x8, addend: 0x0, symName: __ZNSt3__116allocator_traitsINS_9allocatorINS_11__hash_nodeINS_17__hash_value_typeINS_12basic_stringIcNS_11char_traitsIcEENS1_IcEEEEP9Name_nameEEPvEEEEE9constructB7v160006INS_4pairIKS8_SA_EEJRS8_SA_EvEEvRSE_PT_DpOT0_, symObjAddr: 0x18A78, symBinAddr: 0x10001B070, symSize: 0x3C }
  - { offsetInCU: 0x4470B, offset: 0x4470B, size: 0x8, addend: 0x0, symName: __ZNSt3__110unique_ptrINS_11__hash_nodeINS_17__hash_value_typeINS_12basic_stringIcNS_11char_traitsIcEENS_9allocatorIcEEEEP9Name_nameEEPvEENS_22__hash_node_destructorINS6_ISD_EEEEE11get_deleterB7v160006Ev, symObjAddr: 0x18AB4, symBinAddr: 0x10001B0AC, symSize: 0x24 }
  - { offsetInCU: 0x44730, offset: 0x44730, size: 0x8, addend: 0x0, symName: __ZNSt3__19allocatorINS_11__hash_nodeINS_17__hash_value_typeINS_12basic_stringIcNS_11char_traitsIcEENS0_IcEEEEP9Name_nameEEPvEEE8allocateB7v160006Em, symObjAddr: 0x18AD8, symBinAddr: 0x10001B0D0, symSize: 0x5C }
  - { offsetInCU: 0x4476D, offset: 0x4476D, size: 0x8, addend: 0x0, symName: __ZNSt3__116allocator_traitsINS_9allocatorINS_11__hash_nodeINS_17__hash_value_typeINS_12basic_stringIcNS_11char_traitsIcEENS1_IcEEEEP9Name_nameEEPvEEEEE8max_sizeB7v160006ISE_vEEmRKSE_, symObjAddr: 0x18B34, symBinAddr: 0x10001B12C, symSize: 0x24 }
  - { offsetInCU: 0x4479B, offset: 0x4479B, size: 0x8, addend: 0x0, symName: __ZNKSt3__19allocatorINS_11__hash_nodeINS_17__hash_value_typeINS_12basic_stringIcNS_11char_traitsIcEENS0_IcEEEEP9Name_nameEEPvEEE8max_sizeB7v160006Ev, symObjAddr: 0x18B58, symBinAddr: 0x10001B150, symSize: 0x18 }
  - { offsetInCU: 0x447C0, offset: 0x447C0, size: 0x8, addend: 0x0, symName: __ZNSt3__122__hash_node_destructorINS_9allocatorINS_11__hash_nodeINS_17__hash_value_typeINS_12basic_stringIcNS_11char_traitsIcEENS1_IcEEEEP9Name_nameEEPvEEEEEC2B7v160006ERSE_b, symObjAddr: 0x18B70, symBinAddr: 0x10001B168, symSize: 0x38 }
  - { offsetInCU: 0x44807, offset: 0x44807, size: 0x8, addend: 0x0, symName: __ZNSt3__110unique_ptrINS_11__hash_nodeINS_17__hash_value_typeINS_12basic_stringIcNS_11char_traitsIcEENS_9allocatorIcEEEEP9Name_nameEEPvEENS_22__hash_node_destructorINS6_ISD_EEEEEC2B7v160006ILb1EvEEPSD_NS_16__dependent_typeINS_27__unique_ptr_deleter_sfinaeISG_EEXT_EE20__good_rval_ref_typeE, symObjAddr: 0x18BA8, symBinAddr: 0x10001B1A0, symSize: 0x48 }
  - { offsetInCU: 0x44857, offset: 0x44857, size: 0x8, addend: 0x0, symName: __ZNSt3__117__compressed_pairIPNS_11__hash_nodeINS_17__hash_value_typeINS_12basic_stringIcNS_11char_traitsIcEENS_9allocatorIcEEEEP9Name_nameEEPvEENS_22__hash_node_destructorINS6_ISD_EEEEEC1B7v160006IRSE_SH_EEOT_OT0_, symObjAddr: 0x18BF0, symBinAddr: 0x10001B1E8, symSize: 0x3C }
  - { offsetInCU: 0x448AE, offset: 0x448AE, size: 0x8, addend: 0x0, symName: __ZNSt3__117__compressed_pairIPNS_11__hash_nodeINS_17__hash_value_typeINS_12basic_stringIcNS_11char_traitsIcEENS_9allocatorIcEEEEP9Name_nameEEPvEENS_22__hash_node_destructorINS6_ISD_EEEEEC2B7v160006IRSE_SH_EEOT_OT0_, symObjAddr: 0x18C2C, symBinAddr: 0x10001B224, symSize: 0x48 }
  - { offsetInCU: 0x44905, offset: 0x44905, size: 0x8, addend: 0x0, symName: __ZNSt3__122__compressed_pair_elemIPNS_11__hash_nodeINS_17__hash_value_typeINS_12basic_stringIcNS_11char_traitsIcEENS_9allocatorIcEEEEP9Name_nameEEPvEELi0ELb0EEC2B7v160006IRSE_vEEOT_, symObjAddr: 0x18C74, symBinAddr: 0x10001B26C, symSize: 0x24 }
  - { offsetInCU: 0x44946, offset: 0x44946, size: 0x8, addend: 0x0, symName: __ZNSt3__122__compressed_pair_elemINS_22__hash_node_destructorINS_9allocatorINS_11__hash_nodeINS_17__hash_value_typeINS_12basic_stringIcNS_11char_traitsIcEENS2_IcEEEEP9Name_nameEEPvEEEEEELi1ELb0EEC2B7v160006ISG_vEEOT_, symObjAddr: 0x18C98, symBinAddr: 0x10001B290, symSize: 0x24 }
  - { offsetInCU: 0x44987, offset: 0x44987, size: 0x8, addend: 0x0, symName: __ZNSt3__19allocatorINS_11__hash_nodeINS_17__hash_value_typeINS_12basic_stringIcNS_11char_traitsIcEENS0_IcEEEEP9Name_nameEEPvEEE9constructB7v160006INS_4pairIKS7_S9_EEJRS7_S9_EEEvPT_DpOT0_, symObjAddr: 0x18CBC, symBinAddr: 0x10001B2B4, symSize: 0x38 }
  - { offsetInCU: 0x449EF, offset: 0x449EF, size: 0x8, addend: 0x0, symName: __ZNSt3__14pairIKNS_12basic_stringIcNS_11char_traitsIcEENS_9allocatorIcEEEEP9Name_nameEC1B7v160006IRS6_S9_LPv0EEEOT_OT0_, symObjAddr: 0x18CF4, symBinAddr: 0x10001B2EC, symSize: 0x3C }
  - { offsetInCU: 0x44A4C, offset: 0x44A4C, size: 0x8, addend: 0x0, symName: __ZNSt3__14pairIKNS_12basic_stringIcNS_11char_traitsIcEENS_9allocatorIcEEEEP9Name_nameEC2B7v160006IRS6_S9_LPv0EEEOT_OT0_, symObjAddr: 0x18D30, symBinAddr: 0x10001B328, symSize: 0x44 }
  - { offsetInCU: 0x44AA9, offset: 0x44AA9, size: 0x8, addend: 0x0, symName: __ZNSt3__117__compressed_pairIPNS_11__hash_nodeINS_17__hash_value_typeINS_12basic_stringIcNS_11char_traitsIcEENS_9allocatorIcEEEEP9Name_nameEEPvEENS_22__hash_node_destructorINS6_ISD_EEEEE6secondB7v160006Ev, symObjAddr: 0x18D74, symBinAddr: 0x10001B36C, symSize: 0x28 }
  - { offsetInCU: 0x44ACE, offset: 0x44ACE, size: 0x8, addend: 0x0, symName: __ZNSt3__122__compressed_pair_elemINS_22__hash_node_destructorINS_9allocatorINS_11__hash_nodeINS_17__hash_value_typeINS_12basic_stringIcNS_11char_traitsIcEENS2_IcEEEEP9Name_nameEEPvEEEEEELi1ELb0EE5__getB7v160006Ev, symObjAddr: 0x18D9C, symBinAddr: 0x10001B394, symSize: 0x14 }
  - { offsetInCU: 0x44AF3, offset: 0x44AF3, size: 0x8, addend: 0x0, symName: __ZNSt3__117__compressed_pairImNS_22__unordered_map_hasherINS_12basic_stringIcNS_11char_traitsIcEENS_9allocatorIcEEEENS_17__hash_value_typeIS7_P9Name_nameEENS_4hashIS7_EENS_8equal_toIS7_EELb1EEEE5firstB7v160006Ev, symObjAddr: 0x18DB0, symBinAddr: 0x10001B3A8, symSize: 0x24 }
  - { offsetInCU: 0x44B18, offset: 0x44B18, size: 0x8, addend: 0x0, symName: __ZNSt3__117__compressed_pairIfNS_21__unordered_map_equalINS_12basic_stringIcNS_11char_traitsIcEENS_9allocatorIcEEEENS_17__hash_value_typeIS7_P9Name_nameEENS_8equal_toIS7_EENS_4hashIS7_EELb1EEEE5firstB7v160006Ev, symObjAddr: 0x18DD4, symBinAddr: 0x10001B3CC, symSize: 0x24 }
  - { offsetInCU: 0x44B3C, offset: 0x44B3C, size: 0x8, addend: 0x0, symName: __ZNSt3__112__hash_tableINS_17__hash_value_typeINS_12basic_stringIcNS_11char_traitsIcEENS_9allocatorIcEEEEP9Name_nameEENS_22__unordered_map_hasherIS7_SA_NS_4hashIS7_EENS_8equal_toIS7_EELb1EEENS_21__unordered_map_equalIS7_SA_SF_SD_Lb1EEENS5_ISA_EEE8__rehashILb1EEEvm, symObjAddr: 0x18DF8, symBinAddr: 0x10001B3F0, symSize: 0x1A8 }
  - { offsetInCU: 0x44B8A, offset: 0x44B8A, size: 0x8, addend: 0x0, symName: __ZNSt3__112__hash_tableINS_17__hash_value_typeINS_12basic_stringIcNS_11char_traitsIcEENS_9allocatorIcEEEEP9Name_nameEENS_22__unordered_map_hasherIS7_SA_NS_4hashIS7_EENS_8equal_toIS7_EELb1EEENS_21__unordered_map_equalIS7_SA_SF_SD_Lb1EEENS5_ISA_EEE11__do_rehashILb1EEEvm, symObjAddr: 0x18FA0, symBinAddr: 0x10001B598, symSize: 0x290 }
  - { offsetInCU: 0x44C6C, offset: 0x44C6C, size: 0x8, addend: 0x0, symName: __ZNSt3__110unique_ptrIA_PNS_16__hash_node_baseIPNS_11__hash_nodeINS_17__hash_value_typeINS_12basic_stringIcNS_11char_traitsIcEENS_9allocatorIcEEEEP9Name_nameEEPvEEEENS_25__bucket_list_deallocatorINS7_ISH_EEEEE11get_deleterB7v160006Ev, symObjAddr: 0x19240, symBinAddr: 0x10001B838, symSize: 0x24 }
  - { offsetInCU: 0x44C91, offset: 0x44C91, size: 0x8, addend: 0x0, symName: __ZNSt3__110unique_ptrIA_PNS_16__hash_node_baseIPNS_11__hash_nodeINS_17__hash_value_typeINS_12basic_stringIcNS_11char_traitsIcEENS_9allocatorIcEEEEP9Name_nameEEPvEEEENS_25__bucket_list_deallocatorINS7_ISH_EEEEE5resetB7v160006IPSH_EENS_9enable_ifIXsr28_CheckArrayPointerConversionIT_EE5valueEvE4typeESQ_, symObjAddr: 0x19264, symBinAddr: 0x10001B85C, symSize: 0x78 }
  - { offsetInCU: 0x44CDD, offset: 0x44CDD, size: 0x8, addend: 0x0, symName: __ZNSt3__116allocator_traitsINS_9allocatorIPNS_16__hash_node_baseIPNS_11__hash_nodeINS_17__hash_value_typeINS_12basic_stringIcNS_11char_traitsIcEENS1_IcEEEEP9Name_nameEEPvEEEEEEE8allocateB7v160006ERSI_m, symObjAddr: 0x192DC, symBinAddr: 0x10001B8D4, symSize: 0x2C }
  - { offsetInCU: 0x44D10, offset: 0x44D10, size: 0x8, addend: 0x0, symName: __ZNSt3__19allocatorIPNS_16__hash_node_baseIPNS_11__hash_nodeINS_17__hash_value_typeINS_12basic_stringIcNS_11char_traitsIcEENS0_IcEEEEP9Name_nameEEPvEEEEE8allocateB7v160006Em, symObjAddr: 0x19308, symBinAddr: 0x10001B900, symSize: 0x58 }
  - { offsetInCU: 0x44D4D, offset: 0x44D4D, size: 0x8, addend: 0x0, symName: __ZNSt3__116allocator_traitsINS_9allocatorIPNS_16__hash_node_baseIPNS_11__hash_nodeINS_17__hash_value_typeINS_12basic_stringIcNS_11char_traitsIcEENS1_IcEEEEP9Name_nameEEPvEEEEEEE8max_sizeB7v160006ISI_vEEmRKSI_, symObjAddr: 0x19360, symBinAddr: 0x10001B958, symSize: 0x24 }
  - { offsetInCU: 0x44D7B, offset: 0x44D7B, size: 0x8, addend: 0x0, symName: __ZNKSt3__19allocatorIPNS_16__hash_node_baseIPNS_11__hash_nodeINS_17__hash_value_typeINS_12basic_stringIcNS_11char_traitsIcEENS0_IcEEEEP9Name_nameEEPvEEEEE8max_sizeB7v160006Ev, symObjAddr: 0x19384, symBinAddr: 0x10001B97C, symSize: 0x14 }
  - { offsetInCU: 0x44DA0, offset: 0x44DA0, size: 0x8, addend: 0x0, symName: __ZNKSt3__117__compressed_pairIPNS_11__hash_nodeINS_17__hash_value_typeINS_12basic_stringIcNS_11char_traitsIcEENS_9allocatorIcEEEEP9Name_nameEEPvEENS_22__hash_node_destructorINS6_ISD_EEEEE5firstB7v160006Ev, symObjAddr: 0x19398, symBinAddr: 0x10001B990, symSize: 0x24 }
  - { offsetInCU: 0x44DC5, offset: 0x44DC5, size: 0x8, addend: 0x0, symName: __ZNKSt3__122__compressed_pair_elemIPNS_11__hash_nodeINS_17__hash_value_typeINS_12basic_stringIcNS_11char_traitsIcEENS_9allocatorIcEEEEP9Name_nameEEPvEELi0ELb0EE5__getB7v160006Ev, symObjAddr: 0x193BC, symBinAddr: 0x10001B9B4, symSize: 0x14 }
  - { offsetInCU: 0x44DEA, offset: 0x44DEA, size: 0x8, addend: 0x0, symName: __ZNSt3__117__compressed_pairIPNS_11__hash_nodeINS_17__hash_value_typeINS_12basic_stringIcNS_11char_traitsIcEENS_9allocatorIcEEEEP9Name_nameEEPvEENS_22__hash_node_destructorINS6_ISD_EEEEE5firstB7v160006Ev, symObjAddr: 0x193D0, symBinAddr: 0x10001B9C8, symSize: 0x24 }
  - { offsetInCU: 0x44E0F, offset: 0x44E0F, size: 0x8, addend: 0x0, symName: __ZNSt3__122__compressed_pair_elemIPNS_11__hash_nodeINS_17__hash_value_typeINS_12basic_stringIcNS_11char_traitsIcEENS_9allocatorIcEEEEP9Name_nameEEPvEELi0ELb0EE5__getB7v160006Ev, symObjAddr: 0x193F4, symBinAddr: 0x10001B9EC, symSize: 0x14 }
  - { offsetInCU: 0x44E34, offset: 0x44E34, size: 0x8, addend: 0x0, symName: __ZNSt3__110unique_ptrINS_11__hash_nodeINS_17__hash_value_typeINS_12basic_stringIcNS_11char_traitsIcEENS_9allocatorIcEEEEP9Name_nameEEPvEENS_22__hash_node_destructorINS6_ISD_EEEEED2B7v160006Ev, symObjAddr: 0x19408, symBinAddr: 0x10001BA00, symSize: 0x30 }
  - { offsetInCU: 0x44E5D, offset: 0x44E5D, size: 0x8, addend: 0x0, symName: __ZNSt3__110unique_ptrINS_11__hash_nodeINS_17__hash_value_typeINS_12basic_stringIcNS_11char_traitsIcEENS_9allocatorIcEEEEP9Name_nameEEPvEENS_22__hash_node_destructorINS6_ISD_EEEEE5resetB7v160006EPSD_, symObjAddr: 0x19438, symBinAddr: 0x10001BA30, symSize: 0x78 }
  - { offsetInCU: 0x44EA0, offset: 0x44EA0, size: 0x8, addend: 0x0, symName: __ZNSt3__122__hash_node_destructorINS_9allocatorINS_11__hash_nodeINS_17__hash_value_typeINS_12basic_stringIcNS_11char_traitsIcEENS1_IcEEEEP9Name_nameEEPvEEEEEclB7v160006EPSD_, symObjAddr: 0x194B0, symBinAddr: 0x10001BAA8, symSize: 0x94 }
  - { offsetInCU: 0x44ED4, offset: 0x44ED4, size: 0x8, addend: 0x0, symName: __ZNSt3__115__hash_iteratorIPNS_11__hash_nodeINS_17__hash_value_typeINS_12basic_stringIcNS_11char_traitsIcEENS_9allocatorIcEEEEP9Name_nameEEPvEEEC2B7v160006EPNS_16__hash_node_baseISE_EEPKv, symObjAddr: 0x19544, symBinAddr: 0x10001BB3C, symSize: 0x24 }
  - { offsetInCU: 0x44F1B, offset: 0x44F1B, size: 0x8, addend: 0x0, symName: __ZNSt3__14pairINS_15__hash_iteratorIPNS_11__hash_nodeINS_17__hash_value_typeINS_12basic_stringIcNS_11char_traitsIcEENS_9allocatorIcEEEEP9Name_nameEEPvEEEEbEC2B7v160006ISG_RbLSD_0EEEOT_OT0_, symObjAddr: 0x19568, symBinAddr: 0x10001BB60, symSize: 0x38 }
  - { offsetInCU: 0x44F78, offset: 0x44F78, size: 0x8, addend: 0x0, symName: __ZNSt3__14pairINS_19__hash_map_iteratorINS_15__hash_iteratorIPNS_11__hash_nodeINS_17__hash_value_typeINS_12basic_stringIcNS_11char_traitsIcEENS_9allocatorIcEEEEP9Name_nameEEPvEEEEEEbEC2B7v160006ISH_bLSE_0EEEONS0_IT_T0_EE, symObjAddr: 0x195A0, symBinAddr: 0x10001BB98, symSize: 0x50 }
  - { offsetInCU: 0x44FC8, offset: 0x44FC8, size: 0x8, addend: 0x0, symName: __ZNSt3__119__hash_map_iteratorINS_15__hash_iteratorIPNS_11__hash_nodeINS_17__hash_value_typeINS_12basic_stringIcNS_11char_traitsIcEENS_9allocatorIcEEEEP9Name_nameEEPvEEEEEC1B7v160006ESG_, symObjAddr: 0x195F0, symBinAddr: 0x10001BBE8, symSize: 0x34 }
  - { offsetInCU: 0x45000, offset: 0x45000, size: 0x8, addend: 0x0, symName: __ZNSt3__119__hash_map_iteratorINS_15__hash_iteratorIPNS_11__hash_nodeINS_17__hash_value_typeINS_12basic_stringIcNS_11char_traitsIcEENS_9allocatorIcEEEEP9Name_nameEEPvEEEEEC2B7v160006ESG_, symObjAddr: 0x19624, symBinAddr: 0x10001BC1C, symSize: 0x20 }
  - { offsetInCU: 0x45038, offset: 0x45038, size: 0x8, addend: 0x0, symName: __ZNSt3__16vectorIiNS_9allocatorIiEEEC2B7v160006Ev, symObjAddr: 0x19644, symBinAddr: 0x10001BC3C, symSize: 0x58 }
  - { offsetInCU: 0x45061, offset: 0x45061, size: 0x8, addend: 0x0, symName: __ZNSt3__117__compressed_pairIPiNS_9allocatorIiEEEC1B7v160006IDnNS_18__default_init_tagEEEOT_OT0_, symObjAddr: 0x1969C, symBinAddr: 0x10001BC94, symSize: 0x3C }
  - { offsetInCU: 0x450B8, offset: 0x450B8, size: 0x8, addend: 0x0, symName: __ZNSt3__117__compressed_pairIPiNS_9allocatorIiEEEC2B7v160006IDnNS_18__default_init_tagEEEOT_OT0_, symObjAddr: 0x196E8, symBinAddr: 0x10001BCE0, symSize: 0x40 }
  - { offsetInCU: 0x4510F, offset: 0x4510F, size: 0x8, addend: 0x0, symName: __ZNSt3__122__compressed_pair_elemIPiLi0ELb0EEC2B7v160006IDnvEEOT_, symObjAddr: 0x19728, symBinAddr: 0x10001BD20, symSize: 0x1C }
  - { offsetInCU: 0x45150, offset: 0x45150, size: 0x8, addend: 0x0, symName: __ZNSt3__122__compressed_pair_elemINS_9allocatorIiEELi1ELb1EEC2B7v160006ENS_18__default_init_tagE, symObjAddr: 0x19744, symBinAddr: 0x10001BD3C, symSize: 0x2C }
  - { offsetInCU: 0x45183, offset: 0x45183, size: 0x8, addend: 0x0, symName: __ZNSt3__19allocatorIiEC2B7v160006Ev, symObjAddr: 0x19770, symBinAddr: 0x10001BD68, symSize: 0x2C }
  - { offsetInCU: 0x451AC, offset: 0x451AC, size: 0x8, addend: 0x0, symName: __ZNSt3__116__non_trivial_ifILb1ENS_9allocatorIiEEEC2B7v160006Ev, symObjAddr: 0x1979C, symBinAddr: 0x10001BD94, symSize: 0x14 }
  - { offsetInCU: 0x451D5, offset: 0x451D5, size: 0x8, addend: 0x0, symName: __ZNSt3__16vectorIiNS_9allocatorIiEEED2B7v160006Ev, symObjAddr: 0x197B0, symBinAddr: 0x10001BDA8, symSize: 0x44 }
  - { offsetInCU: 0x451FE, offset: 0x451FE, size: 0x8, addend: 0x0, symName: __ZNSt3__16vectorIiNS_9allocatorIiEEE16__destroy_vectorC1ERS3_, symObjAddr: 0x197F4, symBinAddr: 0x10001BDEC, symSize: 0x34 }
  - { offsetInCU: 0x45236, offset: 0x45236, size: 0x8, addend: 0x0, symName: __ZNSt3__16vectorIiNS_9allocatorIiEEE16__destroy_vectorclB7v160006Ev, symObjAddr: 0x19828, symBinAddr: 0x10001BE20, symSize: 0x9C }
  - { offsetInCU: 0x4525B, offset: 0x4525B, size: 0x8, addend: 0x0, symName: __ZNSt3__16vectorIiNS_9allocatorIiEEE16__destroy_vectorC2ERS3_, symObjAddr: 0x198C4, symBinAddr: 0x10001BEBC, symSize: 0x20 }
  - { offsetInCU: 0x45293, offset: 0x45293, size: 0x8, addend: 0x0, symName: __ZNKSt3__16vectorIiNS_9allocatorIiEEE17__annotate_deleteB7v160006Ev, symObjAddr: 0x198E4, symBinAddr: 0x10001BEDC, symSize: 0xB8 }
  - { offsetInCU: 0x452B8, offset: 0x452B8, size: 0x8, addend: 0x0, symName: __ZNSt3__16vectorIiNS_9allocatorIiEEE7__clearB7v160006Ev, symObjAddr: 0x199AC, symBinAddr: 0x10001BFA4, symSize: 0x28 }
  - { offsetInCU: 0x452DD, offset: 0x452DD, size: 0x8, addend: 0x0, symName: __ZNSt3__116allocator_traitsINS_9allocatorIiEEE10deallocateB7v160006ERS2_Pim, symObjAddr: 0x199D4, symBinAddr: 0x10001BFCC, symSize: 0x34 }
  - { offsetInCU: 0x4531F, offset: 0x4531F, size: 0x8, addend: 0x0, symName: __ZNSt3__16vectorIiNS_9allocatorIiEEE7__allocB7v160006Ev, symObjAddr: 0x19A08, symBinAddr: 0x10001C000, symSize: 0x28 }
  - { offsetInCU: 0x45344, offset: 0x45344, size: 0x8, addend: 0x0, symName: __ZNKSt3__16vectorIiNS_9allocatorIiEEE8capacityB7v160006Ev, symObjAddr: 0x19A30, symBinAddr: 0x10001C028, symSize: 0x40 }
  - { offsetInCU: 0x45369, offset: 0x45369, size: 0x8, addend: 0x0, symName: __ZNKSt3__16vectorIiNS_9allocatorIiEEE31__annotate_contiguous_containerB7v160006EPKvS5_S5_S5_, symObjAddr: 0x19A70, symBinAddr: 0x10001C068, symSize: 0x20 }
  - { offsetInCU: 0x453BA, offset: 0x453BA, size: 0x8, addend: 0x0, symName: __ZNKSt3__16vectorIiNS_9allocatorIiEEE4dataB7v160006Ev, symObjAddr: 0x19A90, symBinAddr: 0x10001C088, symSize: 0x28 }
  - { offsetInCU: 0x453DF, offset: 0x453DF, size: 0x8, addend: 0x0, symName: __ZNKSt3__16vectorIiNS_9allocatorIiEEE4sizeB7v160006Ev, symObjAddr: 0x19AB8, symBinAddr: 0x10001C0B0, symSize: 0x28 }
  - { offsetInCU: 0x45404, offset: 0x45404, size: 0x8, addend: 0x0, symName: __ZNSt3__16vectorIiNS_9allocatorIiEEE22__base_destruct_at_endB7v160006EPi, symObjAddr: 0x19AF4, symBinAddr: 0x10001C0EC, symSize: 0x8C }
  - { offsetInCU: 0x45447, offset: 0x45447, size: 0x8, addend: 0x0, symName: __ZNSt3__116allocator_traitsINS_9allocatorIiEEE7destroyB7v160006IivEEvRS2_PT_, symObjAddr: 0x19B80, symBinAddr: 0x10001C178, symSize: 0x2C }
  - { offsetInCU: 0x45484, offset: 0x45484, size: 0x8, addend: 0x0, symName: __ZNSt3__19allocatorIiE7destroyB7v160006EPi, symObjAddr: 0x19BAC, symBinAddr: 0x10001C1A4, symSize: 0x14 }
  - { offsetInCU: 0x454B7, offset: 0x454B7, size: 0x8, addend: 0x0, symName: __ZNSt3__19allocatorIiE10deallocateB7v160006EPim, symObjAddr: 0x19BC0, symBinAddr: 0x10001C1B8, symSize: 0x40 }
  - { offsetInCU: 0x454F8, offset: 0x454F8, size: 0x8, addend: 0x0, symName: __ZNSt3__117__compressed_pairIPiNS_9allocatorIiEEE6secondB7v160006Ev, symObjAddr: 0x19C00, symBinAddr: 0x10001C1F8, symSize: 0x24 }
  - { offsetInCU: 0x4551D, offset: 0x4551D, size: 0x8, addend: 0x0, symName: __ZNSt3__122__compressed_pair_elemINS_9allocatorIiEELi1ELb1EE5__getB7v160006Ev, symObjAddr: 0x19C24, symBinAddr: 0x10001C21C, symSize: 0x14 }
  - { offsetInCU: 0x45542, offset: 0x45542, size: 0x8, addend: 0x0, symName: __ZNKSt3__16vectorIiNS_9allocatorIiEEE9__end_capB7v160006Ev, symObjAddr: 0x19C38, symBinAddr: 0x10001C230, symSize: 0x28 }
  - { offsetInCU: 0x45567, offset: 0x45567, size: 0x8, addend: 0x0, symName: __ZNKSt3__117__compressed_pairIPiNS_9allocatorIiEEE5firstB7v160006Ev, symObjAddr: 0x19C60, symBinAddr: 0x10001C258, symSize: 0x24 }
  - { offsetInCU: 0x4558C, offset: 0x4558C, size: 0x8, addend: 0x0, symName: __ZNKSt3__122__compressed_pair_elemIPiLi0ELb0EE5__getB7v160006Ev, symObjAddr: 0x19C84, symBinAddr: 0x10001C27C, symSize: 0x14 }
  - { offsetInCU: 0x455B1, offset: 0x455B1, size: 0x8, addend: 0x0, symName: __ZNSt3__16vectorIiNS_9allocatorIiEEE9__end_capB7v160006Ev, symObjAddr: 0x19C98, symBinAddr: 0x10001C290, symSize: 0x28 }
  - { offsetInCU: 0x455D6, offset: 0x455D6, size: 0x8, addend: 0x0, symName: __ZNSt3__16vectorIiNS_9allocatorIiEEE22__construct_one_at_endB7v160006IJiEEEvDpOT_, symObjAddr: 0x19CC0, symBinAddr: 0x10001C2B8, symSize: 0x90 }
  - { offsetInCU: 0x45623, offset: 0x45623, size: 0x8, addend: 0x0, symName: __ZNSt3__16vectorIiNS_9allocatorIiEEE21__push_back_slow_pathIiEEvOT_, symObjAddr: 0x19D50, symBinAddr: 0x10001C348, symSize: 0xD8 }
  - { offsetInCU: 0x45680, offset: 0x45680, size: 0x8, addend: 0x0, symName: __ZNSt3__117__compressed_pairIPiNS_9allocatorIiEEE5firstB7v160006Ev, symObjAddr: 0x19E28, symBinAddr: 0x10001C420, symSize: 0x24 }
  - { offsetInCU: 0x456A5, offset: 0x456A5, size: 0x8, addend: 0x0, symName: __ZNSt3__122__compressed_pair_elemIPiLi0ELb0EE5__getB7v160006Ev, symObjAddr: 0x19E4C, symBinAddr: 0x10001C444, symSize: 0x14 }
  - { offsetInCU: 0x456E3, offset: 0x456E3, size: 0x8, addend: 0x0, symName: __ZNSt3__16vectorIiNS_9allocatorIiEEE21_ConstructTransactionC1B7v160006ERS3_m, symObjAddr: 0x19E60, symBinAddr: 0x10001C458, symSize: 0x3C }
  - { offsetInCU: 0x4572A, offset: 0x4572A, size: 0x8, addend: 0x0, symName: __ZNSt3__116allocator_traitsINS_9allocatorIiEEE9constructB7v160006IiJiEvEEvRS2_PT_DpOT0_, symObjAddr: 0x19E9C, symBinAddr: 0x10001C494, symSize: 0x34 }
  - { offsetInCU: 0x45781, offset: 0x45781, size: 0x8, addend: 0x0, symName: __ZNSt3__16vectorIiNS_9allocatorIiEEE21_ConstructTransactionD1B7v160006Ev, symObjAddr: 0x19ED0, symBinAddr: 0x10001C4C8, symSize: 0x2C }
  - { offsetInCU: 0x457AA, offset: 0x457AA, size: 0x8, addend: 0x0, symName: __ZNSt3__16vectorIiNS_9allocatorIiEEE21_ConstructTransactionC2B7v160006ERS3_m, symObjAddr: 0x19EFC, symBinAddr: 0x10001C4F4, symSize: 0x44 }
  - { offsetInCU: 0x457F1, offset: 0x457F1, size: 0x8, addend: 0x0, symName: __ZNSt3__19allocatorIiE9constructB7v160006IiJiEEEvPT_DpOT0_, symObjAddr: 0x19F40, symBinAddr: 0x10001C538, symSize: 0x28 }
  - { offsetInCU: 0x45846, offset: 0x45846, size: 0x8, addend: 0x0, symName: __ZNSt3__16vectorIiNS_9allocatorIiEEE21_ConstructTransactionD2B7v160006Ev, symObjAddr: 0x19F68, symBinAddr: 0x10001C560, symSize: 0x20 }
  - { offsetInCU: 0x4586E, offset: 0x4586E, size: 0x8, addend: 0x0, symName: __ZNKSt3__16vectorIiNS_9allocatorIiEEE11__recommendB7v160006Em, symObjAddr: 0x19F88, symBinAddr: 0x10001C580, symSize: 0xB4 }
  - { offsetInCU: 0x458C2, offset: 0x458C2, size: 0x8, addend: 0x0, symName: __ZNSt3__114__split_bufferIiRNS_9allocatorIiEEEC1EmmS3_, symObjAddr: 0x1A03C, symBinAddr: 0x10001C634, symSize: 0x44 }
  - { offsetInCU: 0x45917, offset: 0x45917, size: 0x8, addend: 0x0, symName: __ZNSt3__114__split_bufferIiRNS_9allocatorIiEEED1Ev, symObjAddr: 0x1A198, symBinAddr: 0x10001C790, symSize: 0x2C }
  - { offsetInCU: 0x45941, offset: 0x45941, size: 0x8, addend: 0x0, symName: __ZNKSt3__16vectorIiNS_9allocatorIiEEE8max_sizeEv, symObjAddr: 0x1A1C4, symBinAddr: 0x10001C7BC, symSize: 0x60 }
  - { offsetInCU: 0x45968, offset: 0x45968, size: 0x8, addend: 0x0, symName: __ZNKSt3__16vectorIiNS_9allocatorIiEEE20__throw_length_errorB7v160006Ev, symObjAddr: 0x1A224, symBinAddr: 0x10001C81C, symSize: 0x1C }
  - { offsetInCU: 0x45997, offset: 0x45997, size: 0x8, addend: 0x0, symName: __ZNSt3__116allocator_traitsINS_9allocatorIiEEE8max_sizeB7v160006IS2_vEEmRKS2_, symObjAddr: 0x1A240, symBinAddr: 0x10001C838, symSize: 0x24 }
  - { offsetInCU: 0x459C5, offset: 0x459C5, size: 0x8, addend: 0x0, symName: __ZNKSt3__16vectorIiNS_9allocatorIiEEE7__allocB7v160006Ev, symObjAddr: 0x1A264, symBinAddr: 0x10001C85C, symSize: 0x28 }
  - { offsetInCU: 0x459EA, offset: 0x459EA, size: 0x8, addend: 0x0, symName: __ZNKSt3__19allocatorIiE8max_sizeB7v160006Ev, symObjAddr: 0x1A28C, symBinAddr: 0x10001C884, symSize: 0x14 }
  - { offsetInCU: 0x45A0F, offset: 0x45A0F, size: 0x8, addend: 0x0, symName: __ZNKSt3__117__compressed_pairIPiNS_9allocatorIiEEE6secondB7v160006Ev, symObjAddr: 0x1A2A0, symBinAddr: 0x10001C898, symSize: 0x24 }
  - { offsetInCU: 0x45A34, offset: 0x45A34, size: 0x8, addend: 0x0, symName: __ZNKSt3__122__compressed_pair_elemINS_9allocatorIiEELi1ELb1EE5__getB7v160006Ev, symObjAddr: 0x1A2C4, symBinAddr: 0x10001C8BC, symSize: 0x14 }
  - { offsetInCU: 0x45A59, offset: 0x45A59, size: 0x8, addend: 0x0, symName: __ZNSt3__114__split_bufferIiRNS_9allocatorIiEEEC2EmmS3_, symObjAddr: 0x1A2D8, symBinAddr: 0x10001C8D0, symSize: 0xD4 }
  - { offsetInCU: 0x45ACB, offset: 0x45ACB, size: 0x8, addend: 0x0, symName: __ZNSt3__117__compressed_pairIPiRNS_9allocatorIiEEEC1B7v160006IDnS4_EEOT_OT0_, symObjAddr: 0x1A3AC, symBinAddr: 0x10001C9A4, symSize: 0x3C }
  - { offsetInCU: 0x45B22, offset: 0x45B22, size: 0x8, addend: 0x0, symName: __ZNSt3__114__split_bufferIiRNS_9allocatorIiEEE7__allocB7v160006Ev, symObjAddr: 0x1A428, symBinAddr: 0x10001CA20, symSize: 0x28 }
  - { offsetInCU: 0x45B47, offset: 0x45B47, size: 0x8, addend: 0x0, symName: __ZNSt3__114__split_bufferIiRNS_9allocatorIiEEE9__end_capB7v160006Ev, symObjAddr: 0x1A450, symBinAddr: 0x10001CA48, symSize: 0x28 }
  - { offsetInCU: 0x45B6C, offset: 0x45B6C, size: 0x8, addend: 0x0, symName: __ZNSt3__117__compressed_pairIPiRNS_9allocatorIiEEEC2B7v160006IDnS4_EEOT_OT0_, symObjAddr: 0x1A478, symBinAddr: 0x10001CA70, symSize: 0x48 }
  - { offsetInCU: 0x45BC3, offset: 0x45BC3, size: 0x8, addend: 0x0, symName: __ZNSt3__122__compressed_pair_elemIRNS_9allocatorIiEELi1ELb0EEC2B7v160006IS3_vEEOT_, symObjAddr: 0x1A4C0, symBinAddr: 0x10001CAB8, symSize: 0x20 }
  - { offsetInCU: 0x45C04, offset: 0x45C04, size: 0x8, addend: 0x0, symName: __ZNSt3__19allocatorIiE8allocateB7v160006Em, symObjAddr: 0x1A4E0, symBinAddr: 0x10001CAD8, symSize: 0x58 }
  - { offsetInCU: 0x45C37, offset: 0x45C37, size: 0x8, addend: 0x0, symName: __ZNSt3__117__compressed_pairIPiRNS_9allocatorIiEEE6secondB7v160006Ev, symObjAddr: 0x1A538, symBinAddr: 0x10001CB30, symSize: 0x28 }
  - { offsetInCU: 0x45C5C, offset: 0x45C5C, size: 0x8, addend: 0x0, symName: __ZNSt3__122__compressed_pair_elemIRNS_9allocatorIiEELi1ELb0EE5__getB7v160006Ev, symObjAddr: 0x1A560, symBinAddr: 0x10001CB58, symSize: 0x18 }
  - { offsetInCU: 0x45C81, offset: 0x45C81, size: 0x8, addend: 0x0, symName: __ZNSt3__117__compressed_pairIPiRNS_9allocatorIiEEE5firstB7v160006Ev, symObjAddr: 0x1A578, symBinAddr: 0x10001CB70, symSize: 0x24 }
  - { offsetInCU: 0x45CA6, offset: 0x45CA6, size: 0x8, addend: 0x0, symName: __ZNSt3__116reverse_iteratorIPiEC1B7v160006ES1_, symObjAddr: 0x1A614, symBinAddr: 0x10001CC0C, symSize: 0x34 }
  - { offsetInCU: 0x45CDD, offset: 0x45CDD, size: 0x8, addend: 0x0, symName: __ZNKSt3__116reverse_iteratorIPiE4baseB7v160006Ev, symObjAddr: 0x1A648, symBinAddr: 0x10001CC40, symSize: 0x18 }
  - { offsetInCU: 0x45D02, offset: 0x45D02, size: 0x8, addend: 0x0, symName: __ZNKSt3__16vectorIiNS_9allocatorIiEEE14__annotate_newB7v160006Em, symObjAddr: 0x1A69C, symBinAddr: 0x10001CC94, symSize: 0xAC }
  - { offsetInCU: 0x45D4F, offset: 0x45D4F, size: 0x8, addend: 0x0, symName: __ZNKSt3__111__move_loopINS_17_ClassicAlgPolicyEEclB7v160006INS_16reverse_iteratorIPiEES6_S6_EENS_4pairIT_T1_EES8_T0_S9_, symObjAddr: 0x1AA48, symBinAddr: 0x10001D040, symSize: 0xA0 }
  - { offsetInCU: 0x45DB9, offset: 0x45DB9, size: 0x8, addend: 0x0, symName: __ZNSt3__18_IterOpsINS_17_ClassicAlgPolicyEE11__iter_moveB7v160006IRNS_16reverse_iteratorIPiEEEENS_9enable_ifIXsr12is_referenceIDTdeclsr3stdE7declvalIRT_EEEEE5valueEDTclsr3stdE4movedeclsr3stdE7declvalISA_EEEEE4typeEOS9_, symObjAddr: 0x1AC7C, symBinAddr: 0x10001D274, symSize: 0x28 }
  - { offsetInCU: 0x45DE5, offset: 0x45DE5, size: 0x8, addend: 0x0, symName: __ZNKSt3__116reverse_iteratorIPiEdeB7v160006Ev, symObjAddr: 0x1ACA4, symBinAddr: 0x10001D29C, symSize: 0x28 }
  - { offsetInCU: 0x45E18, offset: 0x45E18, size: 0x8, addend: 0x0, symName: __ZNSt3__116reverse_iteratorIPiEppB7v160006Ev, symObjAddr: 0x1ACCC, symBinAddr: 0x10001D2C4, symSize: 0x20 }
  - { offsetInCU: 0x45E3D, offset: 0x45E3D, size: 0x8, addend: 0x0, symName: __ZNSt3__18_IterOpsINS_17_ClassicAlgPolicyEE25__validate_iter_referenceB7v160006IRNS_16reverse_iteratorIPiEEEEvv, symObjAddr: 0x1ACEC, symBinAddr: 0x10001D2E4, symSize: 0x4 }
  - { offsetInCU: 0x45E5B, offset: 0x45E5B, size: 0x8, addend: 0x0, symName: __ZNSt3__118__unwrap_iter_implINS_16reverse_iteratorIPiEELb0EE8__unwrapB7v160006ES3_, symObjAddr: 0x1ACF0, symBinAddr: 0x10001D2E8, symSize: 0x24 }
  - { offsetInCU: 0x45E83, offset: 0x45E83, size: 0x8, addend: 0x0, symName: __ZNSt3__14pairINS_16reverse_iteratorIPiEES3_EC1B7v160006IS3_S3_LPv0EEEOT_OT0_, symObjAddr: 0x1AD14, symBinAddr: 0x10001D30C, symSize: 0x3C }
  - { offsetInCU: 0x45EE0, offset: 0x45EE0, size: 0x8, addend: 0x0, symName: __ZNSt3__14pairINS_16reverse_iteratorIPiEES3_EC2B7v160006IS3_S3_LPv0EEEOT_OT0_, symObjAddr: 0x1AD50, symBinAddr: 0x10001D348, symSize: 0x34 }
  - { offsetInCU: 0x45F3D, offset: 0x45F3D, size: 0x8, addend: 0x0, symName: __ZNSt3__118__unwrap_iter_implINS_16reverse_iteratorIPiEELb0EE8__rewrapB7v160006ES3_S3_, symObjAddr: 0x1AD84, symBinAddr: 0x10001D37C, symSize: 0x2C }
  - { offsetInCU: 0x45F6A, offset: 0x45F6A, size: 0x8, addend: 0x0, symName: __ZNSt3__116reverse_iteratorIPiEC2B7v160006ES1_, symObjAddr: 0x1ADB0, symBinAddr: 0x10001D3A8, symSize: 0x28 }
  - { offsetInCU: 0x45FA1, offset: 0x45FA1, size: 0x8, addend: 0x0, symName: __ZNSt3__114__split_bufferIiRNS_9allocatorIiEEED2Ev, symObjAddr: 0x1ADD8, symBinAddr: 0x10001D3D0, symSize: 0x8C }
  - { offsetInCU: 0x45FCC, offset: 0x45FCC, size: 0x8, addend: 0x0, symName: __ZNSt3__114__split_bufferIiRNS_9allocatorIiEEE5clearB7v160006Ev, symObjAddr: 0x1AE64, symBinAddr: 0x10001D45C, symSize: 0x28 }
  - { offsetInCU: 0x45FF1, offset: 0x45FF1, size: 0x8, addend: 0x0, symName: __ZNKSt3__114__split_bufferIiRNS_9allocatorIiEEE8capacityB7v160006Ev, symObjAddr: 0x1AE8C, symBinAddr: 0x10001D484, symSize: 0x40 }
  - { offsetInCU: 0x46016, offset: 0x46016, size: 0x8, addend: 0x0, symName: __ZNSt3__114__split_bufferIiRNS_9allocatorIiEEE17__destruct_at_endB7v160006EPi, symObjAddr: 0x1AECC, symBinAddr: 0x10001D4C4, symSize: 0x2C }
  - { offsetInCU: 0x46048, offset: 0x46048, size: 0x8, addend: 0x0, symName: __ZNSt3__114__split_bufferIiRNS_9allocatorIiEEE17__destruct_at_endB7v160006EPiNS_17integral_constantIbLb0EEE, symObjAddr: 0x1AEF8, symBinAddr: 0x10001D4F0, symSize: 0x80 }
  - { offsetInCU: 0x46087, offset: 0x46087, size: 0x8, addend: 0x0, symName: __ZNKSt3__114__split_bufferIiRNS_9allocatorIiEEE9__end_capB7v160006Ev, symObjAddr: 0x1AF78, symBinAddr: 0x10001D570, symSize: 0x28 }
  - { offsetInCU: 0x460AC, offset: 0x460AC, size: 0x8, addend: 0x0, symName: __ZNKSt3__117__compressed_pairIPiRNS_9allocatorIiEEE5firstB7v160006Ev, symObjAddr: 0x1AFA0, symBinAddr: 0x10001D598, symSize: 0x24 }
  - { offsetInCU: 0x460D1, offset: 0x460D1, size: 0x8, addend: 0x0, symName: __ZNSt3__16vectorIP12aA_rightVal_NS_9allocatorIS2_EEE11__make_iterB7v160006EPS2_, symObjAddr: 0x1AFC4, symBinAddr: 0x10001D5BC, symSize: 0x34 }
  - { offsetInCU: 0x46105, offset: 0x46105, size: 0x8, addend: 0x0, symName: __ZNSt3__111__wrap_iterIPP12aA_rightVal_EC1B7v160006EPKvS3_, symObjAddr: 0x1AFF8, symBinAddr: 0x10001D5F0, symSize: 0x3C }
  - { offsetInCU: 0x4614A, offset: 0x4614A, size: 0x8, addend: 0x0, symName: __ZNSt3__111__wrap_iterIPP12aA_rightVal_EC2B7v160006EPKvS3_, symObjAddr: 0x1B034, symBinAddr: 0x10001D62C, symSize: 0x24 }
  - { offsetInCU: 0x4618F, offset: 0x4618F, size: 0x8, addend: 0x0, symName: __ZNSt3__16vectorIP11aA_varDecl_NS_9allocatorIS2_EEE11__make_iterB7v160006EPS2_, symObjAddr: 0x1B058, symBinAddr: 0x10001D650, symSize: 0x34 }
  - { offsetInCU: 0x461C3, offset: 0x461C3, size: 0x8, addend: 0x0, symName: __ZNSt3__111__wrap_iterIPP11aA_varDecl_EC1B7v160006EPKvS3_, symObjAddr: 0x1B08C, symBinAddr: 0x10001D684, symSize: 0x3C }
  - { offsetInCU: 0x46208, offset: 0x46208, size: 0x8, addend: 0x0, symName: __ZNSt3__111__wrap_iterIPP11aA_varDecl_EC2B7v160006EPKvS3_, symObjAddr: 0x1B0C8, symBinAddr: 0x10001D6C0, symSize: 0x24 }
  - { offsetInCU: 0x4624D, offset: 0x4624D, size: 0x8, addend: 0x0, symName: __ZNSt3__112__hash_tableINS_17__hash_value_typeINS_12basic_stringIcNS_11char_traitsIcEENS_9allocatorIcEEEE10MemberInfoEENS_22__unordered_map_hasherIS7_S9_NS_4hashIS7_EENS_8equal_toIS7_EELb1EEENS_21__unordered_map_equalIS7_S9_SE_SC_Lb1EEENS5_IS9_EEE16__emplace_uniqueB7v160006IRS7_RS8_EENS_9enable_ifIXsr21__can_extract_map_keyIT_S7_NS_4pairIKS7_S8_EEEE5valueENSP_INS_15__hash_iteratorIPNS_11__hash_nodeIS9_PvEEEEbEEE4typeEOSO_OT0_, symObjAddr: 0x1B0EC, symBinAddr: 0x10001D6E4, symSize: 0x48 }
  - { offsetInCU: 0x462A2, offset: 0x462A2, size: 0x8, addend: 0x0, symName: __ZNSt3__14pairINS_19__hash_map_iteratorINS_15__hash_iteratorIPNS_11__hash_nodeINS_17__hash_value_typeINS_12basic_stringIcNS_11char_traitsIcEENS_9allocatorIcEEEE10MemberInfoEEPvEEEEEEbEC1B7v160006ISG_bLSD_0EEEONS0_IT_T0_EE, symObjAddr: 0x1B134, symBinAddr: 0x10001D72C, symSize: 0x34 }
  - { offsetInCU: 0x462F1, offset: 0x462F1, size: 0x8, addend: 0x0, symName: __ZNSt3__112__hash_tableINS_17__hash_value_typeINS_12basic_stringIcNS_11char_traitsIcEENS_9allocatorIcEEEE10MemberInfoEENS_22__unordered_map_hasherIS7_S9_NS_4hashIS7_EENS_8equal_toIS7_EELb1EEENS_21__unordered_map_equalIS7_S9_SE_SC_Lb1EEENS5_IS9_EEE25__emplace_unique_key_argsIS7_JRS7_RS8_EEENS_4pairINS_15__hash_iteratorIPNS_11__hash_nodeIS9_PvEEEEbEERKT_DpOT0_, symObjAddr: 0x1B168, symBinAddr: 0x10001D760, symSize: 0x4AC }
  - { offsetInCU: 0x463E6, offset: 0x463E6, size: 0x8, addend: 0x0, symName: __ZNSt3__112__hash_tableINS_17__hash_value_typeINS_12basic_stringIcNS_11char_traitsIcEENS_9allocatorIcEEEE10MemberInfoEENS_22__unordered_map_hasherIS7_S9_NS_4hashIS7_EENS_8equal_toIS7_EELb1EEENS_21__unordered_map_equalIS7_S9_SE_SC_Lb1EEENS5_IS9_EEE13hash_functionB7v160006Ev, symObjAddr: 0x1B614, symBinAddr: 0x10001DC0C, symSize: 0x28 }
  - { offsetInCU: 0x4640B, offset: 0x4640B, size: 0x8, addend: 0x0, symName: __ZNKSt3__122__unordered_map_hasherINS_12basic_stringIcNS_11char_traitsIcEENS_9allocatorIcEEEENS_17__hash_value_typeIS6_10MemberInfoEENS_4hashIS6_EENS_8equal_toIS6_EELb1EEclB7v160006ERKS6_, symObjAddr: 0x1B63C, symBinAddr: 0x10001DC34, symSize: 0x2C }
  - { offsetInCU: 0x4643F, offset: 0x4643F, size: 0x8, addend: 0x0, symName: __ZNKSt3__112__hash_tableINS_17__hash_value_typeINS_12basic_stringIcNS_11char_traitsIcEENS_9allocatorIcEEEE10MemberInfoEENS_22__unordered_map_hasherIS7_S9_NS_4hashIS7_EENS_8equal_toIS7_EELb1EEENS_21__unordered_map_equalIS7_S9_SE_SC_Lb1EEENS5_IS9_EEE12bucket_countB7v160006Ev, symObjAddr: 0x1B668, symBinAddr: 0x10001DC60, symSize: 0x28 }
  - { offsetInCU: 0x46464, offset: 0x46464, size: 0x8, addend: 0x0, symName: __ZNKSt3__110unique_ptrIA_PNS_16__hash_node_baseIPNS_11__hash_nodeINS_17__hash_value_typeINS_12basic_stringIcNS_11char_traitsIcEENS_9allocatorIcEEEE10MemberInfoEEPvEEEENS_25__bucket_list_deallocatorINS7_ISG_EEEEEixB7v160006Em, symObjAddr: 0x1B690, symBinAddr: 0x10001DC88, symSize: 0x34 }
  - { offsetInCU: 0x46498, offset: 0x46498, size: 0x8, addend: 0x0, symName: __ZNKSt3__116__hash_node_baseIPNS_11__hash_nodeINS_17__hash_value_typeINS_12basic_stringIcNS_11char_traitsIcEENS_9allocatorIcEEEE10MemberInfoEEPvEEE6__hashB7v160006Ev, symObjAddr: 0x1B6C4, symBinAddr: 0x10001DCBC, symSize: 0x18 }
  - { offsetInCU: 0x464BD, offset: 0x464BD, size: 0x8, addend: 0x0, symName: __ZNSt3__112__hash_tableINS_17__hash_value_typeINS_12basic_stringIcNS_11char_traitsIcEENS_9allocatorIcEEEE10MemberInfoEENS_22__unordered_map_hasherIS7_S9_NS_4hashIS7_EENS_8equal_toIS7_EELb1EEENS_21__unordered_map_equalIS7_S9_SE_SC_Lb1EEENS5_IS9_EEE6key_eqB7v160006Ev, symObjAddr: 0x1B6DC, symBinAddr: 0x10001DCD4, symSize: 0x28 }
  - { offsetInCU: 0x464E2, offset: 0x464E2, size: 0x8, addend: 0x0, symName: __ZNKSt3__121__unordered_map_equalINS_12basic_stringIcNS_11char_traitsIcEENS_9allocatorIcEEEENS_17__hash_value_typeIS6_10MemberInfoEENS_8equal_toIS6_EENS_4hashIS6_EELb1EEclB7v160006ERKS9_RKS6_, symObjAddr: 0x1B704, symBinAddr: 0x10001DCFC, symSize: 0x48 }
  - { offsetInCU: 0x46524, offset: 0x46524, size: 0x8, addend: 0x0, symName: __ZNSt3__112__hash_tableINS_17__hash_value_typeINS_12basic_stringIcNS_11char_traitsIcEENS_9allocatorIcEEEE10MemberInfoEENS_22__unordered_map_hasherIS7_S9_NS_4hashIS7_EENS_8equal_toIS7_EELb1EEENS_21__unordered_map_equalIS7_S9_SE_SC_Lb1EEENS5_IS9_EEE21__construct_node_hashIRS7_JRS8_EEENS_10unique_ptrINS_11__hash_nodeIS9_PvEENS_22__hash_node_destructorINS5_ISQ_EEEEEEmOT_DpOT0_, symObjAddr: 0x1B74C, symBinAddr: 0x10001DD44, symSize: 0x148 }
  - { offsetInCU: 0x465AB, offset: 0x465AB, size: 0x8, addend: 0x0, symName: __ZNSt3__112__hash_tableINS_17__hash_value_typeINS_12basic_stringIcNS_11char_traitsIcEENS_9allocatorIcEEEE10MemberInfoEENS_22__unordered_map_hasherIS7_S9_NS_4hashIS7_EENS_8equal_toIS7_EELb1EEENS_21__unordered_map_equalIS7_S9_SE_SC_Lb1EEENS5_IS9_EEE4sizeB7v160006Ev, symObjAddr: 0x1B894, symBinAddr: 0x10001DE8C, symSize: 0x28 }
  - { offsetInCU: 0x465D0, offset: 0x465D0, size: 0x8, addend: 0x0, symName: __ZNSt3__112__hash_tableINS_17__hash_value_typeINS_12basic_stringIcNS_11char_traitsIcEENS_9allocatorIcEEEE10MemberInfoEENS_22__unordered_map_hasherIS7_S9_NS_4hashIS7_EENS_8equal_toIS7_EELb1EEENS_21__unordered_map_equalIS7_S9_SE_SC_Lb1EEENS5_IS9_EEE15max_load_factorB7v160006Ev, symObjAddr: 0x1B8BC, symBinAddr: 0x10001DEB4, symSize: 0x28 }
  - { offsetInCU: 0x465F5, offset: 0x465F5, size: 0x8, addend: 0x0, symName: __ZNSt3__112__hash_tableINS_17__hash_value_typeINS_12basic_stringIcNS_11char_traitsIcEENS_9allocatorIcEEEE10MemberInfoEENS_22__unordered_map_hasherIS7_S9_NS_4hashIS7_EENS_8equal_toIS7_EELb1EEENS_21__unordered_map_equalIS7_S9_SE_SC_Lb1EEENS5_IS9_EEE15__rehash_uniqueB7v160006Em, symObjAddr: 0x1B8E4, symBinAddr: 0x10001DEDC, symSize: 0x2C }
  - { offsetInCU: 0x46629, offset: 0x46629, size: 0x8, addend: 0x0, symName: __ZNSt3__116__hash_node_baseIPNS_11__hash_nodeINS_17__hash_value_typeINS_12basic_stringIcNS_11char_traitsIcEENS_9allocatorIcEEEE10MemberInfoEEPvEEE5__ptrB7v160006Ev, symObjAddr: 0x1B910, symBinAddr: 0x10001DF08, symSize: 0x24 }
  - { offsetInCU: 0x4664E, offset: 0x4664E, size: 0x8, addend: 0x0, symName: __ZNKSt3__110unique_ptrINS_11__hash_nodeINS_17__hash_value_typeINS_12basic_stringIcNS_11char_traitsIcEENS_9allocatorIcEEEE10MemberInfoEEPvEENS_22__hash_node_destructorINS6_ISC_EEEEEptB7v160006Ev, symObjAddr: 0x1B934, symBinAddr: 0x10001DF2C, symSize: 0x28 }
  - { offsetInCU: 0x46673, offset: 0x46673, size: 0x8, addend: 0x0, symName: __ZNKSt3__110unique_ptrINS_11__hash_nodeINS_17__hash_value_typeINS_12basic_stringIcNS_11char_traitsIcEENS_9allocatorIcEEEE10MemberInfoEEPvEENS_22__hash_node_destructorINS6_ISC_EEEEE3getB7v160006Ev, symObjAddr: 0x1B95C, symBinAddr: 0x10001DF54, symSize: 0x28 }
  - { offsetInCU: 0x46698, offset: 0x46698, size: 0x8, addend: 0x0, symName: __ZNSt3__110unique_ptrINS_11__hash_nodeINS_17__hash_value_typeINS_12basic_stringIcNS_11char_traitsIcEENS_9allocatorIcEEEE10MemberInfoEEPvEENS_22__hash_node_destructorINS6_ISC_EEEEE7releaseB7v160006Ev, symObjAddr: 0x1B984, symBinAddr: 0x10001DF7C, symSize: 0x44 }
  - { offsetInCU: 0x466CC, offset: 0x466CC, size: 0x8, addend: 0x0, symName: __ZNSt3__110unique_ptrINS_11__hash_nodeINS_17__hash_value_typeINS_12basic_stringIcNS_11char_traitsIcEENS_9allocatorIcEEEE10MemberInfoEEPvEENS_22__hash_node_destructorINS6_ISC_EEEEED1B7v160006Ev, symObjAddr: 0x1B9C8, symBinAddr: 0x10001DFC0, symSize: 0x2C }
  - { offsetInCU: 0x466F5, offset: 0x466F5, size: 0x8, addend: 0x0, symName: __ZNSt3__115__hash_iteratorIPNS_11__hash_nodeINS_17__hash_value_typeINS_12basic_stringIcNS_11char_traitsIcEENS_9allocatorIcEEEE10MemberInfoEEPvEEEC1B7v160006EPNS_16__hash_node_baseISD_EEPKv, symObjAddr: 0x1B9F4, symBinAddr: 0x10001DFEC, symSize: 0x3C }
  - { offsetInCU: 0x46741, offset: 0x46741, size: 0x8, addend: 0x0, symName: __ZNSt3__14pairINS_15__hash_iteratorIPNS_11__hash_nodeINS_17__hash_value_typeINS_12basic_stringIcNS_11char_traitsIcEENS_9allocatorIcEEEE10MemberInfoEEPvEEEEbEC1B7v160006ISF_RbLSC_0EEEOT_OT0_, symObjAddr: 0x1BA30, symBinAddr: 0x10001E028, symSize: 0x3C }
  - { offsetInCU: 0x4679E, offset: 0x4679E, size: 0x8, addend: 0x0, symName: __ZNSt3__117__compressed_pairImNS_22__unordered_map_hasherINS_12basic_stringIcNS_11char_traitsIcEENS_9allocatorIcEEEENS_17__hash_value_typeIS7_10MemberInfoEENS_4hashIS7_EENS_8equal_toIS7_EELb1EEEE6secondB7v160006Ev, symObjAddr: 0x1BA6C, symBinAddr: 0x10001E064, symSize: 0x24 }
  - { offsetInCU: 0x467C3, offset: 0x467C3, size: 0x8, addend: 0x0, symName: __ZNSt3__122__compressed_pair_elemINS_22__unordered_map_hasherINS_12basic_stringIcNS_11char_traitsIcEENS_9allocatorIcEEEENS_17__hash_value_typeIS7_10MemberInfoEENS_4hashIS7_EENS_8equal_toIS7_EELb1EEELi1ELb1EE5__getB7v160006Ev, symObjAddr: 0x1BA90, symBinAddr: 0x10001E088, symSize: 0x14 }
  - { offsetInCU: 0x467E8, offset: 0x467E8, size: 0x8, addend: 0x0, symName: __ZNKSt3__110unique_ptrIA_PNS_16__hash_node_baseIPNS_11__hash_nodeINS_17__hash_value_typeINS_12basic_stringIcNS_11char_traitsIcEENS_9allocatorIcEEEE10MemberInfoEEPvEEEENS_25__bucket_list_deallocatorINS7_ISG_EEEEE11get_deleterB7v160006Ev, symObjAddr: 0x1BAA4, symBinAddr: 0x10001E09C, symSize: 0x24 }
  - { offsetInCU: 0x4680D, offset: 0x4680D, size: 0x8, addend: 0x0, symName: __ZNKSt3__125__bucket_list_deallocatorINS_9allocatorIPNS_16__hash_node_baseIPNS_11__hash_nodeINS_17__hash_value_typeINS_12basic_stringIcNS_11char_traitsIcEENS1_IcEEEE10MemberInfoEEPvEEEEEEE4sizeB7v160006Ev, symObjAddr: 0x1BAC8, symBinAddr: 0x10001E0C0, symSize: 0x28 }
  - { offsetInCU: 0x46832, offset: 0x46832, size: 0x8, addend: 0x0, symName: __ZNKSt3__117__compressed_pairIPPNS_16__hash_node_baseIPNS_11__hash_nodeINS_17__hash_value_typeINS_12basic_stringIcNS_11char_traitsIcEENS_9allocatorIcEEEE10MemberInfoEEPvEEEENS_25__bucket_list_deallocatorINS7_ISG_EEEEE6secondB7v160006Ev, symObjAddr: 0x1BAF0, symBinAddr: 0x10001E0E8, symSize: 0x28 }
  - { offsetInCU: 0x46857, offset: 0x46857, size: 0x8, addend: 0x0, symName: __ZNKSt3__122__compressed_pair_elemINS_25__bucket_list_deallocatorINS_9allocatorIPNS_16__hash_node_baseIPNS_11__hash_nodeINS_17__hash_value_typeINS_12basic_stringIcNS_11char_traitsIcEENS2_IcEEEE10MemberInfoEEPvEEEEEEEELi1ELb0EE5__getB7v160006Ev, symObjAddr: 0x1BB18, symBinAddr: 0x10001E110, symSize: 0x14 }
  - { offsetInCU: 0x4687C, offset: 0x4687C, size: 0x8, addend: 0x0, symName: __ZNKSt3__117__compressed_pairImNS_9allocatorIPNS_16__hash_node_baseIPNS_11__hash_nodeINS_17__hash_value_typeINS_12basic_stringIcNS_11char_traitsIcEENS1_IcEEEE10MemberInfoEEPvEEEEEEE5firstB7v160006Ev, symObjAddr: 0x1BB2C, symBinAddr: 0x10001E124, symSize: 0x24 }
  - { offsetInCU: 0x468A1, offset: 0x468A1, size: 0x8, addend: 0x0, symName: __ZNKSt3__117__compressed_pairIPPNS_16__hash_node_baseIPNS_11__hash_nodeINS_17__hash_value_typeINS_12basic_stringIcNS_11char_traitsIcEENS_9allocatorIcEEEE10MemberInfoEEPvEEEENS_25__bucket_list_deallocatorINS7_ISG_EEEEE5firstB7v160006Ev, symObjAddr: 0x1BB50, symBinAddr: 0x10001E148, symSize: 0x24 }
  - { offsetInCU: 0x468C6, offset: 0x468C6, size: 0x8, addend: 0x0, symName: __ZNKSt3__122__compressed_pair_elemIPPNS_16__hash_node_baseIPNS_11__hash_nodeINS_17__hash_value_typeINS_12basic_stringIcNS_11char_traitsIcEENS_9allocatorIcEEEE10MemberInfoEEPvEEEELi0ELb0EE5__getB7v160006Ev, symObjAddr: 0x1BB74, symBinAddr: 0x10001E16C, symSize: 0x14 }
  - { offsetInCU: 0x468EB, offset: 0x468EB, size: 0x8, addend: 0x0, symName: __ZNSt3__117__compressed_pairIfNS_21__unordered_map_equalINS_12basic_stringIcNS_11char_traitsIcEENS_9allocatorIcEEEENS_17__hash_value_typeIS7_10MemberInfoEENS_8equal_toIS7_EENS_4hashIS7_EELb1EEEE6secondB7v160006Ev, symObjAddr: 0x1BB88, symBinAddr: 0x10001E180, symSize: 0x24 }
  - { offsetInCU: 0x46910, offset: 0x46910, size: 0x8, addend: 0x0, symName: __ZNSt3__122__compressed_pair_elemINS_21__unordered_map_equalINS_12basic_stringIcNS_11char_traitsIcEENS_9allocatorIcEEEENS_17__hash_value_typeIS7_10MemberInfoEENS_8equal_toIS7_EENS_4hashIS7_EELb1EEELi1ELb1EE5__getB7v160006Ev, symObjAddr: 0x1BBAC, symBinAddr: 0x10001E1A4, symSize: 0x14 }
  - { offsetInCU: 0x46935, offset: 0x46935, size: 0x8, addend: 0x0, symName: __ZNKSt3__117__hash_value_typeINS_12basic_stringIcNS_11char_traitsIcEENS_9allocatorIcEEEE10MemberInfoE11__get_valueB7v160006Ev, symObjAddr: 0x1BBC0, symBinAddr: 0x10001E1B8, symSize: 0x24 }
  - { offsetInCU: 0x4695A, offset: 0x4695A, size: 0x8, addend: 0x0, symName: __ZNSt3__116allocator_traitsINS_9allocatorINS_11__hash_nodeINS_17__hash_value_typeINS_12basic_stringIcNS_11char_traitsIcEENS1_IcEEEE10MemberInfoEEPvEEEEE8allocateB7v160006ERSD_m, symObjAddr: 0x1BC1C, symBinAddr: 0x10001E214, symSize: 0x2C }
  - { offsetInCU: 0x4698D, offset: 0x4698D, size: 0x8, addend: 0x0, symName: __ZNSt3__122__hash_node_destructorINS_9allocatorINS_11__hash_nodeINS_17__hash_value_typeINS_12basic_stringIcNS_11char_traitsIcEENS1_IcEEEE10MemberInfoEEPvEEEEEC1B7v160006ERSD_b, symObjAddr: 0x1BC48, symBinAddr: 0x10001E240, symSize: 0x48 }
  - { offsetInCU: 0x469D9, offset: 0x469D9, size: 0x8, addend: 0x0, symName: __ZNSt3__110unique_ptrINS_11__hash_nodeINS_17__hash_value_typeINS_12basic_stringIcNS_11char_traitsIcEENS_9allocatorIcEEEE10MemberInfoEEPvEENS_22__hash_node_destructorINS6_ISC_EEEEEC1B7v160006ILb1EvEEPSC_NS_16__dependent_typeINS_27__unique_ptr_deleter_sfinaeISF_EEXT_EE20__good_rval_ref_typeE, symObjAddr: 0x1BC90, symBinAddr: 0x10001E288, symSize: 0x3C }
  - { offsetInCU: 0x46A29, offset: 0x46A29, size: 0x8, addend: 0x0, symName: __ZNSt3__116allocator_traitsINS_9allocatorINS_11__hash_nodeINS_17__hash_value_typeINS_12basic_stringIcNS_11char_traitsIcEENS1_IcEEEE10MemberInfoEEPvEEEEE9constructB7v160006INS_4pairIKS8_S9_EEJRS8_RS9_EvEEvRSD_PT_DpOT0_, symObjAddr: 0x1BCCC, symBinAddr: 0x10001E2C4, symSize: 0x3C }
  - { offsetInCU: 0x46A94, offset: 0x46A94, size: 0x8, addend: 0x0, symName: __ZNSt3__110unique_ptrINS_11__hash_nodeINS_17__hash_value_typeINS_12basic_stringIcNS_11char_traitsIcEENS_9allocatorIcEEEE10MemberInfoEEPvEENS_22__hash_node_destructorINS6_ISC_EEEEE11get_deleterB7v160006Ev, symObjAddr: 0x1BD08, symBinAddr: 0x10001E300, symSize: 0x24 }
  - { offsetInCU: 0x46AB9, offset: 0x46AB9, size: 0x8, addend: 0x0, symName: __ZNSt3__19allocatorINS_11__hash_nodeINS_17__hash_value_typeINS_12basic_stringIcNS_11char_traitsIcEENS0_IcEEEE10MemberInfoEEPvEEE8allocateB7v160006Em, symObjAddr: 0x1BD2C, symBinAddr: 0x10001E324, symSize: 0x5C }
  - { offsetInCU: 0x46AF6, offset: 0x46AF6, size: 0x8, addend: 0x0, symName: __ZNSt3__116allocator_traitsINS_9allocatorINS_11__hash_nodeINS_17__hash_value_typeINS_12basic_stringIcNS_11char_traitsIcEENS1_IcEEEE10MemberInfoEEPvEEEEE8max_sizeB7v160006ISD_vEEmRKSD_, symObjAddr: 0x1BD88, symBinAddr: 0x10001E380, symSize: 0x24 }
  - { offsetInCU: 0x46B24, offset: 0x46B24, size: 0x8, addend: 0x0, symName: __ZNKSt3__19allocatorINS_11__hash_nodeINS_17__hash_value_typeINS_12basic_stringIcNS_11char_traitsIcEENS0_IcEEEE10MemberInfoEEPvEEE8max_sizeB7v160006Ev, symObjAddr: 0x1BDAC, symBinAddr: 0x10001E3A4, symSize: 0x18 }
  - { offsetInCU: 0x46B49, offset: 0x46B49, size: 0x8, addend: 0x0, symName: __ZNSt3__122__hash_node_destructorINS_9allocatorINS_11__hash_nodeINS_17__hash_value_typeINS_12basic_stringIcNS_11char_traitsIcEENS1_IcEEEE10MemberInfoEEPvEEEEEC2B7v160006ERSD_b, symObjAddr: 0x1BDC4, symBinAddr: 0x10001E3BC, symSize: 0x38 }
  - { offsetInCU: 0x46B90, offset: 0x46B90, size: 0x8, addend: 0x0, symName: __ZNSt3__110unique_ptrINS_11__hash_nodeINS_17__hash_value_typeINS_12basic_stringIcNS_11char_traitsIcEENS_9allocatorIcEEEE10MemberInfoEEPvEENS_22__hash_node_destructorINS6_ISC_EEEEEC2B7v160006ILb1EvEEPSC_NS_16__dependent_typeINS_27__unique_ptr_deleter_sfinaeISF_EEXT_EE20__good_rval_ref_typeE, symObjAddr: 0x1BDFC, symBinAddr: 0x10001E3F4, symSize: 0x48 }
  - { offsetInCU: 0x46BE0, offset: 0x46BE0, size: 0x8, addend: 0x0, symName: __ZNSt3__117__compressed_pairIPNS_11__hash_nodeINS_17__hash_value_typeINS_12basic_stringIcNS_11char_traitsIcEENS_9allocatorIcEEEE10MemberInfoEEPvEENS_22__hash_node_destructorINS6_ISC_EEEEEC1B7v160006IRSD_SG_EEOT_OT0_, symObjAddr: 0x1BE44, symBinAddr: 0x10001E43C, symSize: 0x3C }
  - { offsetInCU: 0x46C37, offset: 0x46C37, size: 0x8, addend: 0x0, symName: __ZNSt3__117__compressed_pairIPNS_11__hash_nodeINS_17__hash_value_typeINS_12basic_stringIcNS_11char_traitsIcEENS_9allocatorIcEEEE10MemberInfoEEPvEENS_22__hash_node_destructorINS6_ISC_EEEEEC2B7v160006IRSD_SG_EEOT_OT0_, symObjAddr: 0x1BE80, symBinAddr: 0x10001E478, symSize: 0x48 }
  - { offsetInCU: 0x46C8E, offset: 0x46C8E, size: 0x8, addend: 0x0, symName: __ZNSt3__122__compressed_pair_elemIPNS_11__hash_nodeINS_17__hash_value_typeINS_12basic_stringIcNS_11char_traitsIcEENS_9allocatorIcEEEE10MemberInfoEEPvEELi0ELb0EEC2B7v160006IRSD_vEEOT_, symObjAddr: 0x1BEC8, symBinAddr: 0x10001E4C0, symSize: 0x24 }
  - { offsetInCU: 0x46CCF, offset: 0x46CCF, size: 0x8, addend: 0x0, symName: __ZNSt3__122__compressed_pair_elemINS_22__hash_node_destructorINS_9allocatorINS_11__hash_nodeINS_17__hash_value_typeINS_12basic_stringIcNS_11char_traitsIcEENS2_IcEEEE10MemberInfoEEPvEEEEEELi1ELb0EEC2B7v160006ISF_vEEOT_, symObjAddr: 0x1BEEC, symBinAddr: 0x10001E4E4, symSize: 0x24 }
  - { offsetInCU: 0x46D10, offset: 0x46D10, size: 0x8, addend: 0x0, symName: __ZNSt3__19allocatorINS_11__hash_nodeINS_17__hash_value_typeINS_12basic_stringIcNS_11char_traitsIcEENS0_IcEEEE10MemberInfoEEPvEEE9constructB7v160006INS_4pairIKS7_S8_EEJRS7_RS8_EEEvPT_DpOT0_, symObjAddr: 0x1BF10, symBinAddr: 0x10001E508, symSize: 0x38 }
  - { offsetInCU: 0x46D78, offset: 0x46D78, size: 0x8, addend: 0x0, symName: __ZNSt3__14pairIKNS_12basic_stringIcNS_11char_traitsIcEENS_9allocatorIcEEEE10MemberInfoEC1B7v160006IRS6_RS8_LPv0EEEOT_OT0_, symObjAddr: 0x1BF48, symBinAddr: 0x10001E540, symSize: 0x3C }
  - { offsetInCU: 0x46DD5, offset: 0x46DD5, size: 0x8, addend: 0x0, symName: __ZNSt3__14pairIKNS_12basic_stringIcNS_11char_traitsIcEENS_9allocatorIcEEEE10MemberInfoEC2B7v160006IRS6_RS8_LPv0EEEOT_OT0_, symObjAddr: 0x1BF84, symBinAddr: 0x10001E57C, symSize: 0x70 }
  - { offsetInCU: 0x46E32, offset: 0x46E32, size: 0x8, addend: 0x0, symName: __ZNSt3__117__compressed_pairIPNS_11__hash_nodeINS_17__hash_value_typeINS_12basic_stringIcNS_11char_traitsIcEENS_9allocatorIcEEEE10MemberInfoEEPvEENS_22__hash_node_destructorINS6_ISC_EEEEE6secondB7v160006Ev, symObjAddr: 0x1BFF4, symBinAddr: 0x10001E5EC, symSize: 0x28 }
  - { offsetInCU: 0x46E57, offset: 0x46E57, size: 0x8, addend: 0x0, symName: __ZNSt3__122__compressed_pair_elemINS_22__hash_node_destructorINS_9allocatorINS_11__hash_nodeINS_17__hash_value_typeINS_12basic_stringIcNS_11char_traitsIcEENS2_IcEEEE10MemberInfoEEPvEEEEEELi1ELb0EE5__getB7v160006Ev, symObjAddr: 0x1C01C, symBinAddr: 0x10001E614, symSize: 0x14 }
  - { offsetInCU: 0x46E7C, offset: 0x46E7C, size: 0x8, addend: 0x0, symName: __ZNSt3__117__compressed_pairImNS_22__unordered_map_hasherINS_12basic_stringIcNS_11char_traitsIcEENS_9allocatorIcEEEENS_17__hash_value_typeIS7_10MemberInfoEENS_4hashIS7_EENS_8equal_toIS7_EELb1EEEE5firstB7v160006Ev, symObjAddr: 0x1C030, symBinAddr: 0x10001E628, symSize: 0x24 }
  - { offsetInCU: 0x46EA1, offset: 0x46EA1, size: 0x8, addend: 0x0, symName: __ZNSt3__117__compressed_pairIfNS_21__unordered_map_equalINS_12basic_stringIcNS_11char_traitsIcEENS_9allocatorIcEEEENS_17__hash_value_typeIS7_10MemberInfoEENS_8equal_toIS7_EENS_4hashIS7_EELb1EEEE5firstB7v160006Ev, symObjAddr: 0x1C054, symBinAddr: 0x10001E64C, symSize: 0x24 }
  - { offsetInCU: 0x46EC5, offset: 0x46EC5, size: 0x8, addend: 0x0, symName: __ZNSt3__112__hash_tableINS_17__hash_value_typeINS_12basic_stringIcNS_11char_traitsIcEENS_9allocatorIcEEEE10MemberInfoEENS_22__unordered_map_hasherIS7_S9_NS_4hashIS7_EENS_8equal_toIS7_EELb1EEENS_21__unordered_map_equalIS7_S9_SE_SC_Lb1EEENS5_IS9_EEE8__rehashILb1EEEvm, symObjAddr: 0x1C078, symBinAddr: 0x10001E670, symSize: 0x1A8 }
  - { offsetInCU: 0x46F13, offset: 0x46F13, size: 0x8, addend: 0x0, symName: __ZNSt3__112__hash_tableINS_17__hash_value_typeINS_12basic_stringIcNS_11char_traitsIcEENS_9allocatorIcEEEE10MemberInfoEENS_22__unordered_map_hasherIS7_S9_NS_4hashIS7_EENS_8equal_toIS7_EELb1EEENS_21__unordered_map_equalIS7_S9_SE_SC_Lb1EEENS5_IS9_EEE11__do_rehashILb1EEEvm, symObjAddr: 0x1C220, symBinAddr: 0x10001E818, symSize: 0x290 }
  - { offsetInCU: 0x46FF5, offset: 0x46FF5, size: 0x8, addend: 0x0, symName: __ZNSt3__110unique_ptrIA_PNS_16__hash_node_baseIPNS_11__hash_nodeINS_17__hash_value_typeINS_12basic_stringIcNS_11char_traitsIcEENS_9allocatorIcEEEE10MemberInfoEEPvEEEENS_25__bucket_list_deallocatorINS7_ISG_EEEEE11get_deleterB7v160006Ev, symObjAddr: 0x1C4C0, symBinAddr: 0x10001EAB8, symSize: 0x24 }
  - { offsetInCU: 0x4701A, offset: 0x4701A, size: 0x8, addend: 0x0, symName: __ZNSt3__110unique_ptrIA_PNS_16__hash_node_baseIPNS_11__hash_nodeINS_17__hash_value_typeINS_12basic_stringIcNS_11char_traitsIcEENS_9allocatorIcEEEE10MemberInfoEEPvEEEENS_25__bucket_list_deallocatorINS7_ISG_EEEEE5resetB7v160006IPSG_EENS_9enable_ifIXsr28_CheckArrayPointerConversionIT_EE5valueEvE4typeESP_, symObjAddr: 0x1C4E4, symBinAddr: 0x10001EADC, symSize: 0x78 }
  - { offsetInCU: 0x47066, offset: 0x47066, size: 0x8, addend: 0x0, symName: __ZNSt3__116allocator_traitsINS_9allocatorIPNS_16__hash_node_baseIPNS_11__hash_nodeINS_17__hash_value_typeINS_12basic_stringIcNS_11char_traitsIcEENS1_IcEEEE10MemberInfoEEPvEEEEEEE8allocateB7v160006ERSH_m, symObjAddr: 0x1C55C, symBinAddr: 0x10001EB54, symSize: 0x2C }
  - { offsetInCU: 0x47099, offset: 0x47099, size: 0x8, addend: 0x0, symName: __ZNSt3__19allocatorIPNS_16__hash_node_baseIPNS_11__hash_nodeINS_17__hash_value_typeINS_12basic_stringIcNS_11char_traitsIcEENS0_IcEEEE10MemberInfoEEPvEEEEE8allocateB7v160006Em, symObjAddr: 0x1C588, symBinAddr: 0x10001EB80, symSize: 0x58 }
  - { offsetInCU: 0x470D6, offset: 0x470D6, size: 0x8, addend: 0x0, symName: __ZNSt3__116allocator_traitsINS_9allocatorIPNS_16__hash_node_baseIPNS_11__hash_nodeINS_17__hash_value_typeINS_12basic_stringIcNS_11char_traitsIcEENS1_IcEEEE10MemberInfoEEPvEEEEEEE8max_sizeB7v160006ISH_vEEmRKSH_, symObjAddr: 0x1C5E0, symBinAddr: 0x10001EBD8, symSize: 0x24 }
  - { offsetInCU: 0x47104, offset: 0x47104, size: 0x8, addend: 0x0, symName: __ZNKSt3__19allocatorIPNS_16__hash_node_baseIPNS_11__hash_nodeINS_17__hash_value_typeINS_12basic_stringIcNS_11char_traitsIcEENS0_IcEEEE10MemberInfoEEPvEEEEE8max_sizeB7v160006Ev, symObjAddr: 0x1C604, symBinAddr: 0x10001EBFC, symSize: 0x14 }
  - { offsetInCU: 0x47129, offset: 0x47129, size: 0x8, addend: 0x0, symName: __ZNKSt3__117__compressed_pairIPNS_11__hash_nodeINS_17__hash_value_typeINS_12basic_stringIcNS_11char_traitsIcEENS_9allocatorIcEEEE10MemberInfoEEPvEENS_22__hash_node_destructorINS6_ISC_EEEEE5firstB7v160006Ev, symObjAddr: 0x1C618, symBinAddr: 0x10001EC10, symSize: 0x24 }
  - { offsetInCU: 0x4714E, offset: 0x4714E, size: 0x8, addend: 0x0, symName: __ZNKSt3__122__compressed_pair_elemIPNS_11__hash_nodeINS_17__hash_value_typeINS_12basic_stringIcNS_11char_traitsIcEENS_9allocatorIcEEEE10MemberInfoEEPvEELi0ELb0EE5__getB7v160006Ev, symObjAddr: 0x1C63C, symBinAddr: 0x10001EC34, symSize: 0x14 }
  - { offsetInCU: 0x47173, offset: 0x47173, size: 0x8, addend: 0x0, symName: __ZNSt3__117__compressed_pairIPNS_11__hash_nodeINS_17__hash_value_typeINS_12basic_stringIcNS_11char_traitsIcEENS_9allocatorIcEEEE10MemberInfoEEPvEENS_22__hash_node_destructorINS6_ISC_EEEEE5firstB7v160006Ev, symObjAddr: 0x1C650, symBinAddr: 0x10001EC48, symSize: 0x24 }
  - { offsetInCU: 0x47198, offset: 0x47198, size: 0x8, addend: 0x0, symName: __ZNSt3__122__compressed_pair_elemIPNS_11__hash_nodeINS_17__hash_value_typeINS_12basic_stringIcNS_11char_traitsIcEENS_9allocatorIcEEEE10MemberInfoEEPvEELi0ELb0EE5__getB7v160006Ev, symObjAddr: 0x1C674, symBinAddr: 0x10001EC6C, symSize: 0x14 }
  - { offsetInCU: 0x471BD, offset: 0x471BD, size: 0x8, addend: 0x0, symName: __ZNSt3__110unique_ptrINS_11__hash_nodeINS_17__hash_value_typeINS_12basic_stringIcNS_11char_traitsIcEENS_9allocatorIcEEEE10MemberInfoEEPvEENS_22__hash_node_destructorINS6_ISC_EEEEED2B7v160006Ev, symObjAddr: 0x1C688, symBinAddr: 0x10001EC80, symSize: 0x30 }
  - { offsetInCU: 0x471E6, offset: 0x471E6, size: 0x8, addend: 0x0, symName: __ZNSt3__110unique_ptrINS_11__hash_nodeINS_17__hash_value_typeINS_12basic_stringIcNS_11char_traitsIcEENS_9allocatorIcEEEE10MemberInfoEEPvEENS_22__hash_node_destructorINS6_ISC_EEEEE5resetB7v160006EPSC_, symObjAddr: 0x1C6B8, symBinAddr: 0x10001ECB0, symSize: 0x78 }
  - { offsetInCU: 0x47229, offset: 0x47229, size: 0x8, addend: 0x0, symName: __ZNSt3__122__hash_node_destructorINS_9allocatorINS_11__hash_nodeINS_17__hash_value_typeINS_12basic_stringIcNS_11char_traitsIcEENS1_IcEEEE10MemberInfoEEPvEEEEEclB7v160006EPSC_, symObjAddr: 0x1C730, symBinAddr: 0x10001ED28, symSize: 0x94 }
  - { offsetInCU: 0x4725D, offset: 0x4725D, size: 0x8, addend: 0x0, symName: __ZNSt3__115__hash_iteratorIPNS_11__hash_nodeINS_17__hash_value_typeINS_12basic_stringIcNS_11char_traitsIcEENS_9allocatorIcEEEE10MemberInfoEEPvEEEC2B7v160006EPNS_16__hash_node_baseISD_EEPKv, symObjAddr: 0x1C7C4, symBinAddr: 0x10001EDBC, symSize: 0x24 }
  - { offsetInCU: 0x472A4, offset: 0x472A4, size: 0x8, addend: 0x0, symName: __ZNSt3__14pairINS_15__hash_iteratorIPNS_11__hash_nodeINS_17__hash_value_typeINS_12basic_stringIcNS_11char_traitsIcEENS_9allocatorIcEEEE10MemberInfoEEPvEEEEbEC2B7v160006ISF_RbLSC_0EEEOT_OT0_, symObjAddr: 0x1C7E8, symBinAddr: 0x10001EDE0, symSize: 0x38 }
  - { offsetInCU: 0x47301, offset: 0x47301, size: 0x8, addend: 0x0, symName: __ZNSt3__14pairINS_19__hash_map_iteratorINS_15__hash_iteratorIPNS_11__hash_nodeINS_17__hash_value_typeINS_12basic_stringIcNS_11char_traitsIcEENS_9allocatorIcEEEE10MemberInfoEEPvEEEEEEbEC2B7v160006ISG_bLSD_0EEEONS0_IT_T0_EE, symObjAddr: 0x1C820, symBinAddr: 0x10001EE18, symSize: 0x50 }
  - { offsetInCU: 0x47351, offset: 0x47351, size: 0x8, addend: 0x0, symName: __ZNSt3__119__hash_map_iteratorINS_15__hash_iteratorIPNS_11__hash_nodeINS_17__hash_value_typeINS_12basic_stringIcNS_11char_traitsIcEENS_9allocatorIcEEEE10MemberInfoEEPvEEEEEC1B7v160006ESF_, symObjAddr: 0x1C870, symBinAddr: 0x10001EE68, symSize: 0x34 }
  - { offsetInCU: 0x47389, offset: 0x47389, size: 0x8, addend: 0x0, symName: __ZNSt3__119__hash_map_iteratorINS_15__hash_iteratorIPNS_11__hash_nodeINS_17__hash_value_typeINS_12basic_stringIcNS_11char_traitsIcEENS_9allocatorIcEEEE10MemberInfoEEPvEEEEEC2B7v160006ESF_, symObjAddr: 0x1C8A4, symBinAddr: 0x10001EE9C, symSize: 0x20 }
  - { offsetInCU: 0x473C1, offset: 0x473C1, size: 0x8, addend: 0x0, symName: __ZNSt3__16vectorI7TempDefNS_9allocatorIS1_EEE22__construct_one_at_endB7v160006IJRKS1_EEEvDpOT_, symObjAddr: 0x1C8C4, symBinAddr: 0x10001EEBC, symSize: 0x90 }
  - { offsetInCU: 0x4740E, offset: 0x4740E, size: 0x8, addend: 0x0, symName: __ZNSt3__16vectorI7TempDefNS_9allocatorIS1_EEE21__push_back_slow_pathIRKS1_EEvOT_, symObjAddr: 0x1C954, symBinAddr: 0x10001EF4C, symSize: 0xD8 }
  - { offsetInCU: 0x4746A, offset: 0x4746A, size: 0x8, addend: 0x0, symName: __ZNKSt3__16vectorI7TempDefNS_9allocatorIS1_EEE11__recommendB7v160006Em, symObjAddr: 0x1CA2C, symBinAddr: 0x10001F024, symSize: 0xB4 }
  - { offsetInCU: 0x474BE, offset: 0x474BE, size: 0x8, addend: 0x0, symName: __ZNSt3__114__split_bufferI7TempDefRNS_9allocatorIS1_EEEC1EmmS4_, symObjAddr: 0x1CAE0, symBinAddr: 0x10001F0D8, symSize: 0x44 }
  - { offsetInCU: 0x47513, offset: 0x47513, size: 0x8, addend: 0x0, symName: __ZNSt3__114__split_bufferI7TempDefRNS_9allocatorIS1_EEED1Ev, symObjAddr: 0x1CC3C, symBinAddr: 0x10001F234, symSize: 0x2C }
  - { offsetInCU: 0x4753E, offset: 0x4753E, size: 0x8, addend: 0x0, symName: __ZNSt3__114__split_bufferI7TempDefRNS_9allocatorIS1_EEEC2EmmS4_, symObjAddr: 0x1CC68, symBinAddr: 0x10001F260, symSize: 0xD4 }
  - { offsetInCU: 0x475B0, offset: 0x475B0, size: 0x8, addend: 0x0, symName: __ZNSt3__117__compressed_pairIP7TempDefRNS_9allocatorIS1_EEEC1B7v160006IDnS5_EEOT_OT0_, symObjAddr: 0x1CD3C, symBinAddr: 0x10001F334, symSize: 0x3C }
  - { offsetInCU: 0x47607, offset: 0x47607, size: 0x8, addend: 0x0, symName: __ZNSt3__114__split_bufferI7TempDefRNS_9allocatorIS1_EEE7__allocB7v160006Ev, symObjAddr: 0x1CD78, symBinAddr: 0x10001F370, symSize: 0x28 }
  - { offsetInCU: 0x4762C, offset: 0x4762C, size: 0x8, addend: 0x0, symName: __ZNSt3__114__split_bufferI7TempDefRNS_9allocatorIS1_EEE9__end_capB7v160006Ev, symObjAddr: 0x1CDA0, symBinAddr: 0x10001F398, symSize: 0x28 }
  - { offsetInCU: 0x47651, offset: 0x47651, size: 0x8, addend: 0x0, symName: __ZNSt3__117__compressed_pairIP7TempDefRNS_9allocatorIS1_EEEC2B7v160006IDnS5_EEOT_OT0_, symObjAddr: 0x1CDC8, symBinAddr: 0x10001F3C0, symSize: 0x48 }
  - { offsetInCU: 0x476A8, offset: 0x476A8, size: 0x8, addend: 0x0, symName: __ZNSt3__122__compressed_pair_elemIRNS_9allocatorI7TempDefEELi1ELb0EEC2B7v160006IS4_vEEOT_, symObjAddr: 0x1CE10, symBinAddr: 0x10001F408, symSize: 0x20 }
  - { offsetInCU: 0x476E9, offset: 0x476E9, size: 0x8, addend: 0x0, symName: __ZNSt3__117__compressed_pairIP7TempDefRNS_9allocatorIS1_EEE6secondB7v160006Ev, symObjAddr: 0x1CE30, symBinAddr: 0x10001F428, symSize: 0x28 }
  - { offsetInCU: 0x4770E, offset: 0x4770E, size: 0x8, addend: 0x0, symName: __ZNSt3__122__compressed_pair_elemIRNS_9allocatorI7TempDefEELi1ELb0EE5__getB7v160006Ev, symObjAddr: 0x1CE58, symBinAddr: 0x10001F450, symSize: 0x18 }
  - { offsetInCU: 0x47733, offset: 0x47733, size: 0x8, addend: 0x0, symName: __ZNSt3__117__compressed_pairIP7TempDefRNS_9allocatorIS1_EEE5firstB7v160006Ev, symObjAddr: 0x1CE70, symBinAddr: 0x10001F468, symSize: 0x24 }
  - { offsetInCU: 0x47758, offset: 0x47758, size: 0x8, addend: 0x0, symName: __ZNSt3__129_AllocatorDestroyRangeReverseINS_9allocatorI7TempDefEENS_16reverse_iteratorIPS2_EEEC1B7v160006ERS3_RS6_S9_, symObjAddr: 0x1D048, symBinAddr: 0x10001F640, symSize: 0x44 }
  - { offsetInCU: 0x477B3, offset: 0x477B3, size: 0x8, addend: 0x0, symName: __ZNSt3__116allocator_traitsINS_9allocatorI7TempDefEEE9constructB7v160006IS2_JS2_EvEEvRS3_PT_DpOT0_, symObjAddr: 0x1D08C, symBinAddr: 0x10001F684, symSize: 0x34 }
  - { offsetInCU: 0x4780A, offset: 0x4780A, size: 0x8, addend: 0x0, symName: __ZNSt3__128__exception_guard_exceptionsINS_29_AllocatorDestroyRangeReverseINS_9allocatorI7TempDefEENS_16reverse_iteratorIPS3_EEEEE10__completeB7v160006Ev, symObjAddr: 0x1D0C0, symBinAddr: 0x10001F6B8, symSize: 0x1C }
  - { offsetInCU: 0x4782F, offset: 0x4782F, size: 0x8, addend: 0x0, symName: __ZNSt3__128__exception_guard_exceptionsINS_29_AllocatorDestroyRangeReverseINS_9allocatorI7TempDefEENS_16reverse_iteratorIPS3_EEEEED1B7v160006Ev, symObjAddr: 0x1D0DC, symBinAddr: 0x10001F6D4, symSize: 0x2C }
  - { offsetInCU: 0x47858, offset: 0x47858, size: 0x8, addend: 0x0, symName: __ZNSt3__128__exception_guard_exceptionsINS_29_AllocatorDestroyRangeReverseINS_9allocatorI7TempDefEENS_16reverse_iteratorIPS3_EEEEEC1B7v160006ES8_, symObjAddr: 0x1D108, symBinAddr: 0x10001F700, symSize: 0x34 }
  - { offsetInCU: 0x47890, offset: 0x47890, size: 0x8, addend: 0x0, symName: __ZNSt3__128__exception_guard_exceptionsINS_29_AllocatorDestroyRangeReverseINS_9allocatorI7TempDefEENS_16reverse_iteratorIPS3_EEEEEC2B7v160006ES8_, symObjAddr: 0x1D13C, symBinAddr: 0x10001F734, symSize: 0x30 }
  - { offsetInCU: 0x478C8, offset: 0x478C8, size: 0x8, addend: 0x0, symName: __ZNSt3__129_AllocatorDestroyRangeReverseINS_9allocatorI7TempDefEENS_16reverse_iteratorIPS2_EEEC2B7v160006ERS3_RS6_S9_, symObjAddr: 0x1D16C, symBinAddr: 0x10001F764, symSize: 0x38 }
  - { offsetInCU: 0x4791E, offset: 0x4791E, size: 0x8, addend: 0x0, symName: __ZNSt3__19allocatorI7TempDefE9constructB7v160006IS1_JS1_EEEvPT_DpOT0_, symObjAddr: 0x1D1A4, symBinAddr: 0x10001F79C, symSize: 0x30 }
  - { offsetInCU: 0x47973, offset: 0x47973, size: 0x8, addend: 0x0, symName: __ZN7TempDefC1EOS_, symObjAddr: 0x1D1D4, symBinAddr: 0x10001F7CC, symSize: 0x34 }
  - { offsetInCU: 0x479A7, offset: 0x479A7, size: 0x8, addend: 0x0, symName: __ZN7TempDefC2EOS_, symObjAddr: 0x1D208, symBinAddr: 0x10001F800, symSize: 0x48 }
  - { offsetInCU: 0x479DB, offset: 0x479DB, size: 0x8, addend: 0x0, symName: __ZNSt3__128__exception_guard_exceptionsINS_29_AllocatorDestroyRangeReverseINS_9allocatorI7TempDefEENS_16reverse_iteratorIPS3_EEEEED2B7v160006Ev, symObjAddr: 0x1D250, symBinAddr: 0x10001F848, symSize: 0x50 }
  - { offsetInCU: 0x47A04, offset: 0x47A04, size: 0x8, addend: 0x0, symName: __ZNKSt3__129_AllocatorDestroyRangeReverseINS_9allocatorI7TempDefEENS_16reverse_iteratorIPS2_EEEclB7v160006Ev, symObjAddr: 0x1D2A0, symBinAddr: 0x10001F898, symSize: 0xB4 }
  - { offsetInCU: 0x47A2A, offset: 0x47A2A, size: 0x8, addend: 0x0, symName: __ZNSt3__116reverse_iteratorINS0_IP7TempDefEEEC1B7v160006ES3_, symObjAddr: 0x1D3C4, symBinAddr: 0x10001F9BC, symSize: 0x3C }
  - { offsetInCU: 0x47A61, offset: 0x47A61, size: 0x8, addend: 0x0, symName: __ZNSt3__116reverse_iteratorINS0_IP7TempDefEEEppB7v160006Ev, symObjAddr: 0x1D484, symBinAddr: 0x10001FA7C, symSize: 0x30 }
  - { offsetInCU: 0x47A86, offset: 0x47A86, size: 0x8, addend: 0x0, symName: __ZNKSt3__116reverse_iteratorINS0_IP7TempDefEEE4baseB7v160006Ev, symObjAddr: 0x1D4B4, symBinAddr: 0x10001FAAC, symSize: 0x24 }
  - { offsetInCU: 0x47AB0, offset: 0x47AB0, size: 0x8, addend: 0x0, symName: __ZNSt3__119__to_address_helperINS_16reverse_iteratorINS1_IP7TempDefEEEEvE6__callB7v160006ERKS5_, symObjAddr: 0x1D4D8, symBinAddr: 0x10001FAD0, symSize: 0x38 }
  - { offsetInCU: 0x47AD3, offset: 0x47AD3, size: 0x8, addend: 0x0, symName: __ZNKSt3__116reverse_iteratorINS0_IP7TempDefEEEptB7v160006Ev, symObjAddr: 0x1D510, symBinAddr: 0x10001FB08, symSize: 0x24 }
  - { offsetInCU: 0x47AF8, offset: 0x47AF8, size: 0x8, addend: 0x0, symName: __ZNKSt3__116reverse_iteratorINS0_IP7TempDefEEEdeB7v160006Ev, symObjAddr: 0x1D534, symBinAddr: 0x10001FB2C, symSize: 0x34 }
  - { offsetInCU: 0x47B2B, offset: 0x47B2B, size: 0x8, addend: 0x0, symName: __ZNSt3__116reverse_iteratorIP7TempDefEmmB7v160006Ev, symObjAddr: 0x1D568, symBinAddr: 0x10001FB60, symSize: 0x20 }
  - { offsetInCU: 0x47B50, offset: 0x47B50, size: 0x8, addend: 0x0, symName: __ZNSt3__116reverse_iteratorINS0_IP7TempDefEEEC2B7v160006ES3_, symObjAddr: 0x1D588, symBinAddr: 0x10001FB80, symSize: 0x2C }
  - { offsetInCU: 0x47B87, offset: 0x47B87, size: 0x8, addend: 0x0, symName: __ZNSt3__114__split_bufferI7TempDefRNS_9allocatorIS1_EEED2Ev, symObjAddr: 0x1D5B4, symBinAddr: 0x10001FBAC, symSize: 0x8C }
  - { offsetInCU: 0x47BB2, offset: 0x47BB2, size: 0x8, addend: 0x0, symName: __ZNSt3__114__split_bufferI7TempDefRNS_9allocatorIS1_EEE5clearB7v160006Ev, symObjAddr: 0x1D640, symBinAddr: 0x10001FC38, symSize: 0x28 }
  - { offsetInCU: 0x47BD7, offset: 0x47BD7, size: 0x8, addend: 0x0, symName: __ZNKSt3__114__split_bufferI7TempDefRNS_9allocatorIS1_EEE8capacityB7v160006Ev, symObjAddr: 0x1D668, symBinAddr: 0x10001FC60, symSize: 0x40 }
  - { offsetInCU: 0x47BFC, offset: 0x47BFC, size: 0x8, addend: 0x0, symName: __ZNSt3__114__split_bufferI7TempDefRNS_9allocatorIS1_EEE17__destruct_at_endB7v160006EPS1_, symObjAddr: 0x1D6A8, symBinAddr: 0x10001FCA0, symSize: 0x2C }
  - { offsetInCU: 0x47C2E, offset: 0x47C2E, size: 0x8, addend: 0x0, symName: __ZNSt3__114__split_bufferI7TempDefRNS_9allocatorIS1_EEE17__destruct_at_endB7v160006EPS1_NS_17integral_constantIbLb0EEE, symObjAddr: 0x1D6D4, symBinAddr: 0x10001FCCC, symSize: 0x80 }
  - { offsetInCU: 0x47C6D, offset: 0x47C6D, size: 0x8, addend: 0x0, symName: __ZNKSt3__114__split_bufferI7TempDefRNS_9allocatorIS1_EEE9__end_capB7v160006Ev, symObjAddr: 0x1D754, symBinAddr: 0x10001FD4C, symSize: 0x28 }
  - { offsetInCU: 0x47C92, offset: 0x47C92, size: 0x8, addend: 0x0, symName: __ZNKSt3__117__compressed_pairIP7TempDefRNS_9allocatorIS1_EEE5firstB7v160006Ev, symObjAddr: 0x1D77C, symBinAddr: 0x10001FD74, symSize: 0x24 }
  - { offsetInCU: 0x47CB7, offset: 0x47CB7, size: 0x8, addend: 0x0, symName: __ZNSt3__112__hash_tableINS_17__hash_value_typeINS_12basic_stringIcNS_11char_traitsIcEENS_9allocatorIcEEEE10StructInfoEENS_22__unordered_map_hasherIS7_S9_NS_4hashIS7_EENS_8equal_toIS7_EELb1EEENS_21__unordered_map_equalIS7_S9_SE_SC_Lb1EEENS5_IS9_EEE16__emplace_uniqueB7v160006IRS7_S8_EENS_9enable_ifIXsr21__can_extract_map_keyIT_S7_NS_4pairIKS7_S8_EEEE5valueENSO_INS_15__hash_iteratorIPNS_11__hash_nodeIS9_PvEEEEbEEE4typeEOSN_OT0_, symObjAddr: 0x1D7A0, symBinAddr: 0x10001FD98, symSize: 0x48 }
  - { offsetInCU: 0x47D0C, offset: 0x47D0C, size: 0x8, addend: 0x0, symName: __ZNSt3__14pairINS_19__hash_map_iteratorINS_15__hash_iteratorIPNS_11__hash_nodeINS_17__hash_value_typeINS_12basic_stringIcNS_11char_traitsIcEENS_9allocatorIcEEEE10StructInfoEEPvEEEEEEbEC1B7v160006ISG_bLSD_0EEEONS0_IT_T0_EE, symObjAddr: 0x1D7E8, symBinAddr: 0x10001FDE0, symSize: 0x34 }
  - { offsetInCU: 0x47D5B, offset: 0x47D5B, size: 0x8, addend: 0x0, symName: __ZNSt3__112__hash_tableINS_17__hash_value_typeINS_12basic_stringIcNS_11char_traitsIcEENS_9allocatorIcEEEE10StructInfoEENS_22__unordered_map_hasherIS7_S9_NS_4hashIS7_EENS_8equal_toIS7_EELb1EEENS_21__unordered_map_equalIS7_S9_SE_SC_Lb1EEENS5_IS9_EEE25__emplace_unique_key_argsIS7_JRS7_S8_EEENS_4pairINS_15__hash_iteratorIPNS_11__hash_nodeIS9_PvEEEEbEERKT_DpOT0_, symObjAddr: 0x1D81C, symBinAddr: 0x10001FE14, symSize: 0x4AC }
  - { offsetInCU: 0x47E50, offset: 0x47E50, size: 0x8, addend: 0x0, symName: __ZNSt3__112__hash_tableINS_17__hash_value_typeINS_12basic_stringIcNS_11char_traitsIcEENS_9allocatorIcEEEE10StructInfoEENS_22__unordered_map_hasherIS7_S9_NS_4hashIS7_EENS_8equal_toIS7_EELb1EEENS_21__unordered_map_equalIS7_S9_SE_SC_Lb1EEENS5_IS9_EEE13hash_functionB7v160006Ev, symObjAddr: 0x1DCC8, symBinAddr: 0x1000202C0, symSize: 0x28 }
  - { offsetInCU: 0x47E75, offset: 0x47E75, size: 0x8, addend: 0x0, symName: __ZNKSt3__122__unordered_map_hasherINS_12basic_stringIcNS_11char_traitsIcEENS_9allocatorIcEEEENS_17__hash_value_typeIS6_10StructInfoEENS_4hashIS6_EENS_8equal_toIS6_EELb1EEclB7v160006ERKS6_, symObjAddr: 0x1DCF0, symBinAddr: 0x1000202E8, symSize: 0x2C }
  - { offsetInCU: 0x47EA9, offset: 0x47EA9, size: 0x8, addend: 0x0, symName: __ZNKSt3__112__hash_tableINS_17__hash_value_typeINS_12basic_stringIcNS_11char_traitsIcEENS_9allocatorIcEEEE10StructInfoEENS_22__unordered_map_hasherIS7_S9_NS_4hashIS7_EENS_8equal_toIS7_EELb1EEENS_21__unordered_map_equalIS7_S9_SE_SC_Lb1EEENS5_IS9_EEE12bucket_countB7v160006Ev, symObjAddr: 0x1DD1C, symBinAddr: 0x100020314, symSize: 0x28 }
  - { offsetInCU: 0x47ECE, offset: 0x47ECE, size: 0x8, addend: 0x0, symName: __ZNKSt3__110unique_ptrIA_PNS_16__hash_node_baseIPNS_11__hash_nodeINS_17__hash_value_typeINS_12basic_stringIcNS_11char_traitsIcEENS_9allocatorIcEEEE10StructInfoEEPvEEEENS_25__bucket_list_deallocatorINS7_ISG_EEEEEixB7v160006Em, symObjAddr: 0x1DD44, symBinAddr: 0x10002033C, symSize: 0x34 }
  - { offsetInCU: 0x47F02, offset: 0x47F02, size: 0x8, addend: 0x0, symName: __ZNKSt3__116__hash_node_baseIPNS_11__hash_nodeINS_17__hash_value_typeINS_12basic_stringIcNS_11char_traitsIcEENS_9allocatorIcEEEE10StructInfoEEPvEEE6__hashB7v160006Ev, symObjAddr: 0x1DD78, symBinAddr: 0x100020370, symSize: 0x18 }
  - { offsetInCU: 0x47F27, offset: 0x47F27, size: 0x8, addend: 0x0, symName: __ZNSt3__112__hash_tableINS_17__hash_value_typeINS_12basic_stringIcNS_11char_traitsIcEENS_9allocatorIcEEEE10StructInfoEENS_22__unordered_map_hasherIS7_S9_NS_4hashIS7_EENS_8equal_toIS7_EELb1EEENS_21__unordered_map_equalIS7_S9_SE_SC_Lb1EEENS5_IS9_EEE6key_eqB7v160006Ev, symObjAddr: 0x1DD90, symBinAddr: 0x100020388, symSize: 0x28 }
  - { offsetInCU: 0x47F4C, offset: 0x47F4C, size: 0x8, addend: 0x0, symName: __ZNKSt3__121__unordered_map_equalINS_12basic_stringIcNS_11char_traitsIcEENS_9allocatorIcEEEENS_17__hash_value_typeIS6_10StructInfoEENS_8equal_toIS6_EENS_4hashIS6_EELb1EEclB7v160006ERKS9_RKS6_, symObjAddr: 0x1DDB8, symBinAddr: 0x1000203B0, symSize: 0x48 }
  - { offsetInCU: 0x47F8E, offset: 0x47F8E, size: 0x8, addend: 0x0, symName: __ZNSt3__112__hash_tableINS_17__hash_value_typeINS_12basic_stringIcNS_11char_traitsIcEENS_9allocatorIcEEEE10StructInfoEENS_22__unordered_map_hasherIS7_S9_NS_4hashIS7_EENS_8equal_toIS7_EELb1EEENS_21__unordered_map_equalIS7_S9_SE_SC_Lb1EEENS5_IS9_EEE21__construct_node_hashIRS7_JS8_EEENS_10unique_ptrINS_11__hash_nodeIS9_PvEENS_22__hash_node_destructorINS5_ISP_EEEEEEmOT_DpOT0_, symObjAddr: 0x1DE00, symBinAddr: 0x1000203F8, symSize: 0x148 }
  - { offsetInCU: 0x48015, offset: 0x48015, size: 0x8, addend: 0x0, symName: __ZNSt3__112__hash_tableINS_17__hash_value_typeINS_12basic_stringIcNS_11char_traitsIcEENS_9allocatorIcEEEE10StructInfoEENS_22__unordered_map_hasherIS7_S9_NS_4hashIS7_EENS_8equal_toIS7_EELb1EEENS_21__unordered_map_equalIS7_S9_SE_SC_Lb1EEENS5_IS9_EEE4sizeB7v160006Ev, symObjAddr: 0x1DF48, symBinAddr: 0x100020540, symSize: 0x28 }
  - { offsetInCU: 0x4803A, offset: 0x4803A, size: 0x8, addend: 0x0, symName: __ZNSt3__112__hash_tableINS_17__hash_value_typeINS_12basic_stringIcNS_11char_traitsIcEENS_9allocatorIcEEEE10StructInfoEENS_22__unordered_map_hasherIS7_S9_NS_4hashIS7_EENS_8equal_toIS7_EELb1EEENS_21__unordered_map_equalIS7_S9_SE_SC_Lb1EEENS5_IS9_EEE15max_load_factorB7v160006Ev, symObjAddr: 0x1DF70, symBinAddr: 0x100020568, symSize: 0x28 }
  - { offsetInCU: 0x4805F, offset: 0x4805F, size: 0x8, addend: 0x0, symName: __ZNSt3__112__hash_tableINS_17__hash_value_typeINS_12basic_stringIcNS_11char_traitsIcEENS_9allocatorIcEEEE10StructInfoEENS_22__unordered_map_hasherIS7_S9_NS_4hashIS7_EENS_8equal_toIS7_EELb1EEENS_21__unordered_map_equalIS7_S9_SE_SC_Lb1EEENS5_IS9_EEE15__rehash_uniqueB7v160006Em, symObjAddr: 0x1DF98, symBinAddr: 0x100020590, symSize: 0x2C }
  - { offsetInCU: 0x48093, offset: 0x48093, size: 0x8, addend: 0x0, symName: __ZNSt3__116__hash_node_baseIPNS_11__hash_nodeINS_17__hash_value_typeINS_12basic_stringIcNS_11char_traitsIcEENS_9allocatorIcEEEE10StructInfoEEPvEEE5__ptrB7v160006Ev, symObjAddr: 0x1DFC4, symBinAddr: 0x1000205BC, symSize: 0x24 }
  - { offsetInCU: 0x480B8, offset: 0x480B8, size: 0x8, addend: 0x0, symName: __ZNKSt3__110unique_ptrINS_11__hash_nodeINS_17__hash_value_typeINS_12basic_stringIcNS_11char_traitsIcEENS_9allocatorIcEEEE10StructInfoEEPvEENS_22__hash_node_destructorINS6_ISC_EEEEEptB7v160006Ev, symObjAddr: 0x1DFE8, symBinAddr: 0x1000205E0, symSize: 0x28 }
  - { offsetInCU: 0x480DD, offset: 0x480DD, size: 0x8, addend: 0x0, symName: __ZNKSt3__110unique_ptrINS_11__hash_nodeINS_17__hash_value_typeINS_12basic_stringIcNS_11char_traitsIcEENS_9allocatorIcEEEE10StructInfoEEPvEENS_22__hash_node_destructorINS6_ISC_EEEEE3getB7v160006Ev, symObjAddr: 0x1E010, symBinAddr: 0x100020608, symSize: 0x28 }
  - { offsetInCU: 0x48102, offset: 0x48102, size: 0x8, addend: 0x0, symName: __ZNSt3__110unique_ptrINS_11__hash_nodeINS_17__hash_value_typeINS_12basic_stringIcNS_11char_traitsIcEENS_9allocatorIcEEEE10StructInfoEEPvEENS_22__hash_node_destructorINS6_ISC_EEEEE7releaseB7v160006Ev, symObjAddr: 0x1E038, symBinAddr: 0x100020630, symSize: 0x44 }
  - { offsetInCU: 0x48136, offset: 0x48136, size: 0x8, addend: 0x0, symName: __ZNSt3__110unique_ptrINS_11__hash_nodeINS_17__hash_value_typeINS_12basic_stringIcNS_11char_traitsIcEENS_9allocatorIcEEEE10StructInfoEEPvEENS_22__hash_node_destructorINS6_ISC_EEEEED1B7v160006Ev, symObjAddr: 0x1E07C, symBinAddr: 0x100020674, symSize: 0x2C }
  - { offsetInCU: 0x4815F, offset: 0x4815F, size: 0x8, addend: 0x0, symName: __ZNSt3__115__hash_iteratorIPNS_11__hash_nodeINS_17__hash_value_typeINS_12basic_stringIcNS_11char_traitsIcEENS_9allocatorIcEEEE10StructInfoEEPvEEEC1B7v160006EPNS_16__hash_node_baseISD_EEPKv, symObjAddr: 0x1E0A8, symBinAddr: 0x1000206A0, symSize: 0x3C }
  - { offsetInCU: 0x481AB, offset: 0x481AB, size: 0x8, addend: 0x0, symName: __ZNSt3__14pairINS_15__hash_iteratorIPNS_11__hash_nodeINS_17__hash_value_typeINS_12basic_stringIcNS_11char_traitsIcEENS_9allocatorIcEEEE10StructInfoEEPvEEEEbEC1B7v160006ISF_RbLSC_0EEEOT_OT0_, symObjAddr: 0x1E0E4, symBinAddr: 0x1000206DC, symSize: 0x3C }
  - { offsetInCU: 0x48208, offset: 0x48208, size: 0x8, addend: 0x0, symName: __ZNSt3__117__compressed_pairImNS_22__unordered_map_hasherINS_12basic_stringIcNS_11char_traitsIcEENS_9allocatorIcEEEENS_17__hash_value_typeIS7_10StructInfoEENS_4hashIS7_EENS_8equal_toIS7_EELb1EEEE6secondB7v160006Ev, symObjAddr: 0x1E120, symBinAddr: 0x100020718, symSize: 0x24 }
  - { offsetInCU: 0x4822D, offset: 0x4822D, size: 0x8, addend: 0x0, symName: __ZNSt3__122__compressed_pair_elemINS_22__unordered_map_hasherINS_12basic_stringIcNS_11char_traitsIcEENS_9allocatorIcEEEENS_17__hash_value_typeIS7_10StructInfoEENS_4hashIS7_EENS_8equal_toIS7_EELb1EEELi1ELb1EE5__getB7v160006Ev, symObjAddr: 0x1E144, symBinAddr: 0x10002073C, symSize: 0x14 }
  - { offsetInCU: 0x48252, offset: 0x48252, size: 0x8, addend: 0x0, symName: __ZNKSt3__110unique_ptrIA_PNS_16__hash_node_baseIPNS_11__hash_nodeINS_17__hash_value_typeINS_12basic_stringIcNS_11char_traitsIcEENS_9allocatorIcEEEE10StructInfoEEPvEEEENS_25__bucket_list_deallocatorINS7_ISG_EEEEE11get_deleterB7v160006Ev, symObjAddr: 0x1E158, symBinAddr: 0x100020750, symSize: 0x24 }
  - { offsetInCU: 0x48277, offset: 0x48277, size: 0x8, addend: 0x0, symName: __ZNKSt3__125__bucket_list_deallocatorINS_9allocatorIPNS_16__hash_node_baseIPNS_11__hash_nodeINS_17__hash_value_typeINS_12basic_stringIcNS_11char_traitsIcEENS1_IcEEEE10StructInfoEEPvEEEEEEE4sizeB7v160006Ev, symObjAddr: 0x1E17C, symBinAddr: 0x100020774, symSize: 0x28 }
  - { offsetInCU: 0x4829C, offset: 0x4829C, size: 0x8, addend: 0x0, symName: __ZNKSt3__117__compressed_pairIPPNS_16__hash_node_baseIPNS_11__hash_nodeINS_17__hash_value_typeINS_12basic_stringIcNS_11char_traitsIcEENS_9allocatorIcEEEE10StructInfoEEPvEEEENS_25__bucket_list_deallocatorINS7_ISG_EEEEE6secondB7v160006Ev, symObjAddr: 0x1E1A4, symBinAddr: 0x10002079C, symSize: 0x28 }
  - { offsetInCU: 0x482C1, offset: 0x482C1, size: 0x8, addend: 0x0, symName: __ZNKSt3__122__compressed_pair_elemINS_25__bucket_list_deallocatorINS_9allocatorIPNS_16__hash_node_baseIPNS_11__hash_nodeINS_17__hash_value_typeINS_12basic_stringIcNS_11char_traitsIcEENS2_IcEEEE10StructInfoEEPvEEEEEEEELi1ELb0EE5__getB7v160006Ev, symObjAddr: 0x1E1CC, symBinAddr: 0x1000207C4, symSize: 0x14 }
  - { offsetInCU: 0x482E6, offset: 0x482E6, size: 0x8, addend: 0x0, symName: __ZNKSt3__117__compressed_pairImNS_9allocatorIPNS_16__hash_node_baseIPNS_11__hash_nodeINS_17__hash_value_typeINS_12basic_stringIcNS_11char_traitsIcEENS1_IcEEEE10StructInfoEEPvEEEEEEE5firstB7v160006Ev, symObjAddr: 0x1E1E0, symBinAddr: 0x1000207D8, symSize: 0x24 }
  - { offsetInCU: 0x4830B, offset: 0x4830B, size: 0x8, addend: 0x0, symName: __ZNKSt3__117__compressed_pairIPPNS_16__hash_node_baseIPNS_11__hash_nodeINS_17__hash_value_typeINS_12basic_stringIcNS_11char_traitsIcEENS_9allocatorIcEEEE10StructInfoEEPvEEEENS_25__bucket_list_deallocatorINS7_ISG_EEEEE5firstB7v160006Ev, symObjAddr: 0x1E204, symBinAddr: 0x1000207FC, symSize: 0x24 }
  - { offsetInCU: 0x48330, offset: 0x48330, size: 0x8, addend: 0x0, symName: __ZNKSt3__122__compressed_pair_elemIPPNS_16__hash_node_baseIPNS_11__hash_nodeINS_17__hash_value_typeINS_12basic_stringIcNS_11char_traitsIcEENS_9allocatorIcEEEE10StructInfoEEPvEEEELi0ELb0EE5__getB7v160006Ev, symObjAddr: 0x1E228, symBinAddr: 0x100020820, symSize: 0x14 }
  - { offsetInCU: 0x48355, offset: 0x48355, size: 0x8, addend: 0x0, symName: __ZNSt3__117__compressed_pairIfNS_21__unordered_map_equalINS_12basic_stringIcNS_11char_traitsIcEENS_9allocatorIcEEEENS_17__hash_value_typeIS7_10StructInfoEENS_8equal_toIS7_EENS_4hashIS7_EELb1EEEE6secondB7v160006Ev, symObjAddr: 0x1E23C, symBinAddr: 0x100020834, symSize: 0x24 }
  - { offsetInCU: 0x4837A, offset: 0x4837A, size: 0x8, addend: 0x0, symName: __ZNSt3__122__compressed_pair_elemINS_21__unordered_map_equalINS_12basic_stringIcNS_11char_traitsIcEENS_9allocatorIcEEEENS_17__hash_value_typeIS7_10StructInfoEENS_8equal_toIS7_EENS_4hashIS7_EELb1EEELi1ELb1EE5__getB7v160006Ev, symObjAddr: 0x1E260, symBinAddr: 0x100020858, symSize: 0x14 }
  - { offsetInCU: 0x4839F, offset: 0x4839F, size: 0x8, addend: 0x0, symName: __ZNKSt3__117__hash_value_typeINS_12basic_stringIcNS_11char_traitsIcEENS_9allocatorIcEEEE10StructInfoE11__get_valueB7v160006Ev, symObjAddr: 0x1E274, symBinAddr: 0x10002086C, symSize: 0x24 }
  - { offsetInCU: 0x483C4, offset: 0x483C4, size: 0x8, addend: 0x0, symName: __ZNSt3__116allocator_traitsINS_9allocatorINS_11__hash_nodeINS_17__hash_value_typeINS_12basic_stringIcNS_11char_traitsIcEENS1_IcEEEE10StructInfoEEPvEEEEE8allocateB7v160006ERSD_m, symObjAddr: 0x1E2D0, symBinAddr: 0x1000208C8, symSize: 0x2C }
  - { offsetInCU: 0x483F7, offset: 0x483F7, size: 0x8, addend: 0x0, symName: __ZNSt3__122__hash_node_destructorINS_9allocatorINS_11__hash_nodeINS_17__hash_value_typeINS_12basic_stringIcNS_11char_traitsIcEENS1_IcEEEE10StructInfoEEPvEEEEEC1B7v160006ERSD_b, symObjAddr: 0x1E2FC, symBinAddr: 0x1000208F4, symSize: 0x48 }
  - { offsetInCU: 0x48443, offset: 0x48443, size: 0x8, addend: 0x0, symName: __ZNSt3__110unique_ptrINS_11__hash_nodeINS_17__hash_value_typeINS_12basic_stringIcNS_11char_traitsIcEENS_9allocatorIcEEEE10StructInfoEEPvEENS_22__hash_node_destructorINS6_ISC_EEEEEC1B7v160006ILb1EvEEPSC_NS_16__dependent_typeINS_27__unique_ptr_deleter_sfinaeISF_EEXT_EE20__good_rval_ref_typeE, symObjAddr: 0x1E344, symBinAddr: 0x10002093C, symSize: 0x3C }
  - { offsetInCU: 0x48493, offset: 0x48493, size: 0x8, addend: 0x0, symName: __ZNSt3__116allocator_traitsINS_9allocatorINS_11__hash_nodeINS_17__hash_value_typeINS_12basic_stringIcNS_11char_traitsIcEENS1_IcEEEE10StructInfoEEPvEEEEE9constructB7v160006INS_4pairIKS8_S9_EEJRS8_S9_EvEEvRSD_PT_DpOT0_, symObjAddr: 0x1E380, symBinAddr: 0x100020978, symSize: 0x3C }
  - { offsetInCU: 0x484FE, offset: 0x484FE, size: 0x8, addend: 0x0, symName: __ZNSt3__110unique_ptrINS_11__hash_nodeINS_17__hash_value_typeINS_12basic_stringIcNS_11char_traitsIcEENS_9allocatorIcEEEE10StructInfoEEPvEENS_22__hash_node_destructorINS6_ISC_EEEEE11get_deleterB7v160006Ev, symObjAddr: 0x1E3BC, symBinAddr: 0x1000209B4, symSize: 0x24 }
  - { offsetInCU: 0x48523, offset: 0x48523, size: 0x8, addend: 0x0, symName: __ZNSt3__19allocatorINS_11__hash_nodeINS_17__hash_value_typeINS_12basic_stringIcNS_11char_traitsIcEENS0_IcEEEE10StructInfoEEPvEEE8allocateB7v160006Em, symObjAddr: 0x1E3E0, symBinAddr: 0x1000209D8, symSize: 0x5C }
  - { offsetInCU: 0x48560, offset: 0x48560, size: 0x8, addend: 0x0, symName: __ZNSt3__116allocator_traitsINS_9allocatorINS_11__hash_nodeINS_17__hash_value_typeINS_12basic_stringIcNS_11char_traitsIcEENS1_IcEEEE10StructInfoEEPvEEEEE8max_sizeB7v160006ISD_vEEmRKSD_, symObjAddr: 0x1E43C, symBinAddr: 0x100020A34, symSize: 0x24 }
  - { offsetInCU: 0x4858E, offset: 0x4858E, size: 0x8, addend: 0x0, symName: __ZNKSt3__19allocatorINS_11__hash_nodeINS_17__hash_value_typeINS_12basic_stringIcNS_11char_traitsIcEENS0_IcEEEE10StructInfoEEPvEEE8max_sizeB7v160006Ev, symObjAddr: 0x1E460, symBinAddr: 0x100020A58, symSize: 0x18 }
  - { offsetInCU: 0x485B3, offset: 0x485B3, size: 0x8, addend: 0x0, symName: __ZNSt3__122__hash_node_destructorINS_9allocatorINS_11__hash_nodeINS_17__hash_value_typeINS_12basic_stringIcNS_11char_traitsIcEENS1_IcEEEE10StructInfoEEPvEEEEEC2B7v160006ERSD_b, symObjAddr: 0x1E478, symBinAddr: 0x100020A70, symSize: 0x38 }
  - { offsetInCU: 0x485FA, offset: 0x485FA, size: 0x8, addend: 0x0, symName: __ZNSt3__110unique_ptrINS_11__hash_nodeINS_17__hash_value_typeINS_12basic_stringIcNS_11char_traitsIcEENS_9allocatorIcEEEE10StructInfoEEPvEENS_22__hash_node_destructorINS6_ISC_EEEEEC2B7v160006ILb1EvEEPSC_NS_16__dependent_typeINS_27__unique_ptr_deleter_sfinaeISF_EEXT_EE20__good_rval_ref_typeE, symObjAddr: 0x1E4B0, symBinAddr: 0x100020AA8, symSize: 0x48 }
  - { offsetInCU: 0x4864A, offset: 0x4864A, size: 0x8, addend: 0x0, symName: __ZNSt3__117__compressed_pairIPNS_11__hash_nodeINS_17__hash_value_typeINS_12basic_stringIcNS_11char_traitsIcEENS_9allocatorIcEEEE10StructInfoEEPvEENS_22__hash_node_destructorINS6_ISC_EEEEEC1B7v160006IRSD_SG_EEOT_OT0_, symObjAddr: 0x1E4F8, symBinAddr: 0x100020AF0, symSize: 0x3C }
  - { offsetInCU: 0x486A1, offset: 0x486A1, size: 0x8, addend: 0x0, symName: __ZNSt3__117__compressed_pairIPNS_11__hash_nodeINS_17__hash_value_typeINS_12basic_stringIcNS_11char_traitsIcEENS_9allocatorIcEEEE10StructInfoEEPvEENS_22__hash_node_destructorINS6_ISC_EEEEEC2B7v160006IRSD_SG_EEOT_OT0_, symObjAddr: 0x1E534, symBinAddr: 0x100020B2C, symSize: 0x48 }
  - { offsetInCU: 0x486F8, offset: 0x486F8, size: 0x8, addend: 0x0, symName: __ZNSt3__122__compressed_pair_elemIPNS_11__hash_nodeINS_17__hash_value_typeINS_12basic_stringIcNS_11char_traitsIcEENS_9allocatorIcEEEE10StructInfoEEPvEELi0ELb0EEC2B7v160006IRSD_vEEOT_, symObjAddr: 0x1E57C, symBinAddr: 0x100020B74, symSize: 0x24 }
  - { offsetInCU: 0x48739, offset: 0x48739, size: 0x8, addend: 0x0, symName: __ZNSt3__122__compressed_pair_elemINS_22__hash_node_destructorINS_9allocatorINS_11__hash_nodeINS_17__hash_value_typeINS_12basic_stringIcNS_11char_traitsIcEENS2_IcEEEE10StructInfoEEPvEEEEEELi1ELb0EEC2B7v160006ISF_vEEOT_, symObjAddr: 0x1E5A0, symBinAddr: 0x100020B98, symSize: 0x24 }
  - { offsetInCU: 0x4877A, offset: 0x4877A, size: 0x8, addend: 0x0, symName: __ZNSt3__19allocatorINS_11__hash_nodeINS_17__hash_value_typeINS_12basic_stringIcNS_11char_traitsIcEENS0_IcEEEE10StructInfoEEPvEEE9constructB7v160006INS_4pairIKS7_S8_EEJRS7_S8_EEEvPT_DpOT0_, symObjAddr: 0x1E5C4, symBinAddr: 0x100020BBC, symSize: 0x38 }
  - { offsetInCU: 0x487E2, offset: 0x487E2, size: 0x8, addend: 0x0, symName: __ZNSt3__14pairIKNS_12basic_stringIcNS_11char_traitsIcEENS_9allocatorIcEEEE10StructInfoEC1B7v160006IRS6_S8_LPv0EEEOT_OT0_, symObjAddr: 0x1E5FC, symBinAddr: 0x100020BF4, symSize: 0x3C }
  - { offsetInCU: 0x4883F, offset: 0x4883F, size: 0x8, addend: 0x0, symName: __ZNSt3__14pairIKNS_12basic_stringIcNS_11char_traitsIcEENS_9allocatorIcEEEE10StructInfoEC2B7v160006IRS6_S8_LPv0EEEOT_OT0_, symObjAddr: 0x1E638, symBinAddr: 0x100020C30, symSize: 0x48 }
  - { offsetInCU: 0x4889C, offset: 0x4889C, size: 0x8, addend: 0x0, symName: __ZN10StructInfoC1EOS_, symObjAddr: 0x1E680, symBinAddr: 0x100020C78, symSize: 0x34 }
  - { offsetInCU: 0x488D0, offset: 0x488D0, size: 0x8, addend: 0x0, symName: __ZN10StructInfoC2EOS_, symObjAddr: 0x1E6B4, symBinAddr: 0x100020CAC, symSize: 0x34 }
  - { offsetInCU: 0x48904, offset: 0x48904, size: 0x8, addend: 0x0, symName: __ZNSt3__113unordered_mapINS_12basic_stringIcNS_11char_traitsIcEENS_9allocatorIcEEEE10MemberInfoNS_4hashIS6_EENS_8equal_toIS6_EENS4_INS_4pairIKS6_S7_EEEEEC1EOSG_, symObjAddr: 0x1E6E8, symBinAddr: 0x100020CE0, symSize: 0x34 }
  - { offsetInCU: 0x4893E, offset: 0x4893E, size: 0x8, addend: 0x0, symName: __ZNSt3__113unordered_mapINS_12basic_stringIcNS_11char_traitsIcEENS_9allocatorIcEEEE10MemberInfoNS_4hashIS6_EENS_8equal_toIS6_EENS4_INS_4pairIKS6_S7_EEEEEC2EOSG_, symObjAddr: 0x1E71C, symBinAddr: 0x100020D14, symSize: 0x50 }
  - { offsetInCU: 0x48978, offset: 0x48978, size: 0x8, addend: 0x0, symName: __ZNSt3__112__hash_tableINS_17__hash_value_typeINS_12basic_stringIcNS_11char_traitsIcEENS_9allocatorIcEEEE10MemberInfoEENS_22__unordered_map_hasherIS7_S9_NS_4hashIS7_EENS_8equal_toIS7_EELb1EEENS_21__unordered_map_equalIS7_S9_SE_SC_Lb1EEENS5_IS9_EEEC1EOSJ_, symObjAddr: 0x1E76C, symBinAddr: 0x100020D64, symSize: 0x34 }
  - { offsetInCU: 0x489B2, offset: 0x489B2, size: 0x8, addend: 0x0, symName: __ZNSt3__112__hash_tableINS_17__hash_value_typeINS_12basic_stringIcNS_11char_traitsIcEENS_9allocatorIcEEEE10MemberInfoEENS_22__unordered_map_hasherIS7_S9_NS_4hashIS7_EENS_8equal_toIS7_EELb1EEENS_21__unordered_map_equalIS7_S9_SE_SC_Lb1EEENS5_IS9_EEEC2EOSJ_, symObjAddr: 0x1E7B4, symBinAddr: 0x100020DAC, symSize: 0xF8 }
  - { offsetInCU: 0x489EC, offset: 0x489EC, size: 0x8, addend: 0x0, symName: __ZNSt3__110unique_ptrIA_PNS_16__hash_node_baseIPNS_11__hash_nodeINS_17__hash_value_typeINS_12basic_stringIcNS_11char_traitsIcEENS_9allocatorIcEEEE10MemberInfoEEPvEEEENS_25__bucket_list_deallocatorINS7_ISG_EEEEEC1B7v160006EOSL_, symObjAddr: 0x1E8AC, symBinAddr: 0x100020EA4, symSize: 0x34 }
  - { offsetInCU: 0x48A24, offset: 0x48A24, size: 0x8, addend: 0x0, symName: __ZNSt3__110unique_ptrIA_PNS_16__hash_node_baseIPNS_11__hash_nodeINS_17__hash_value_typeINS_12basic_stringIcNS_11char_traitsIcEENS_9allocatorIcEEEE10MemberInfoEEPvEEEENS_25__bucket_list_deallocatorINS7_ISG_EEEEEC2B7v160006EOSL_, symObjAddr: 0x1E8E0, symBinAddr: 0x100020ED8, symSize: 0x60 }
  - { offsetInCU: 0x48A5C, offset: 0x48A5C, size: 0x8, addend: 0x0, symName: __ZNSt3__110unique_ptrIA_PNS_16__hash_node_baseIPNS_11__hash_nodeINS_17__hash_value_typeINS_12basic_stringIcNS_11char_traitsIcEENS_9allocatorIcEEEE10MemberInfoEEPvEEEENS_25__bucket_list_deallocatorINS7_ISG_EEEEE7releaseB7v160006Ev, symObjAddr: 0x1E940, symBinAddr: 0x100020F38, symSize: 0x44 }
  - { offsetInCU: 0x48A95, offset: 0x48A95, size: 0x8, addend: 0x0, symName: __ZNSt3__117__compressed_pairIPPNS_16__hash_node_baseIPNS_11__hash_nodeINS_17__hash_value_typeINS_12basic_stringIcNS_11char_traitsIcEENS_9allocatorIcEEEE10MemberInfoEEPvEEEENS_25__bucket_list_deallocatorINS7_ISG_EEEEEC1B7v160006ISH_SK_EEOT_OT0_, symObjAddr: 0x1E984, symBinAddr: 0x100020F7C, symSize: 0x3C }
  - { offsetInCU: 0x48AEC, offset: 0x48AEC, size: 0x8, addend: 0x0, symName: __ZNSt3__117__compressed_pairIPPNS_16__hash_node_baseIPNS_11__hash_nodeINS_17__hash_value_typeINS_12basic_stringIcNS_11char_traitsIcEENS_9allocatorIcEEEE10MemberInfoEEPvEEEENS_25__bucket_list_deallocatorINS7_ISG_EEEEEC2B7v160006ISH_SK_EEOT_OT0_, symObjAddr: 0x1E9C0, symBinAddr: 0x100020FB8, symSize: 0x48 }
  - { offsetInCU: 0x48B43, offset: 0x48B43, size: 0x8, addend: 0x0, symName: __ZNSt3__122__compressed_pair_elemIPPNS_16__hash_node_baseIPNS_11__hash_nodeINS_17__hash_value_typeINS_12basic_stringIcNS_11char_traitsIcEENS_9allocatorIcEEEE10MemberInfoEEPvEEEELi0ELb0EEC2B7v160006ISH_vEEOT_, symObjAddr: 0x1EA08, symBinAddr: 0x100021000, symSize: 0x24 }
  - { offsetInCU: 0x48B84, offset: 0x48B84, size: 0x8, addend: 0x0, symName: __ZNSt3__122__compressed_pair_elemINS_25__bucket_list_deallocatorINS_9allocatorIPNS_16__hash_node_baseIPNS_11__hash_nodeINS_17__hash_value_typeINS_12basic_stringIcNS_11char_traitsIcEENS2_IcEEEE10MemberInfoEEPvEEEEEEEELi1ELb0EEC2B7v160006ISJ_vEEOT_, symObjAddr: 0x1EA2C, symBinAddr: 0x100021024, symSize: 0x34 }
  - { offsetInCU: 0x48BC5, offset: 0x48BC5, size: 0x8, addend: 0x0, symName: __ZNSt3__125__bucket_list_deallocatorINS_9allocatorIPNS_16__hash_node_baseIPNS_11__hash_nodeINS_17__hash_value_typeINS_12basic_stringIcNS_11char_traitsIcEENS1_IcEEEE10MemberInfoEEPvEEEEEEEC1B7v160006EOSI_, symObjAddr: 0x1EA60, symBinAddr: 0x100021058, symSize: 0x34 }
  - { offsetInCU: 0x48BFD, offset: 0x48BFD, size: 0x8, addend: 0x0, symName: __ZNSt3__125__bucket_list_deallocatorINS_9allocatorIPNS_16__hash_node_baseIPNS_11__hash_nodeINS_17__hash_value_typeINS_12basic_stringIcNS_11char_traitsIcEENS1_IcEEEE10MemberInfoEEPvEEEEEEEC2B7v160006EOSI_, symObjAddr: 0x1EA94, symBinAddr: 0x10002108C, symSize: 0x48 }
  - { offsetInCU: 0x48C35, offset: 0x48C35, size: 0x8, addend: 0x0, symName: __ZNSt3__117__compressed_pairIPNS_11__hash_nodeINS_17__hash_value_typeINS_12basic_stringIcNS_11char_traitsIcEENS_9allocatorIcEEEE10StructInfoEEPvEENS_22__hash_node_destructorINS6_ISC_EEEEE6secondB7v160006Ev, symObjAddr: 0x1EADC, symBinAddr: 0x1000210D4, symSize: 0x28 }
  - { offsetInCU: 0x48C5A, offset: 0x48C5A, size: 0x8, addend: 0x0, symName: __ZNSt3__122__compressed_pair_elemINS_22__hash_node_destructorINS_9allocatorINS_11__hash_nodeINS_17__hash_value_typeINS_12basic_stringIcNS_11char_traitsIcEENS2_IcEEEE10StructInfoEEPvEEEEEELi1ELb0EE5__getB7v160006Ev, symObjAddr: 0x1EB04, symBinAddr: 0x1000210FC, symSize: 0x14 }
  - { offsetInCU: 0x48C7F, offset: 0x48C7F, size: 0x8, addend: 0x0, symName: __ZNSt3__117__compressed_pairImNS_22__unordered_map_hasherINS_12basic_stringIcNS_11char_traitsIcEENS_9allocatorIcEEEENS_17__hash_value_typeIS7_10StructInfoEENS_4hashIS7_EENS_8equal_toIS7_EELb1EEEE5firstB7v160006Ev, symObjAddr: 0x1EB18, symBinAddr: 0x100021110, symSize: 0x24 }
  - { offsetInCU: 0x48CA4, offset: 0x48CA4, size: 0x8, addend: 0x0, symName: __ZNSt3__117__compressed_pairIfNS_21__unordered_map_equalINS_12basic_stringIcNS_11char_traitsIcEENS_9allocatorIcEEEENS_17__hash_value_typeIS7_10StructInfoEENS_8equal_toIS7_EENS_4hashIS7_EELb1EEEE5firstB7v160006Ev, symObjAddr: 0x1EB3C, symBinAddr: 0x100021134, symSize: 0x24 }
  - { offsetInCU: 0x48CC8, offset: 0x48CC8, size: 0x8, addend: 0x0, symName: __ZNSt3__112__hash_tableINS_17__hash_value_typeINS_12basic_stringIcNS_11char_traitsIcEENS_9allocatorIcEEEE10StructInfoEENS_22__unordered_map_hasherIS7_S9_NS_4hashIS7_EENS_8equal_toIS7_EELb1EEENS_21__unordered_map_equalIS7_S9_SE_SC_Lb1EEENS5_IS9_EEE8__rehashILb1EEEvm, symObjAddr: 0x1EB60, symBinAddr: 0x100021158, symSize: 0x1A8 }
  - { offsetInCU: 0x48D16, offset: 0x48D16, size: 0x8, addend: 0x0, symName: __ZNSt3__112__hash_tableINS_17__hash_value_typeINS_12basic_stringIcNS_11char_traitsIcEENS_9allocatorIcEEEE10StructInfoEENS_22__unordered_map_hasherIS7_S9_NS_4hashIS7_EENS_8equal_toIS7_EELb1EEENS_21__unordered_map_equalIS7_S9_SE_SC_Lb1EEENS5_IS9_EEE11__do_rehashILb1EEEvm, symObjAddr: 0x1ED08, symBinAddr: 0x100021300, symSize: 0x290 }
  - { offsetInCU: 0x48DF8, offset: 0x48DF8, size: 0x8, addend: 0x0, symName: __ZNSt3__110unique_ptrIA_PNS_16__hash_node_baseIPNS_11__hash_nodeINS_17__hash_value_typeINS_12basic_stringIcNS_11char_traitsIcEENS_9allocatorIcEEEE10StructInfoEEPvEEEENS_25__bucket_list_deallocatorINS7_ISG_EEEEE11get_deleterB7v160006Ev, symObjAddr: 0x1EFA8, symBinAddr: 0x1000215A0, symSize: 0x24 }
  - { offsetInCU: 0x48E1D, offset: 0x48E1D, size: 0x8, addend: 0x0, symName: __ZNSt3__110unique_ptrIA_PNS_16__hash_node_baseIPNS_11__hash_nodeINS_17__hash_value_typeINS_12basic_stringIcNS_11char_traitsIcEENS_9allocatorIcEEEE10StructInfoEEPvEEEENS_25__bucket_list_deallocatorINS7_ISG_EEEEE5resetB7v160006IPSG_EENS_9enable_ifIXsr28_CheckArrayPointerConversionIT_EE5valueEvE4typeESP_, symObjAddr: 0x1EFCC, symBinAddr: 0x1000215C4, symSize: 0x78 }
  - { offsetInCU: 0x48E69, offset: 0x48E69, size: 0x8, addend: 0x0, symName: __ZNSt3__116allocator_traitsINS_9allocatorIPNS_16__hash_node_baseIPNS_11__hash_nodeINS_17__hash_value_typeINS_12basic_stringIcNS_11char_traitsIcEENS1_IcEEEE10StructInfoEEPvEEEEEEE8allocateB7v160006ERSH_m, symObjAddr: 0x1F044, symBinAddr: 0x10002163C, symSize: 0x2C }
  - { offsetInCU: 0x48E9C, offset: 0x48E9C, size: 0x8, addend: 0x0, symName: __ZNSt3__19allocatorIPNS_16__hash_node_baseIPNS_11__hash_nodeINS_17__hash_value_typeINS_12basic_stringIcNS_11char_traitsIcEENS0_IcEEEE10StructInfoEEPvEEEEE8allocateB7v160006Em, symObjAddr: 0x1F070, symBinAddr: 0x100021668, symSize: 0x58 }
  - { offsetInCU: 0x48ED9, offset: 0x48ED9, size: 0x8, addend: 0x0, symName: __ZNSt3__116allocator_traitsINS_9allocatorIPNS_16__hash_node_baseIPNS_11__hash_nodeINS_17__hash_value_typeINS_12basic_stringIcNS_11char_traitsIcEENS1_IcEEEE10StructInfoEEPvEEEEEEE8max_sizeB7v160006ISH_vEEmRKSH_, symObjAddr: 0x1F0C8, symBinAddr: 0x1000216C0, symSize: 0x24 }
  - { offsetInCU: 0x48F07, offset: 0x48F07, size: 0x8, addend: 0x0, symName: __ZNKSt3__19allocatorIPNS_16__hash_node_baseIPNS_11__hash_nodeINS_17__hash_value_typeINS_12basic_stringIcNS_11char_traitsIcEENS0_IcEEEE10StructInfoEEPvEEEEE8max_sizeB7v160006Ev, symObjAddr: 0x1F0EC, symBinAddr: 0x1000216E4, symSize: 0x14 }
  - { offsetInCU: 0x48F2C, offset: 0x48F2C, size: 0x8, addend: 0x0, symName: __ZNKSt3__117__compressed_pairIPNS_11__hash_nodeINS_17__hash_value_typeINS_12basic_stringIcNS_11char_traitsIcEENS_9allocatorIcEEEE10StructInfoEEPvEENS_22__hash_node_destructorINS6_ISC_EEEEE5firstB7v160006Ev, symObjAddr: 0x1F100, symBinAddr: 0x1000216F8, symSize: 0x24 }
  - { offsetInCU: 0x48F51, offset: 0x48F51, size: 0x8, addend: 0x0, symName: __ZNKSt3__122__compressed_pair_elemIPNS_11__hash_nodeINS_17__hash_value_typeINS_12basic_stringIcNS_11char_traitsIcEENS_9allocatorIcEEEE10StructInfoEEPvEELi0ELb0EE5__getB7v160006Ev, symObjAddr: 0x1F124, symBinAddr: 0x10002171C, symSize: 0x14 }
  - { offsetInCU: 0x48F76, offset: 0x48F76, size: 0x8, addend: 0x0, symName: __ZNSt3__117__compressed_pairIPNS_11__hash_nodeINS_17__hash_value_typeINS_12basic_stringIcNS_11char_traitsIcEENS_9allocatorIcEEEE10StructInfoEEPvEENS_22__hash_node_destructorINS6_ISC_EEEEE5firstB7v160006Ev, symObjAddr: 0x1F138, symBinAddr: 0x100021730, symSize: 0x24 }
  - { offsetInCU: 0x48F9B, offset: 0x48F9B, size: 0x8, addend: 0x0, symName: __ZNSt3__122__compressed_pair_elemIPNS_11__hash_nodeINS_17__hash_value_typeINS_12basic_stringIcNS_11char_traitsIcEENS_9allocatorIcEEEE10StructInfoEEPvEELi0ELb0EE5__getB7v160006Ev, symObjAddr: 0x1F15C, symBinAddr: 0x100021754, symSize: 0x14 }
  - { offsetInCU: 0x48FC0, offset: 0x48FC0, size: 0x8, addend: 0x0, symName: __ZNSt3__110unique_ptrINS_11__hash_nodeINS_17__hash_value_typeINS_12basic_stringIcNS_11char_traitsIcEENS_9allocatorIcEEEE10StructInfoEEPvEENS_22__hash_node_destructorINS6_ISC_EEEEED2B7v160006Ev, symObjAddr: 0x1F170, symBinAddr: 0x100021768, symSize: 0x30 }
  - { offsetInCU: 0x48FE9, offset: 0x48FE9, size: 0x8, addend: 0x0, symName: __ZNSt3__110unique_ptrINS_11__hash_nodeINS_17__hash_value_typeINS_12basic_stringIcNS_11char_traitsIcEENS_9allocatorIcEEEE10StructInfoEEPvEENS_22__hash_node_destructorINS6_ISC_EEEEE5resetB7v160006EPSC_, symObjAddr: 0x1F1A0, symBinAddr: 0x100021798, symSize: 0x78 }
  - { offsetInCU: 0x4902C, offset: 0x4902C, size: 0x8, addend: 0x0, symName: __ZNSt3__122__hash_node_destructorINS_9allocatorINS_11__hash_nodeINS_17__hash_value_typeINS_12basic_stringIcNS_11char_traitsIcEENS1_IcEEEE10StructInfoEEPvEEEEEclB7v160006EPSC_, symObjAddr: 0x1F218, symBinAddr: 0x100021810, symSize: 0x94 }
  - { offsetInCU: 0x49060, offset: 0x49060, size: 0x8, addend: 0x0, symName: __ZNSt3__115__hash_iteratorIPNS_11__hash_nodeINS_17__hash_value_typeINS_12basic_stringIcNS_11char_traitsIcEENS_9allocatorIcEEEE10StructInfoEEPvEEEC2B7v160006EPNS_16__hash_node_baseISD_EEPKv, symObjAddr: 0x1F2AC, symBinAddr: 0x1000218A4, symSize: 0x24 }
  - { offsetInCU: 0x490A7, offset: 0x490A7, size: 0x8, addend: 0x0, symName: __ZNSt3__14pairINS_15__hash_iteratorIPNS_11__hash_nodeINS_17__hash_value_typeINS_12basic_stringIcNS_11char_traitsIcEENS_9allocatorIcEEEE10StructInfoEEPvEEEEbEC2B7v160006ISF_RbLSC_0EEEOT_OT0_, symObjAddr: 0x1F2D0, symBinAddr: 0x1000218C8, symSize: 0x38 }
  - { offsetInCU: 0x49104, offset: 0x49104, size: 0x8, addend: 0x0, symName: __ZNSt3__14pairINS_19__hash_map_iteratorINS_15__hash_iteratorIPNS_11__hash_nodeINS_17__hash_value_typeINS_12basic_stringIcNS_11char_traitsIcEENS_9allocatorIcEEEE10StructInfoEEPvEEEEEEbEC2B7v160006ISG_bLSD_0EEEONS0_IT_T0_EE, symObjAddr: 0x1F308, symBinAddr: 0x100021900, symSize: 0x50 }
  - { offsetInCU: 0x49154, offset: 0x49154, size: 0x8, addend: 0x0, symName: __ZNSt3__119__hash_map_iteratorINS_15__hash_iteratorIPNS_11__hash_nodeINS_17__hash_value_typeINS_12basic_stringIcNS_11char_traitsIcEENS_9allocatorIcEEEE10StructInfoEEPvEEEEEC1B7v160006ESF_, symObjAddr: 0x1F358, symBinAddr: 0x100021950, symSize: 0x34 }
  - { offsetInCU: 0x4918C, offset: 0x4918C, size: 0x8, addend: 0x0, symName: __ZNSt3__119__hash_map_iteratorINS_15__hash_iteratorIPNS_11__hash_nodeINS_17__hash_value_typeINS_12basic_stringIcNS_11char_traitsIcEENS_9allocatorIcEEEE10StructInfoEEPvEEEEEC2B7v160006ESF_, symObjAddr: 0x1F38C, symBinAddr: 0x100021984, symSize: 0x20 }
  - { offsetInCU: 0x491C3, offset: 0x491C3, size: 0x8, addend: 0x0, symName: __ZNSt3__112__hash_tableINS_17__hash_value_typeINS_12basic_stringIcNS_11char_traitsIcEENS_9allocatorIcEEEEN6LLVMIR8FuncTypeEEENS_22__unordered_map_hasherIS7_SA_NS_4hashIS7_EENS_8equal_toIS7_EELb1EEENS_21__unordered_map_equalIS7_SA_SF_SD_Lb1EEENS5_ISA_EEE4findIS7_EENS_15__hash_iteratorIPNS_11__hash_nodeISA_PvEEEERKT_, symObjAddr: 0x1F3AC, symBinAddr: 0x1000219A4, symSize: 0x1B4 }
  - { offsetInCU: 0x4924C, offset: 0x4924C, size: 0x8, addend: 0x0, symName: __ZNSt3__119__hash_map_iteratorINS_15__hash_iteratorIPNS_11__hash_nodeINS_17__hash_value_typeINS_12basic_stringIcNS_11char_traitsIcEENS_9allocatorIcEEEEN6LLVMIR8FuncTypeEEEPvEEEEEC1B7v160006ESG_, symObjAddr: 0x1F560, symBinAddr: 0x100021B58, symSize: 0x34 }
  - { offsetInCU: 0x49283, offset: 0x49283, size: 0x8, addend: 0x0, symName: __ZNSt3__112__hash_tableINS_17__hash_value_typeINS_12basic_stringIcNS_11char_traitsIcEENS_9allocatorIcEEEEN6LLVMIR8FuncTypeEEENS_22__unordered_map_hasherIS7_SA_NS_4hashIS7_EENS_8equal_toIS7_EELb1EEENS_21__unordered_map_equalIS7_SA_SF_SD_Lb1EEENS5_ISA_EEE3endEv, symObjAddr: 0x1F594, symBinAddr: 0x100021B8C, symSize: 0x30 }
  - { offsetInCU: 0x492AA, offset: 0x492AA, size: 0x8, addend: 0x0, symName: __ZNSt3__119__hash_map_iteratorINS_15__hash_iteratorIPNS_11__hash_nodeINS_17__hash_value_typeINS_12basic_stringIcNS_11char_traitsIcEENS_9allocatorIcEEEEN6LLVMIR8FuncTypeEEEPvEEEEEC2B7v160006ESG_, symObjAddr: 0x1F5C4, symBinAddr: 0x100021BBC, symSize: 0x20 }
  - { offsetInCU: 0x492E2, offset: 0x492E2, size: 0x8, addend: 0x0, symName: __ZNSt3__112__hash_tableINS_17__hash_value_typeINS_12basic_stringIcNS_11char_traitsIcEENS_9allocatorIcEEEEN6LLVMIR8FuncTypeEEENS_22__unordered_map_hasherIS7_SA_NS_4hashIS7_EENS_8equal_toIS7_EELb1EEENS_21__unordered_map_equalIS7_SA_SF_SD_Lb1EEENS5_ISA_EEE16__emplace_uniqueB7v160006IRS7_S9_EENS_9enable_ifIXsr21__can_extract_map_keyIT_S7_NS_4pairIKS7_S9_EEEE5valueENSP_INS_15__hash_iteratorIPNS_11__hash_nodeISA_PvEEEEbEEE4typeEOSO_OT0_, symObjAddr: 0x1F614, symBinAddr: 0x100021C0C, symSize: 0x48 }
  - { offsetInCU: 0x49337, offset: 0x49337, size: 0x8, addend: 0x0, symName: __ZNSt3__14pairINS_19__hash_map_iteratorINS_15__hash_iteratorIPNS_11__hash_nodeINS_17__hash_value_typeINS_12basic_stringIcNS_11char_traitsIcEENS_9allocatorIcEEEEN6LLVMIR8FuncTypeEEEPvEEEEEEbEC1B7v160006ISH_bLSE_0EEEONS0_IT_T0_EE, symObjAddr: 0x1F65C, symBinAddr: 0x100021C54, symSize: 0x34 }
  - { offsetInCU: 0x49386, offset: 0x49386, size: 0x8, addend: 0x0, symName: __ZNSt3__112__hash_tableINS_17__hash_value_typeINS_12basic_stringIcNS_11char_traitsIcEENS_9allocatorIcEEEEN6LLVMIR8FuncTypeEEENS_22__unordered_map_hasherIS7_SA_NS_4hashIS7_EENS_8equal_toIS7_EELb1EEENS_21__unordered_map_equalIS7_SA_SF_SD_Lb1EEENS5_ISA_EEE25__emplace_unique_key_argsIS7_JRS7_S9_EEENS_4pairINS_15__hash_iteratorIPNS_11__hash_nodeISA_PvEEEEbEERKT_DpOT0_, symObjAddr: 0x1F690, symBinAddr: 0x100021C88, symSize: 0x490 }
  - { offsetInCU: 0x4947A, offset: 0x4947A, size: 0x8, addend: 0x0, symName: __ZNSt3__112__hash_tableINS_17__hash_value_typeINS_12basic_stringIcNS_11char_traitsIcEENS_9allocatorIcEEEEN6LLVMIR8FuncTypeEEENS_22__unordered_map_hasherIS7_SA_NS_4hashIS7_EENS_8equal_toIS7_EELb1EEENS_21__unordered_map_equalIS7_SA_SF_SD_Lb1EEENS5_ISA_EEE21__construct_node_hashIRS7_JS9_EEENS_10unique_ptrINS_11__hash_nodeISA_PvEENS_22__hash_node_destructorINS5_ISQ_EEEEEEmOT_DpOT0_, symObjAddr: 0x1FB20, symBinAddr: 0x100022118, symSize: 0x148 }
  - { offsetInCU: 0x49501, offset: 0x49501, size: 0x8, addend: 0x0, symName: __ZNSt3__116allocator_traitsINS_9allocatorINS_11__hash_nodeINS_17__hash_value_typeINS_12basic_stringIcNS_11char_traitsIcEENS1_IcEEEEN6LLVMIR8FuncTypeEEEPvEEEEE9constructB7v160006INS_4pairIKS8_SA_EEJRS8_SA_EvEEvRSE_PT_DpOT0_, symObjAddr: 0x1FC68, symBinAddr: 0x100022260, symSize: 0x3C }
  - { offsetInCU: 0x4956C, offset: 0x4956C, size: 0x8, addend: 0x0, symName: __ZNSt3__19allocatorINS_11__hash_nodeINS_17__hash_value_typeINS_12basic_stringIcNS_11char_traitsIcEENS0_IcEEEEN6LLVMIR8FuncTypeEEEPvEEE9constructB7v160006INS_4pairIKS7_S9_EEJRS7_S9_EEEvPT_DpOT0_, symObjAddr: 0x1FCA4, symBinAddr: 0x10002229C, symSize: 0x38 }
  - { offsetInCU: 0x495D4, offset: 0x495D4, size: 0x8, addend: 0x0, symName: __ZNSt3__14pairIKNS_12basic_stringIcNS_11char_traitsIcEENS_9allocatorIcEEEEN6LLVMIR8FuncTypeEEC1B7v160006IRS6_S9_LPv0EEEOT_OT0_, symObjAddr: 0x1FCDC, symBinAddr: 0x1000222D4, symSize: 0x3C }
  - { offsetInCU: 0x49631, offset: 0x49631, size: 0x8, addend: 0x0, symName: __ZNSt3__14pairIKNS_12basic_stringIcNS_11char_traitsIcEENS_9allocatorIcEEEEN6LLVMIR8FuncTypeEEC2B7v160006IRS6_S9_LPv0EEEOT_OT0_, symObjAddr: 0x1FD18, symBinAddr: 0x100022310, symSize: 0x48 }
  - { offsetInCU: 0x4968E, offset: 0x4968E, size: 0x8, addend: 0x0, symName: __ZN6LLVMIR8FuncTypeC1EOS0_, symObjAddr: 0x1FD60, symBinAddr: 0x100022358, symSize: 0x34 }
  - { offsetInCU: 0x496C2, offset: 0x496C2, size: 0x8, addend: 0x0, symName: __ZN6LLVMIR8FuncTypeC2EOS0_, symObjAddr: 0x1FD94, symBinAddr: 0x10002238C, symSize: 0x48 }
  - { offsetInCU: 0x496F6, offset: 0x496F6, size: 0x8, addend: 0x0, symName: __ZNSt3__14pairINS_19__hash_map_iteratorINS_15__hash_iteratorIPNS_11__hash_nodeINS_17__hash_value_typeINS_12basic_stringIcNS_11char_traitsIcEENS_9allocatorIcEEEEN6LLVMIR8FuncTypeEEEPvEEEEEEbEC2B7v160006ISH_bLSE_0EEEONS0_IT_T0_EE, symObjAddr: 0x1FDDC, symBinAddr: 0x1000223D4, symSize: 0x50 }
  - { offsetInCU: 0x49746, offset: 0x49746, size: 0x8, addend: 0x0, symName: __ZNSt3__16vectorIP10Func_localNS_9allocatorIS2_EEEC2B7v160006Ev, symObjAddr: 0x1FE2C, symBinAddr: 0x100022424, symSize: 0x58 }
  - { offsetInCU: 0x4976F, offset: 0x4976F, size: 0x8, addend: 0x0, symName: __ZNSt3__117__compressed_pairIPP10Func_localNS_9allocatorIS2_EEEC1B7v160006IDnNS_18__default_init_tagEEEOT_OT0_, symObjAddr: 0x1FE84, symBinAddr: 0x10002247C, symSize: 0x3C }
  - { offsetInCU: 0x497C6, offset: 0x497C6, size: 0x8, addend: 0x0, symName: __ZNSt3__117__compressed_pairIPP10Func_localNS_9allocatorIS2_EEEC2B7v160006IDnNS_18__default_init_tagEEEOT_OT0_, symObjAddr: 0x1FED0, symBinAddr: 0x1000224C8, symSize: 0x40 }
  - { offsetInCU: 0x4981D, offset: 0x4981D, size: 0x8, addend: 0x0, symName: __ZNSt3__122__compressed_pair_elemIPP10Func_localLi0ELb0EEC2B7v160006IDnvEEOT_, symObjAddr: 0x1FF10, symBinAddr: 0x100022508, symSize: 0x1C }
  - { offsetInCU: 0x4985E, offset: 0x4985E, size: 0x8, addend: 0x0, symName: __ZNSt3__122__compressed_pair_elemINS_9allocatorIP10Func_localEELi1ELb1EEC2B7v160006ENS_18__default_init_tagE, symObjAddr: 0x1FF2C, symBinAddr: 0x100022524, symSize: 0x2C }
  - { offsetInCU: 0x49891, offset: 0x49891, size: 0x8, addend: 0x0, symName: __ZNSt3__19allocatorIP10Func_localEC2B7v160006Ev, symObjAddr: 0x1FF58, symBinAddr: 0x100022550, symSize: 0x2C }
  - { offsetInCU: 0x498BA, offset: 0x498BA, size: 0x8, addend: 0x0, symName: __ZNSt3__116__non_trivial_ifILb1ENS_9allocatorIP10Func_localEEEC2B7v160006Ev, symObjAddr: 0x1FF84, symBinAddr: 0x10002257C, symSize: 0x14 }
  - { offsetInCU: 0x498E3, offset: 0x498E3, size: 0x8, addend: 0x0, symName: __ZNSt3__16vectorIP10Func_localNS_9allocatorIS2_EEE9__end_capB7v160006Ev, symObjAddr: 0x1FF98, symBinAddr: 0x100022590, symSize: 0x28 }
  - { offsetInCU: 0x4990D, offset: 0x4990D, size: 0x8, addend: 0x0, symName: __ZNSt3__16vectorIP10Func_localNS_9allocatorIS2_EEE22__construct_one_at_endB7v160006IJS2_EEEvDpOT_, symObjAddr: 0x1FFC0, symBinAddr: 0x1000225B8, symSize: 0x90 }
  - { offsetInCU: 0x4995A, offset: 0x4995A, size: 0x8, addend: 0x0, symName: __ZNSt3__16vectorIP10Func_localNS_9allocatorIS2_EEE21__push_back_slow_pathIS2_EEvOT_, symObjAddr: 0x20050, symBinAddr: 0x100022648, symSize: 0xD8 }
  - { offsetInCU: 0x499B7, offset: 0x499B7, size: 0x8, addend: 0x0, symName: __ZNSt3__117__compressed_pairIPP10Func_localNS_9allocatorIS2_EEE5firstB7v160006Ev, symObjAddr: 0x20128, symBinAddr: 0x100022720, symSize: 0x24 }
  - { offsetInCU: 0x499DC, offset: 0x499DC, size: 0x8, addend: 0x0, symName: __ZNSt3__122__compressed_pair_elemIPP10Func_localLi0ELb0EE5__getB7v160006Ev, symObjAddr: 0x2014C, symBinAddr: 0x100022744, symSize: 0x14 }
  - { offsetInCU: 0x49A1A, offset: 0x49A1A, size: 0x8, addend: 0x0, symName: __ZNSt3__16vectorIP10Func_localNS_9allocatorIS2_EEE21_ConstructTransactionC1B7v160006ERS5_m, symObjAddr: 0x20160, symBinAddr: 0x100022758, symSize: 0x3C }
  - { offsetInCU: 0x49A61, offset: 0x49A61, size: 0x8, addend: 0x0, symName: __ZNSt3__116allocator_traitsINS_9allocatorIP10Func_localEEE9constructB7v160006IS3_JS3_EvEEvRS4_PT_DpOT0_, symObjAddr: 0x2019C, symBinAddr: 0x100022794, symSize: 0x34 }
  - { offsetInCU: 0x49AB8, offset: 0x49AB8, size: 0x8, addend: 0x0, symName: __ZNSt3__16vectorIP10Func_localNS_9allocatorIS2_EEE21_ConstructTransactionD1B7v160006Ev, symObjAddr: 0x201D0, symBinAddr: 0x1000227C8, symSize: 0x2C }
  - { offsetInCU: 0x49AE1, offset: 0x49AE1, size: 0x8, addend: 0x0, symName: __ZNSt3__16vectorIP10Func_localNS_9allocatorIS2_EEE21_ConstructTransactionC2B7v160006ERS5_m, symObjAddr: 0x201FC, symBinAddr: 0x1000227F4, symSize: 0x44 }
  - { offsetInCU: 0x49B28, offset: 0x49B28, size: 0x8, addend: 0x0, symName: __ZNSt3__19allocatorIP10Func_localE9constructB7v160006IS2_JS2_EEEvPT_DpOT0_, symObjAddr: 0x20240, symBinAddr: 0x100022838, symSize: 0x28 }
  - { offsetInCU: 0x49B7D, offset: 0x49B7D, size: 0x8, addend: 0x0, symName: __ZNSt3__16vectorIP10Func_localNS_9allocatorIS2_EEE21_ConstructTransactionD2B7v160006Ev, symObjAddr: 0x20268, symBinAddr: 0x100022860, symSize: 0x20 }
  - { offsetInCU: 0x49BA5, offset: 0x49BA5, size: 0x8, addend: 0x0, symName: __ZNKSt3__16vectorIP10Func_localNS_9allocatorIS2_EEE11__recommendB7v160006Em, symObjAddr: 0x20288, symBinAddr: 0x100022880, symSize: 0xB4 }
  - { offsetInCU: 0x49BF9, offset: 0x49BF9, size: 0x8, addend: 0x0, symName: __ZNSt3__114__split_bufferIP10Func_localRNS_9allocatorIS2_EEEC1EmmS5_, symObjAddr: 0x2033C, symBinAddr: 0x100022934, symSize: 0x44 }
  - { offsetInCU: 0x49C4E, offset: 0x49C4E, size: 0x8, addend: 0x0, symName: __ZNSt3__114__split_bufferIP10Func_localRNS_9allocatorIS2_EEED1Ev, symObjAddr: 0x20498, symBinAddr: 0x100022A90, symSize: 0x2C }
  - { offsetInCU: 0x49C78, offset: 0x49C78, size: 0x8, addend: 0x0, symName: __ZNKSt3__16vectorIP10Func_localNS_9allocatorIS2_EEE8max_sizeEv, symObjAddr: 0x204C4, symBinAddr: 0x100022ABC, symSize: 0x60 }
  - { offsetInCU: 0x49C9F, offset: 0x49C9F, size: 0x8, addend: 0x0, symName: __ZNKSt3__16vectorIP10Func_localNS_9allocatorIS2_EEE20__throw_length_errorB7v160006Ev, symObjAddr: 0x20524, symBinAddr: 0x100022B1C, symSize: 0x1C }
  - { offsetInCU: 0x49CCE, offset: 0x49CCE, size: 0x8, addend: 0x0, symName: __ZNSt3__116allocator_traitsINS_9allocatorIP10Func_localEEE8max_sizeB7v160006IS4_vEEmRKS4_, symObjAddr: 0x20540, symBinAddr: 0x100022B38, symSize: 0x24 }
  - { offsetInCU: 0x49CFC, offset: 0x49CFC, size: 0x8, addend: 0x0, symName: __ZNKSt3__16vectorIP10Func_localNS_9allocatorIS2_EEE7__allocB7v160006Ev, symObjAddr: 0x20564, symBinAddr: 0x100022B5C, symSize: 0x28 }
  - { offsetInCU: 0x49D21, offset: 0x49D21, size: 0x8, addend: 0x0, symName: __ZNKSt3__19allocatorIP10Func_localE8max_sizeB7v160006Ev, symObjAddr: 0x2058C, symBinAddr: 0x100022B84, symSize: 0x14 }
  - { offsetInCU: 0x49D46, offset: 0x49D46, size: 0x8, addend: 0x0, symName: __ZNKSt3__117__compressed_pairIPP10Func_localNS_9allocatorIS2_EEE6secondB7v160006Ev, symObjAddr: 0x205A0, symBinAddr: 0x100022B98, symSize: 0x24 }
  - { offsetInCU: 0x49D6B, offset: 0x49D6B, size: 0x8, addend: 0x0, symName: __ZNKSt3__122__compressed_pair_elemINS_9allocatorIP10Func_localEELi1ELb1EE5__getB7v160006Ev, symObjAddr: 0x205C4, symBinAddr: 0x100022BBC, symSize: 0x14 }
  - { offsetInCU: 0x49D90, offset: 0x49D90, size: 0x8, addend: 0x0, symName: __ZNSt3__114__split_bufferIP10Func_localRNS_9allocatorIS2_EEEC2EmmS5_, symObjAddr: 0x205D8, symBinAddr: 0x100022BD0, symSize: 0xD4 }
  - { offsetInCU: 0x49E02, offset: 0x49E02, size: 0x8, addend: 0x0, symName: __ZNSt3__117__compressed_pairIPP10Func_localRNS_9allocatorIS2_EEEC1B7v160006IDnS6_EEOT_OT0_, symObjAddr: 0x206AC, symBinAddr: 0x100022CA4, symSize: 0x3C }
  - { offsetInCU: 0x49E59, offset: 0x49E59, size: 0x8, addend: 0x0, symName: __ZNSt3__114__split_bufferIP10Func_localRNS_9allocatorIS2_EEE7__allocB7v160006Ev, symObjAddr: 0x20728, symBinAddr: 0x100022D20, symSize: 0x28 }
  - { offsetInCU: 0x49E7E, offset: 0x49E7E, size: 0x8, addend: 0x0, symName: __ZNSt3__114__split_bufferIP10Func_localRNS_9allocatorIS2_EEE9__end_capB7v160006Ev, symObjAddr: 0x20750, symBinAddr: 0x100022D48, symSize: 0x28 }
  - { offsetInCU: 0x49EA3, offset: 0x49EA3, size: 0x8, addend: 0x0, symName: __ZNSt3__117__compressed_pairIPP10Func_localRNS_9allocatorIS2_EEEC2B7v160006IDnS6_EEOT_OT0_, symObjAddr: 0x20778, symBinAddr: 0x100022D70, symSize: 0x48 }
  - { offsetInCU: 0x49EFA, offset: 0x49EFA, size: 0x8, addend: 0x0, symName: __ZNSt3__122__compressed_pair_elemIRNS_9allocatorIP10Func_localEELi1ELb0EEC2B7v160006IS5_vEEOT_, symObjAddr: 0x207C0, symBinAddr: 0x100022DB8, symSize: 0x20 }
  - { offsetInCU: 0x49F3B, offset: 0x49F3B, size: 0x8, addend: 0x0, symName: __ZNSt3__19allocatorIP10Func_localE8allocateB7v160006Em, symObjAddr: 0x207E0, symBinAddr: 0x100022DD8, symSize: 0x58 }
  - { offsetInCU: 0x49F6E, offset: 0x49F6E, size: 0x8, addend: 0x0, symName: __ZNSt3__117__compressed_pairIPP10Func_localRNS_9allocatorIS2_EEE6secondB7v160006Ev, symObjAddr: 0x20838, symBinAddr: 0x100022E30, symSize: 0x28 }
  - { offsetInCU: 0x49F93, offset: 0x49F93, size: 0x8, addend: 0x0, symName: __ZNSt3__122__compressed_pair_elemIRNS_9allocatorIP10Func_localEELi1ELb0EE5__getB7v160006Ev, symObjAddr: 0x20860, symBinAddr: 0x100022E58, symSize: 0x18 }
  - { offsetInCU: 0x49FB8, offset: 0x49FB8, size: 0x8, addend: 0x0, symName: __ZNSt3__117__compressed_pairIPP10Func_localRNS_9allocatorIS2_EEE5firstB7v160006Ev, symObjAddr: 0x20878, symBinAddr: 0x100022E70, symSize: 0x24 }
  - { offsetInCU: 0x49FDD, offset: 0x49FDD, size: 0x8, addend: 0x0, symName: __ZNSt3__116reverse_iteratorIPP10Func_localEC1B7v160006ES3_, symObjAddr: 0x20914, symBinAddr: 0x100022F0C, symSize: 0x34 }
  - { offsetInCU: 0x4A014, offset: 0x4A014, size: 0x8, addend: 0x0, symName: __ZNKSt3__116reverse_iteratorIPP10Func_localE4baseB7v160006Ev, symObjAddr: 0x20948, symBinAddr: 0x100022F40, symSize: 0x18 }
  - { offsetInCU: 0x4A039, offset: 0x4A039, size: 0x8, addend: 0x0, symName: __ZNKSt3__16vectorIP10Func_localNS_9allocatorIS2_EEE14__annotate_newB7v160006Em, symObjAddr: 0x2099C, symBinAddr: 0x100022F94, symSize: 0xAC }
  - { offsetInCU: 0x4A086, offset: 0x4A086, size: 0x8, addend: 0x0, symName: __ZNKSt3__111__move_loopINS_17_ClassicAlgPolicyEEclB7v160006INS_16reverse_iteratorIPP10Func_localEES8_S8_EENS_4pairIT_T1_EESA_T0_SB_, symObjAddr: 0x20D48, symBinAddr: 0x100023340, symSize: 0xA0 }
  - { offsetInCU: 0x4A0F0, offset: 0x4A0F0, size: 0x8, addend: 0x0, symName: __ZNSt3__18_IterOpsINS_17_ClassicAlgPolicyEE11__iter_moveB7v160006IRNS_16reverse_iteratorIPP10Func_localEEEENS_9enable_ifIXsr12is_referenceIDTdeclsr3stdE7declvalIRT_EEEEE5valueEDTclsr3stdE4movedeclsr3stdE7declvalISC_EEEEE4typeEOSB_, symObjAddr: 0x20F7C, symBinAddr: 0x100023574, symSize: 0x28 }
  - { offsetInCU: 0x4A11C, offset: 0x4A11C, size: 0x8, addend: 0x0, symName: __ZNKSt3__116reverse_iteratorIPP10Func_localEdeB7v160006Ev, symObjAddr: 0x20FA4, symBinAddr: 0x10002359C, symSize: 0x28 }
  - { offsetInCU: 0x4A14F, offset: 0x4A14F, size: 0x8, addend: 0x0, symName: __ZNSt3__116reverse_iteratorIPP10Func_localEppB7v160006Ev, symObjAddr: 0x20FCC, symBinAddr: 0x1000235C4, symSize: 0x20 }
  - { offsetInCU: 0x4A174, offset: 0x4A174, size: 0x8, addend: 0x0, symName: __ZNSt3__18_IterOpsINS_17_ClassicAlgPolicyEE25__validate_iter_referenceB7v160006IRNS_16reverse_iteratorIPP10Func_localEEEEvv, symObjAddr: 0x20FEC, symBinAddr: 0x1000235E4, symSize: 0x4 }
  - { offsetInCU: 0x4A192, offset: 0x4A192, size: 0x8, addend: 0x0, symName: __ZNSt3__118__unwrap_iter_implINS_16reverse_iteratorIPP10Func_localEELb0EE8__unwrapB7v160006ES5_, symObjAddr: 0x20FF0, symBinAddr: 0x1000235E8, symSize: 0x24 }
  - { offsetInCU: 0x4A1BA, offset: 0x4A1BA, size: 0x8, addend: 0x0, symName: __ZNSt3__14pairINS_16reverse_iteratorIPP10Func_localEES5_EC1B7v160006IS5_S5_LPv0EEEOT_OT0_, symObjAddr: 0x21014, symBinAddr: 0x10002360C, symSize: 0x3C }
  - { offsetInCU: 0x4A217, offset: 0x4A217, size: 0x8, addend: 0x0, symName: __ZNSt3__14pairINS_16reverse_iteratorIPP10Func_localEES5_EC2B7v160006IS5_S5_LPv0EEEOT_OT0_, symObjAddr: 0x21050, symBinAddr: 0x100023648, symSize: 0x34 }
  - { offsetInCU: 0x4A274, offset: 0x4A274, size: 0x8, addend: 0x0, symName: __ZNSt3__118__unwrap_iter_implINS_16reverse_iteratorIPP10Func_localEELb0EE8__rewrapB7v160006ES5_S5_, symObjAddr: 0x21084, symBinAddr: 0x10002367C, symSize: 0x2C }
  - { offsetInCU: 0x4A2A1, offset: 0x4A2A1, size: 0x8, addend: 0x0, symName: __ZNSt3__116reverse_iteratorIPP10Func_localEC2B7v160006ES3_, symObjAddr: 0x210B0, symBinAddr: 0x1000236A8, symSize: 0x28 }
  - { offsetInCU: 0x4A2D8, offset: 0x4A2D8, size: 0x8, addend: 0x0, symName: __ZNSt3__114__split_bufferIP10Func_localRNS_9allocatorIS2_EEED2Ev, symObjAddr: 0x210D8, symBinAddr: 0x1000236D0, symSize: 0x8C }
  - { offsetInCU: 0x4A303, offset: 0x4A303, size: 0x8, addend: 0x0, symName: __ZNSt3__114__split_bufferIP10Func_localRNS_9allocatorIS2_EEE5clearB7v160006Ev, symObjAddr: 0x21164, symBinAddr: 0x10002375C, symSize: 0x28 }
  - { offsetInCU: 0x4A328, offset: 0x4A328, size: 0x8, addend: 0x0, symName: __ZNKSt3__114__split_bufferIP10Func_localRNS_9allocatorIS2_EEE8capacityB7v160006Ev, symObjAddr: 0x2118C, symBinAddr: 0x100023784, symSize: 0x40 }
  - { offsetInCU: 0x4A34D, offset: 0x4A34D, size: 0x8, addend: 0x0, symName: __ZNSt3__114__split_bufferIP10Func_localRNS_9allocatorIS2_EEE17__destruct_at_endB7v160006EPS2_, symObjAddr: 0x211CC, symBinAddr: 0x1000237C4, symSize: 0x2C }
  - { offsetInCU: 0x4A37F, offset: 0x4A37F, size: 0x8, addend: 0x0, symName: __ZNSt3__114__split_bufferIP10Func_localRNS_9allocatorIS2_EEE17__destruct_at_endB7v160006EPS2_NS_17integral_constantIbLb0EEE, symObjAddr: 0x211F8, symBinAddr: 0x1000237F0, symSize: 0x80 }
  - { offsetInCU: 0x4A3BE, offset: 0x4A3BE, size: 0x8, addend: 0x0, symName: __ZNKSt3__114__split_bufferIP10Func_localRNS_9allocatorIS2_EEE9__end_capB7v160006Ev, symObjAddr: 0x21278, symBinAddr: 0x100023870, symSize: 0x28 }
  - { offsetInCU: 0x4A3E3, offset: 0x4A3E3, size: 0x8, addend: 0x0, symName: __ZNKSt3__117__compressed_pairIPP10Func_localRNS_9allocatorIS2_EEE5firstB7v160006Ev, symObjAddr: 0x212A0, symBinAddr: 0x100023898, symSize: 0x24 }
  - { offsetInCU: 0x4A408, offset: 0x4A408, size: 0x8, addend: 0x0, symName: __ZNSt3__14listIPN6LLVMIR5L_stmENS_9allocatorIS3_EEE15__allocate_nodeB7v160006ERNS4_INS_11__list_nodeIS3_PvEEEE, symObjAddr: 0x212C4, symBinAddr: 0x1000238BC, symSize: 0x70 }
  - { offsetInCU: 0x4A44B, offset: 0x4A44B, size: 0x8, addend: 0x0, symName: __ZNSt3__116allocator_traitsINS_9allocatorINS_11__list_nodeIPN6LLVMIR5L_stmEPvEEEEE9constructB7v160006IS5_JS5_EvEEvRS8_PT_DpOT0_, symObjAddr: 0x21334, symBinAddr: 0x10002392C, symSize: 0x34 }
  - { offsetInCU: 0x4A4A2, offset: 0x4A4A2, size: 0x8, addend: 0x0, symName: __ZNKSt3__110unique_ptrINS_11__list_nodeIPN6LLVMIR5L_stmEPvEENS_22__allocator_destructorINS_9allocatorIS6_EEEEEptB7v160006Ev, symObjAddr: 0x21368, symBinAddr: 0x100023960, symSize: 0x28 }
  - { offsetInCU: 0x4A4C7, offset: 0x4A4C7, size: 0x8, addend: 0x0, symName: __ZNSt3__111__list_nodeIPN6LLVMIR5L_stmEPvE9__as_linkB7v160006Ev, symObjAddr: 0x21390, symBinAddr: 0x100023988, symSize: 0x24 }
  - { offsetInCU: 0x4A4EB, offset: 0x4A4EB, size: 0x8, addend: 0x0, symName: __ZNSt3__14listIPN6LLVMIR5L_stmENS_9allocatorIS3_EEE20__link_nodes_at_backEPNS_16__list_node_baseIS3_PvEESA_, symObjAddr: 0x213B4, symBinAddr: 0x1000239AC, symSize: 0x60 }
  - { offsetInCU: 0x4A530, offset: 0x4A530, size: 0x8, addend: 0x0, symName: __ZNSt3__110unique_ptrINS_11__list_nodeIPN6LLVMIR5L_stmEPvEENS_22__allocator_destructorINS_9allocatorIS6_EEEEE7releaseB7v160006Ev, symObjAddr: 0x21414, symBinAddr: 0x100023A0C, symSize: 0x44 }
  - { offsetInCU: 0x4A564, offset: 0x4A564, size: 0x8, addend: 0x0, symName: __ZNSt3__110unique_ptrINS_11__list_nodeIPN6LLVMIR5L_stmEPvEENS_22__allocator_destructorINS_9allocatorIS6_EEEEED1B7v160006Ev, symObjAddr: 0x21458, symBinAddr: 0x100023A50, symSize: 0x2C }
  - { offsetInCU: 0x4A58D, offset: 0x4A58D, size: 0x8, addend: 0x0, symName: __ZNSt3__116allocator_traitsINS_9allocatorINS_11__list_nodeIPN6LLVMIR5L_stmEPvEEEEE8allocateB7v160006ERS8_m, symObjAddr: 0x21484, symBinAddr: 0x100023A7C, symSize: 0x2C }
  - { offsetInCU: 0x4A5C0, offset: 0x4A5C0, size: 0x8, addend: 0x0, symName: __ZNSt3__122__allocator_destructorINS_9allocatorINS_11__list_nodeIPN6LLVMIR5L_stmEPvEEEEEC1B7v160006ERS8_m, symObjAddr: 0x214B0, symBinAddr: 0x100023AA8, symSize: 0x3C }
  - { offsetInCU: 0x4A60A, offset: 0x4A60A, size: 0x8, addend: 0x0, symName: __ZNSt3__110unique_ptrINS_11__list_nodeIPN6LLVMIR5L_stmEPvEENS_22__allocator_destructorINS_9allocatorIS6_EEEEEC1B7v160006ILb1EvEEPS6_NS_16__dependent_typeINS_27__unique_ptr_deleter_sfinaeISA_EEXT_EE20__good_rval_ref_typeE, symObjAddr: 0x214EC, symBinAddr: 0x100023AE4, symSize: 0x3C }
  - { offsetInCU: 0x4A65A, offset: 0x4A65A, size: 0x8, addend: 0x0, symName: __ZNSt3__19allocatorINS_11__list_nodeIPN6LLVMIR5L_stmEPvEEE8allocateB7v160006Em, symObjAddr: 0x21528, symBinAddr: 0x100023B20, symSize: 0x5C }
  - { offsetInCU: 0x4A68D, offset: 0x4A68D, size: 0x8, addend: 0x0, symName: __ZNSt3__116allocator_traitsINS_9allocatorINS_11__list_nodeIPN6LLVMIR5L_stmEPvEEEEE8max_sizeB7v160006IS8_vEEmRKS8_, symObjAddr: 0x21584, symBinAddr: 0x100023B7C, symSize: 0x24 }
  - { offsetInCU: 0x4A6BB, offset: 0x4A6BB, size: 0x8, addend: 0x0, symName: __ZNKSt3__19allocatorINS_11__list_nodeIPN6LLVMIR5L_stmEPvEEE8max_sizeB7v160006Ev, symObjAddr: 0x215A8, symBinAddr: 0x100023BA0, symSize: 0x18 }
  - { offsetInCU: 0x4A6E0, offset: 0x4A6E0, size: 0x8, addend: 0x0, symName: __ZNSt3__122__allocator_destructorINS_9allocatorINS_11__list_nodeIPN6LLVMIR5L_stmEPvEEEEEC2B7v160006ERS8_m, symObjAddr: 0x215C0, symBinAddr: 0x100023BB8, symSize: 0x2C }
  - { offsetInCU: 0x4A725, offset: 0x4A725, size: 0x8, addend: 0x0, symName: __ZNSt3__110unique_ptrINS_11__list_nodeIPN6LLVMIR5L_stmEPvEENS_22__allocator_destructorINS_9allocatorIS6_EEEEEC2B7v160006ILb1EvEEPS6_NS_16__dependent_typeINS_27__unique_ptr_deleter_sfinaeISA_EEXT_EE20__good_rval_ref_typeE, symObjAddr: 0x215EC, symBinAddr: 0x100023BE4, symSize: 0x48 }
  - { offsetInCU: 0x4A775, offset: 0x4A775, size: 0x8, addend: 0x0, symName: __ZNSt3__117__compressed_pairIPNS_11__list_nodeIPN6LLVMIR5L_stmEPvEENS_22__allocator_destructorINS_9allocatorIS6_EEEEEC1B7v160006IRS7_SB_EEOT_OT0_, symObjAddr: 0x21634, symBinAddr: 0x100023C2C, symSize: 0x3C }
  - { offsetInCU: 0x4A7CC, offset: 0x4A7CC, size: 0x8, addend: 0x0, symName: __ZNSt3__117__compressed_pairIPNS_11__list_nodeIPN6LLVMIR5L_stmEPvEENS_22__allocator_destructorINS_9allocatorIS6_EEEEEC2B7v160006IRS7_SB_EEOT_OT0_, symObjAddr: 0x21670, symBinAddr: 0x100023C68, symSize: 0x48 }
  - { offsetInCU: 0x4A823, offset: 0x4A823, size: 0x8, addend: 0x0, symName: __ZNSt3__122__compressed_pair_elemIPNS_11__list_nodeIPN6LLVMIR5L_stmEPvEELi0ELb0EEC2B7v160006IRS7_vEEOT_, symObjAddr: 0x216B8, symBinAddr: 0x100023CB0, symSize: 0x24 }
  - { offsetInCU: 0x4A864, offset: 0x4A864, size: 0x8, addend: 0x0, symName: __ZNSt3__122__compressed_pair_elemINS_22__allocator_destructorINS_9allocatorINS_11__list_nodeIPN6LLVMIR5L_stmEPvEEEEEELi1ELb0EEC2B7v160006ISA_vEEOT_, symObjAddr: 0x216DC, symBinAddr: 0x100023CD4, symSize: 0x24 }
  - { offsetInCU: 0x4A8A5, offset: 0x4A8A5, size: 0x8, addend: 0x0, symName: __ZNSt3__19allocatorINS_11__list_nodeIPN6LLVMIR5L_stmEPvEEE9constructB7v160006IS4_JS4_EEEvPT_DpOT0_, symObjAddr: 0x21700, symBinAddr: 0x100023CF8, symSize: 0x28 }
  - { offsetInCU: 0x4A8FA, offset: 0x4A8FA, size: 0x8, addend: 0x0, symName: __ZNKSt3__117__compressed_pairIPNS_11__list_nodeIPN6LLVMIR5L_stmEPvEENS_22__allocator_destructorINS_9allocatorIS6_EEEEE5firstB7v160006Ev, symObjAddr: 0x21728, symBinAddr: 0x100023D20, symSize: 0x24 }
  - { offsetInCU: 0x4A91F, offset: 0x4A91F, size: 0x8, addend: 0x0, symName: __ZNKSt3__122__compressed_pair_elemIPNS_11__list_nodeIPN6LLVMIR5L_stmEPvEELi0ELb0EE5__getB7v160006Ev, symObjAddr: 0x2174C, symBinAddr: 0x100023D44, symSize: 0x14 }
  - { offsetInCU: 0x4A944, offset: 0x4A944, size: 0x8, addend: 0x0, symName: __ZNSt3__117__compressed_pairIPNS_11__list_nodeIPN6LLVMIR5L_stmEPvEENS_22__allocator_destructorINS_9allocatorIS6_EEEEE5firstB7v160006Ev, symObjAddr: 0x21760, symBinAddr: 0x100023D58, symSize: 0x24 }
  - { offsetInCU: 0x4A969, offset: 0x4A969, size: 0x8, addend: 0x0, symName: __ZNSt3__122__compressed_pair_elemIPNS_11__list_nodeIPN6LLVMIR5L_stmEPvEELi0ELb0EE5__getB7v160006Ev, symObjAddr: 0x21784, symBinAddr: 0x100023D7C, symSize: 0x14 }
  - { offsetInCU: 0x4A98E, offset: 0x4A98E, size: 0x8, addend: 0x0, symName: __ZNSt3__110unique_ptrINS_11__list_nodeIPN6LLVMIR5L_stmEPvEENS_22__allocator_destructorINS_9allocatorIS6_EEEEED2B7v160006Ev, symObjAddr: 0x21798, symBinAddr: 0x100023D90, symSize: 0x30 }
  - { offsetInCU: 0x4A9B7, offset: 0x4A9B7, size: 0x8, addend: 0x0, symName: __ZNSt3__110unique_ptrINS_11__list_nodeIPN6LLVMIR5L_stmEPvEENS_22__allocator_destructorINS_9allocatorIS6_EEEEE5resetB7v160006EPS6_, symObjAddr: 0x217C8, symBinAddr: 0x100023DC0, symSize: 0x78 }
  - { offsetInCU: 0x4A9FA, offset: 0x4A9FA, size: 0x8, addend: 0x0, symName: __ZNSt3__117__compressed_pairIPNS_11__list_nodeIPN6LLVMIR5L_stmEPvEENS_22__allocator_destructorINS_9allocatorIS6_EEEEE6secondB7v160006Ev, symObjAddr: 0x21840, symBinAddr: 0x100023E38, symSize: 0x28 }
  - { offsetInCU: 0x4AA1F, offset: 0x4AA1F, size: 0x8, addend: 0x0, symName: __ZNSt3__122__allocator_destructorINS_9allocatorINS_11__list_nodeIPN6LLVMIR5L_stmEPvEEEEEclB7v160006EPS7_, symObjAddr: 0x21868, symBinAddr: 0x100023E60, symSize: 0x34 }
  - { offsetInCU: 0x4AA52, offset: 0x4AA52, size: 0x8, addend: 0x0, symName: __ZNSt3__122__compressed_pair_elemINS_22__allocator_destructorINS_9allocatorINS_11__list_nodeIPN6LLVMIR5L_stmEPvEEEEEELi1ELb0EE5__getB7v160006Ev, symObjAddr: 0x2189C, symBinAddr: 0x100023E94, symSize: 0x14 }
  - { offsetInCU: 0x4AA77, offset: 0x4AA77, size: 0x8, addend: 0x0, symName: __ZNSt3__16vectorIP9Temp_tempNS_9allocatorIS2_EEEC2B7v160006Ev, symObjAddr: 0x218B0, symBinAddr: 0x100023EA8, symSize: 0x54 }
  - { offsetInCU: 0x4AAA0, offset: 0x4AAA0, size: 0x8, addend: 0x0, symName: __ZNSt3__117__compressed_pairIPP9Temp_tempNS_9allocatorIS2_EEEC1B7v160006IDnNS_18__default_init_tagEEEOT_OT0_, symObjAddr: 0x21904, symBinAddr: 0x100023EFC, symSize: 0x3C }
  - { offsetInCU: 0x4AAF7, offset: 0x4AAF7, size: 0x8, addend: 0x0, symName: __ZNSt3__117__compressed_pairIPP9Temp_tempNS_9allocatorIS2_EEEC2B7v160006IDnNS_18__default_init_tagEEEOT_OT0_, symObjAddr: 0x21940, symBinAddr: 0x100023F38, symSize: 0x40 }
  - { offsetInCU: 0x4AB4E, offset: 0x4AB4E, size: 0x8, addend: 0x0, symName: __ZNSt3__122__compressed_pair_elemINS_9allocatorIP9Temp_tempEELi1ELb1EEC2B7v160006ENS_18__default_init_tagE, symObjAddr: 0x21980, symBinAddr: 0x100023F78, symSize: 0x2C }
  - { offsetInCU: 0x4AB81, offset: 0x4AB81, size: 0x8, addend: 0x0, symName: __ZNSt3__19allocatorIP9Temp_tempEC2B7v160006Ev, symObjAddr: 0x219AC, symBinAddr: 0x100023FA4, symSize: 0x2C }
  - { offsetInCU: 0x4ABAA, offset: 0x4ABAA, size: 0x8, addend: 0x0, symName: __ZNSt3__116__non_trivial_ifILb1ENS_9allocatorIP9Temp_tempEEEC2B7v160006Ev, symObjAddr: 0x219D8, symBinAddr: 0x100023FD0, symSize: 0x14 }
  - { offsetInCU: 0x4ABD2, offset: 0x4ABD2, size: 0x8, addend: 0x0, symName: __ZNSt3__112__hash_tableINS_17__hash_value_typeINS_12basic_stringIcNS_11char_traitsIcEENS_9allocatorIcEEEEP9Temp_tempEENS_22__unordered_map_hasherIS7_SA_NS_4hashIS7_EENS_8equal_toIS7_EELb1EEENS_21__unordered_map_equalIS7_SA_SF_SD_Lb1EEENS5_ISA_EEE25__emplace_unique_key_argsIS7_JRKNS_21piecewise_construct_tENS_5tupleIJRKS7_EEENSP_IJEEEEEENS_4pairINS_15__hash_iteratorIPNS_11__hash_nodeISA_PvEEEEbEERKT_DpOT0_, symObjAddr: 0x219EC, symBinAddr: 0x100023FE4, symSize: 0x4B4 }
  - { offsetInCU: 0x4ACDC, offset: 0x4ACDC, size: 0x8, addend: 0x0, symName: __ZNKSt3__115__hash_iteratorIPNS_11__hash_nodeINS_17__hash_value_typeINS_12basic_stringIcNS_11char_traitsIcEENS_9allocatorIcEEEEP9Temp_tempEEPvEEEptB7v160006Ev, symObjAddr: 0x21ECC, symBinAddr: 0x1000244C4, symSize: 0x30 }
  - { offsetInCU: 0x4AD01, offset: 0x4AD01, size: 0x8, addend: 0x0, symName: __ZNSt3__112__hash_tableINS_17__hash_value_typeINS_12basic_stringIcNS_11char_traitsIcEENS_9allocatorIcEEEEP9Temp_tempEENS_22__unordered_map_hasherIS7_SA_NS_4hashIS7_EENS_8equal_toIS7_EELb1EEENS_21__unordered_map_equalIS7_SA_SF_SD_Lb1EEENS5_ISA_EEE13hash_functionB7v160006Ev, symObjAddr: 0x21EFC, symBinAddr: 0x1000244F4, symSize: 0x28 }
  - { offsetInCU: 0x4AD26, offset: 0x4AD26, size: 0x8, addend: 0x0, symName: __ZNKSt3__122__unordered_map_hasherINS_12basic_stringIcNS_11char_traitsIcEENS_9allocatorIcEEEENS_17__hash_value_typeIS6_P9Temp_tempEENS_4hashIS6_EENS_8equal_toIS6_EELb1EEclB7v160006ERKS6_, symObjAddr: 0x21F24, symBinAddr: 0x10002451C, symSize: 0x2C }
  - { offsetInCU: 0x4AD5A, offset: 0x4AD5A, size: 0x8, addend: 0x0, symName: __ZNKSt3__112__hash_tableINS_17__hash_value_typeINS_12basic_stringIcNS_11char_traitsIcEENS_9allocatorIcEEEEP9Temp_tempEENS_22__unordered_map_hasherIS7_SA_NS_4hashIS7_EENS_8equal_toIS7_EELb1EEENS_21__unordered_map_equalIS7_SA_SF_SD_Lb1EEENS5_ISA_EEE12bucket_countB7v160006Ev, symObjAddr: 0x21F50, symBinAddr: 0x100024548, symSize: 0x28 }
  - { offsetInCU: 0x4AD7F, offset: 0x4AD7F, size: 0x8, addend: 0x0, symName: __ZNKSt3__110unique_ptrIA_PNS_16__hash_node_baseIPNS_11__hash_nodeINS_17__hash_value_typeINS_12basic_stringIcNS_11char_traitsIcEENS_9allocatorIcEEEEP9Temp_tempEEPvEEEENS_25__bucket_list_deallocatorINS7_ISH_EEEEEixB7v160006Em, symObjAddr: 0x21F78, symBinAddr: 0x100024570, symSize: 0x34 }
  - { offsetInCU: 0x4ADB3, offset: 0x4ADB3, size: 0x8, addend: 0x0, symName: __ZNKSt3__116__hash_node_baseIPNS_11__hash_nodeINS_17__hash_value_typeINS_12basic_stringIcNS_11char_traitsIcEENS_9allocatorIcEEEEP9Temp_tempEEPvEEE6__hashB7v160006Ev, symObjAddr: 0x21FAC, symBinAddr: 0x1000245A4, symSize: 0x18 }
  - { offsetInCU: 0x4ADD8, offset: 0x4ADD8, size: 0x8, addend: 0x0, symName: __ZNSt3__112__hash_tableINS_17__hash_value_typeINS_12basic_stringIcNS_11char_traitsIcEENS_9allocatorIcEEEEP9Temp_tempEENS_22__unordered_map_hasherIS7_SA_NS_4hashIS7_EENS_8equal_toIS7_EELb1EEENS_21__unordered_map_equalIS7_SA_SF_SD_Lb1EEENS5_ISA_EEE6key_eqB7v160006Ev, symObjAddr: 0x21FC4, symBinAddr: 0x1000245BC, symSize: 0x28 }
  - { offsetInCU: 0x4ADFD, offset: 0x4ADFD, size: 0x8, addend: 0x0, symName: __ZNKSt3__121__unordered_map_equalINS_12basic_stringIcNS_11char_traitsIcEENS_9allocatorIcEEEENS_17__hash_value_typeIS6_P9Temp_tempEENS_8equal_toIS6_EENS_4hashIS6_EELb1EEclB7v160006ERKSA_RKS6_, symObjAddr: 0x21FEC, symBinAddr: 0x1000245E4, symSize: 0x48 }
  - { offsetInCU: 0x4AE3F, offset: 0x4AE3F, size: 0x8, addend: 0x0, symName: __ZNSt3__112__hash_tableINS_17__hash_value_typeINS_12basic_stringIcNS_11char_traitsIcEENS_9allocatorIcEEEEP9Temp_tempEENS_22__unordered_map_hasherIS7_SA_NS_4hashIS7_EENS_8equal_toIS7_EELb1EEENS_21__unordered_map_equalIS7_SA_SF_SD_Lb1EEENS5_ISA_EEE21__construct_node_hashIRKNS_21piecewise_construct_tEJNS_5tupleIJRKS7_EEENSP_IJEEEEEENS_10unique_ptrINS_11__hash_nodeISA_PvEENS_22__hash_node_destructorINS5_ISX_EEEEEEmOT_DpOT0_, symObjAddr: 0x22034, symBinAddr: 0x10002462C, symSize: 0x150 }
  - { offsetInCU: 0x4AEDA, offset: 0x4AEDA, size: 0x8, addend: 0x0, symName: __ZNSt3__112__hash_tableINS_17__hash_value_typeINS_12basic_stringIcNS_11char_traitsIcEENS_9allocatorIcEEEEP9Temp_tempEENS_22__unordered_map_hasherIS7_SA_NS_4hashIS7_EENS_8equal_toIS7_EELb1EEENS_21__unordered_map_equalIS7_SA_SF_SD_Lb1EEENS5_ISA_EEE4sizeB7v160006Ev, symObjAddr: 0x22184, symBinAddr: 0x10002477C, symSize: 0x28 }
  - { offsetInCU: 0x4AEFF, offset: 0x4AEFF, size: 0x8, addend: 0x0, symName: __ZNSt3__112__hash_tableINS_17__hash_value_typeINS_12basic_stringIcNS_11char_traitsIcEENS_9allocatorIcEEEEP9Temp_tempEENS_22__unordered_map_hasherIS7_SA_NS_4hashIS7_EENS_8equal_toIS7_EELb1EEENS_21__unordered_map_equalIS7_SA_SF_SD_Lb1EEENS5_ISA_EEE15max_load_factorB7v160006Ev, symObjAddr: 0x221AC, symBinAddr: 0x1000247A4, symSize: 0x28 }
  - { offsetInCU: 0x4AF24, offset: 0x4AF24, size: 0x8, addend: 0x0, symName: __ZNSt3__112__hash_tableINS_17__hash_value_typeINS_12basic_stringIcNS_11char_traitsIcEENS_9allocatorIcEEEEP9Temp_tempEENS_22__unordered_map_hasherIS7_SA_NS_4hashIS7_EENS_8equal_toIS7_EELb1EEENS_21__unordered_map_equalIS7_SA_SF_SD_Lb1EEENS5_ISA_EEE15__rehash_uniqueB7v160006Em, symObjAddr: 0x221D4, symBinAddr: 0x1000247CC, symSize: 0x2C }
  - { offsetInCU: 0x4AF58, offset: 0x4AF58, size: 0x8, addend: 0x0, symName: __ZNSt3__116__hash_node_baseIPNS_11__hash_nodeINS_17__hash_value_typeINS_12basic_stringIcNS_11char_traitsIcEENS_9allocatorIcEEEEP9Temp_tempEEPvEEE5__ptrB7v160006Ev, symObjAddr: 0x22200, symBinAddr: 0x1000247F8, symSize: 0x24 }
  - { offsetInCU: 0x4AF7D, offset: 0x4AF7D, size: 0x8, addend: 0x0, symName: __ZNKSt3__110unique_ptrINS_11__hash_nodeINS_17__hash_value_typeINS_12basic_stringIcNS_11char_traitsIcEENS_9allocatorIcEEEEP9Temp_tempEEPvEENS_22__hash_node_destructorINS6_ISD_EEEEEptB7v160006Ev, symObjAddr: 0x22224, symBinAddr: 0x10002481C, symSize: 0x28 }
  - { offsetInCU: 0x4AFA2, offset: 0x4AFA2, size: 0x8, addend: 0x0, symName: __ZNKSt3__110unique_ptrINS_11__hash_nodeINS_17__hash_value_typeINS_12basic_stringIcNS_11char_traitsIcEENS_9allocatorIcEEEEP9Temp_tempEEPvEENS_22__hash_node_destructorINS6_ISD_EEEEE3getB7v160006Ev, symObjAddr: 0x2224C, symBinAddr: 0x100024844, symSize: 0x28 }
  - { offsetInCU: 0x4AFC7, offset: 0x4AFC7, size: 0x8, addend: 0x0, symName: __ZNSt3__110unique_ptrINS_11__hash_nodeINS_17__hash_value_typeINS_12basic_stringIcNS_11char_traitsIcEENS_9allocatorIcEEEEP9Temp_tempEEPvEENS_22__hash_node_destructorINS6_ISD_EEEEE7releaseB7v160006Ev, symObjAddr: 0x22274, symBinAddr: 0x10002486C, symSize: 0x44 }
  - { offsetInCU: 0x4AFFB, offset: 0x4AFFB, size: 0x8, addend: 0x0, symName: __ZNSt3__110unique_ptrINS_11__hash_nodeINS_17__hash_value_typeINS_12basic_stringIcNS_11char_traitsIcEENS_9allocatorIcEEEEP9Temp_tempEEPvEENS_22__hash_node_destructorINS6_ISD_EEEEED1B7v160006Ev, symObjAddr: 0x222B8, symBinAddr: 0x1000248B0, symSize: 0x2C }
  - { offsetInCU: 0x4B024, offset: 0x4B024, size: 0x8, addend: 0x0, symName: __ZNSt3__115__hash_iteratorIPNS_11__hash_nodeINS_17__hash_value_typeINS_12basic_stringIcNS_11char_traitsIcEENS_9allocatorIcEEEEP9Temp_tempEEPvEEEC1B7v160006EPNS_16__hash_node_baseISE_EEPKv, symObjAddr: 0x222E4, symBinAddr: 0x1000248DC, symSize: 0x3C }
  - { offsetInCU: 0x4B070, offset: 0x4B070, size: 0x8, addend: 0x0, symName: __ZNSt3__14pairINS_15__hash_iteratorIPNS_11__hash_nodeINS_17__hash_value_typeINS_12basic_stringIcNS_11char_traitsIcEENS_9allocatorIcEEEEP9Temp_tempEEPvEEEEbEC1B7v160006ISG_RbLSD_0EEEOT_OT0_, symObjAddr: 0x22320, symBinAddr: 0x100024918, symSize: 0x3C }
  - { offsetInCU: 0x4B0CD, offset: 0x4B0CD, size: 0x8, addend: 0x0, symName: __ZNSt3__117__compressed_pairImNS_22__unordered_map_hasherINS_12basic_stringIcNS_11char_traitsIcEENS_9allocatorIcEEEENS_17__hash_value_typeIS7_P9Temp_tempEENS_4hashIS7_EENS_8equal_toIS7_EELb1EEEE6secondB7v160006Ev, symObjAddr: 0x2235C, symBinAddr: 0x100024954, symSize: 0x24 }
  - { offsetInCU: 0x4B0F2, offset: 0x4B0F2, size: 0x8, addend: 0x0, symName: __ZNSt3__122__compressed_pair_elemINS_22__unordered_map_hasherINS_12basic_stringIcNS_11char_traitsIcEENS_9allocatorIcEEEENS_17__hash_value_typeIS7_P9Temp_tempEENS_4hashIS7_EENS_8equal_toIS7_EELb1EEELi1ELb1EE5__getB7v160006Ev, symObjAddr: 0x22380, symBinAddr: 0x100024978, symSize: 0x14 }
  - { offsetInCU: 0x4B117, offset: 0x4B117, size: 0x8, addend: 0x0, symName: __ZNKSt3__110unique_ptrIA_PNS_16__hash_node_baseIPNS_11__hash_nodeINS_17__hash_value_typeINS_12basic_stringIcNS_11char_traitsIcEENS_9allocatorIcEEEEP9Temp_tempEEPvEEEENS_25__bucket_list_deallocatorINS7_ISH_EEEEE11get_deleterB7v160006Ev, symObjAddr: 0x22394, symBinAddr: 0x10002498C, symSize: 0x24 }
  - { offsetInCU: 0x4B13C, offset: 0x4B13C, size: 0x8, addend: 0x0, symName: __ZNKSt3__125__bucket_list_deallocatorINS_9allocatorIPNS_16__hash_node_baseIPNS_11__hash_nodeINS_17__hash_value_typeINS_12basic_stringIcNS_11char_traitsIcEENS1_IcEEEEP9Temp_tempEEPvEEEEEEE4sizeB7v160006Ev, symObjAddr: 0x223B8, symBinAddr: 0x1000249B0, symSize: 0x28 }
  - { offsetInCU: 0x4B161, offset: 0x4B161, size: 0x8, addend: 0x0, symName: __ZNKSt3__117__compressed_pairIPPNS_16__hash_node_baseIPNS_11__hash_nodeINS_17__hash_value_typeINS_12basic_stringIcNS_11char_traitsIcEENS_9allocatorIcEEEEP9Temp_tempEEPvEEEENS_25__bucket_list_deallocatorINS7_ISH_EEEEE6secondB7v160006Ev, symObjAddr: 0x223E0, symBinAddr: 0x1000249D8, symSize: 0x28 }
  - { offsetInCU: 0x4B186, offset: 0x4B186, size: 0x8, addend: 0x0, symName: __ZNKSt3__122__compressed_pair_elemINS_25__bucket_list_deallocatorINS_9allocatorIPNS_16__hash_node_baseIPNS_11__hash_nodeINS_17__hash_value_typeINS_12basic_stringIcNS_11char_traitsIcEENS2_IcEEEEP9Temp_tempEEPvEEEEEEEELi1ELb0EE5__getB7v160006Ev, symObjAddr: 0x22408, symBinAddr: 0x100024A00, symSize: 0x14 }
  - { offsetInCU: 0x4B1AB, offset: 0x4B1AB, size: 0x8, addend: 0x0, symName: __ZNKSt3__117__compressed_pairImNS_9allocatorIPNS_16__hash_node_baseIPNS_11__hash_nodeINS_17__hash_value_typeINS_12basic_stringIcNS_11char_traitsIcEENS1_IcEEEEP9Temp_tempEEPvEEEEEEE5firstB7v160006Ev, symObjAddr: 0x2241C, symBinAddr: 0x100024A14, symSize: 0x24 }
  - { offsetInCU: 0x4B1D0, offset: 0x4B1D0, size: 0x8, addend: 0x0, symName: __ZNKSt3__117__compressed_pairIPPNS_16__hash_node_baseIPNS_11__hash_nodeINS_17__hash_value_typeINS_12basic_stringIcNS_11char_traitsIcEENS_9allocatorIcEEEEP9Temp_tempEEPvEEEENS_25__bucket_list_deallocatorINS7_ISH_EEEEE5firstB7v160006Ev, symObjAddr: 0x22440, symBinAddr: 0x100024A38, symSize: 0x24 }
  - { offsetInCU: 0x4B1F5, offset: 0x4B1F5, size: 0x8, addend: 0x0, symName: __ZNKSt3__122__compressed_pair_elemIPPNS_16__hash_node_baseIPNS_11__hash_nodeINS_17__hash_value_typeINS_12basic_stringIcNS_11char_traitsIcEENS_9allocatorIcEEEEP9Temp_tempEEPvEEEELi0ELb0EE5__getB7v160006Ev, symObjAddr: 0x22464, symBinAddr: 0x100024A5C, symSize: 0x14 }
  - { offsetInCU: 0x4B21A, offset: 0x4B21A, size: 0x8, addend: 0x0, symName: __ZNSt3__117__compressed_pairIfNS_21__unordered_map_equalINS_12basic_stringIcNS_11char_traitsIcEENS_9allocatorIcEEEENS_17__hash_value_typeIS7_P9Temp_tempEENS_8equal_toIS7_EENS_4hashIS7_EELb1EEEE6secondB7v160006Ev, symObjAddr: 0x22478, symBinAddr: 0x100024A70, symSize: 0x24 }
  - { offsetInCU: 0x4B23F, offset: 0x4B23F, size: 0x8, addend: 0x0, symName: __ZNSt3__122__compressed_pair_elemINS_21__unordered_map_equalINS_12basic_stringIcNS_11char_traitsIcEENS_9allocatorIcEEEENS_17__hash_value_typeIS7_P9Temp_tempEENS_8equal_toIS7_EENS_4hashIS7_EELb1EEELi1ELb1EE5__getB7v160006Ev, symObjAddr: 0x2249C, symBinAddr: 0x100024A94, symSize: 0x14 }
  - { offsetInCU: 0x4B264, offset: 0x4B264, size: 0x8, addend: 0x0, symName: __ZNKSt3__117__hash_value_typeINS_12basic_stringIcNS_11char_traitsIcEENS_9allocatorIcEEEEP9Temp_tempE11__get_valueB7v160006Ev, symObjAddr: 0x224B0, symBinAddr: 0x100024AA8, symSize: 0x24 }
  - { offsetInCU: 0x4B289, offset: 0x4B289, size: 0x8, addend: 0x0, symName: __ZNSt3__116allocator_traitsINS_9allocatorINS_11__hash_nodeINS_17__hash_value_typeINS_12basic_stringIcNS_11char_traitsIcEENS1_IcEEEEP9Temp_tempEEPvEEEEE8allocateB7v160006ERSE_m, symObjAddr: 0x2250C, symBinAddr: 0x100024B04, symSize: 0x2C }
  - { offsetInCU: 0x4B2BC, offset: 0x4B2BC, size: 0x8, addend: 0x0, symName: __ZNSt3__122__hash_node_destructorINS_9allocatorINS_11__hash_nodeINS_17__hash_value_typeINS_12basic_stringIcNS_11char_traitsIcEENS1_IcEEEEP9Temp_tempEEPvEEEEEC1B7v160006ERSE_b, symObjAddr: 0x22538, symBinAddr: 0x100024B30, symSize: 0x48 }
  - { offsetInCU: 0x4B308, offset: 0x4B308, size: 0x8, addend: 0x0, symName: __ZNSt3__110unique_ptrINS_11__hash_nodeINS_17__hash_value_typeINS_12basic_stringIcNS_11char_traitsIcEENS_9allocatorIcEEEEP9Temp_tempEEPvEENS_22__hash_node_destructorINS6_ISD_EEEEEC1B7v160006ILb1EvEEPSD_NS_16__dependent_typeINS_27__unique_ptr_deleter_sfinaeISG_EEXT_EE20__good_rval_ref_typeE, symObjAddr: 0x22580, symBinAddr: 0x100024B78, symSize: 0x3C }
  - { offsetInCU: 0x4B358, offset: 0x4B358, size: 0x8, addend: 0x0, symName: __ZNSt3__116allocator_traitsINS_9allocatorINS_11__hash_nodeINS_17__hash_value_typeINS_12basic_stringIcNS_11char_traitsIcEENS1_IcEEEEP9Temp_tempEEPvEEEEE9constructB7v160006INS_4pairIKS8_SA_EEJRKNS_21piecewise_construct_tENS_5tupleIJRSI_EEENSN_IJEEEEvEEvRSE_PT_DpOT0_, symObjAddr: 0x225BC, symBinAddr: 0x100024BB4, symSize: 0x44 }
  - { offsetInCU: 0x4B3D7, offset: 0x4B3D7, size: 0x8, addend: 0x0, symName: __ZNSt3__110unique_ptrINS_11__hash_nodeINS_17__hash_value_typeINS_12basic_stringIcNS_11char_traitsIcEENS_9allocatorIcEEEEP9Temp_tempEEPvEENS_22__hash_node_destructorINS6_ISD_EEEEE11get_deleterB7v160006Ev, symObjAddr: 0x22600, symBinAddr: 0x100024BF8, symSize: 0x24 }
  - { offsetInCU: 0x4B3FC, offset: 0x4B3FC, size: 0x8, addend: 0x0, symName: __ZNSt3__19allocatorINS_11__hash_nodeINS_17__hash_value_typeINS_12basic_stringIcNS_11char_traitsIcEENS0_IcEEEEP9Temp_tempEEPvEEE8allocateB7v160006Em, symObjAddr: 0x22624, symBinAddr: 0x100024C1C, symSize: 0x5C }
  - { offsetInCU: 0x4B439, offset: 0x4B439, size: 0x8, addend: 0x0, symName: __ZNSt3__116allocator_traitsINS_9allocatorINS_11__hash_nodeINS_17__hash_value_typeINS_12basic_stringIcNS_11char_traitsIcEENS1_IcEEEEP9Temp_tempEEPvEEEEE8max_sizeB7v160006ISE_vEEmRKSE_, symObjAddr: 0x22680, symBinAddr: 0x100024C78, symSize: 0x24 }
  - { offsetInCU: 0x4B467, offset: 0x4B467, size: 0x8, addend: 0x0, symName: __ZNKSt3__19allocatorINS_11__hash_nodeINS_17__hash_value_typeINS_12basic_stringIcNS_11char_traitsIcEENS0_IcEEEEP9Temp_tempEEPvEEE8max_sizeB7v160006Ev, symObjAddr: 0x226A4, symBinAddr: 0x100024C9C, symSize: 0x18 }
  - { offsetInCU: 0x4B48C, offset: 0x4B48C, size: 0x8, addend: 0x0, symName: __ZNSt3__122__hash_node_destructorINS_9allocatorINS_11__hash_nodeINS_17__hash_value_typeINS_12basic_stringIcNS_11char_traitsIcEENS1_IcEEEEP9Temp_tempEEPvEEEEEC2B7v160006ERSE_b, symObjAddr: 0x226BC, symBinAddr: 0x100024CB4, symSize: 0x38 }
  - { offsetInCU: 0x4B4D3, offset: 0x4B4D3, size: 0x8, addend: 0x0, symName: __ZNSt3__110unique_ptrINS_11__hash_nodeINS_17__hash_value_typeINS_12basic_stringIcNS_11char_traitsIcEENS_9allocatorIcEEEEP9Temp_tempEEPvEENS_22__hash_node_destructorINS6_ISD_EEEEEC2B7v160006ILb1EvEEPSD_NS_16__dependent_typeINS_27__unique_ptr_deleter_sfinaeISG_EEXT_EE20__good_rval_ref_typeE, symObjAddr: 0x226F4, symBinAddr: 0x100024CEC, symSize: 0x48 }
  - { offsetInCU: 0x4B523, offset: 0x4B523, size: 0x8, addend: 0x0, symName: __ZNSt3__117__compressed_pairIPNS_11__hash_nodeINS_17__hash_value_typeINS_12basic_stringIcNS_11char_traitsIcEENS_9allocatorIcEEEEP9Temp_tempEEPvEENS_22__hash_node_destructorINS6_ISD_EEEEEC1B7v160006IRSE_SH_EEOT_OT0_, symObjAddr: 0x2273C, symBinAddr: 0x100024D34, symSize: 0x3C }
  - { offsetInCU: 0x4B57A, offset: 0x4B57A, size: 0x8, addend: 0x0, symName: __ZNSt3__117__compressed_pairIPNS_11__hash_nodeINS_17__hash_value_typeINS_12basic_stringIcNS_11char_traitsIcEENS_9allocatorIcEEEEP9Temp_tempEEPvEENS_22__hash_node_destructorINS6_ISD_EEEEEC2B7v160006IRSE_SH_EEOT_OT0_, symObjAddr: 0x22778, symBinAddr: 0x100024D70, symSize: 0x48 }
  - { offsetInCU: 0x4B5D1, offset: 0x4B5D1, size: 0x8, addend: 0x0, symName: __ZNSt3__122__compressed_pair_elemIPNS_11__hash_nodeINS_17__hash_value_typeINS_12basic_stringIcNS_11char_traitsIcEENS_9allocatorIcEEEEP9Temp_tempEEPvEELi0ELb0EEC2B7v160006IRSE_vEEOT_, symObjAddr: 0x227C0, symBinAddr: 0x100024DB8, symSize: 0x24 }
  - { offsetInCU: 0x4B612, offset: 0x4B612, size: 0x8, addend: 0x0, symName: __ZNSt3__122__compressed_pair_elemINS_22__hash_node_destructorINS_9allocatorINS_11__hash_nodeINS_17__hash_value_typeINS_12basic_stringIcNS_11char_traitsIcEENS2_IcEEEEP9Temp_tempEEPvEEEEEELi1ELb0EEC2B7v160006ISG_vEEOT_, symObjAddr: 0x227E4, symBinAddr: 0x100024DDC, symSize: 0x24 }
  - { offsetInCU: 0x4B653, offset: 0x4B653, size: 0x8, addend: 0x0, symName: __ZNSt3__19allocatorINS_11__hash_nodeINS_17__hash_value_typeINS_12basic_stringIcNS_11char_traitsIcEENS0_IcEEEEP9Temp_tempEEPvEEE9constructB7v160006INS_4pairIKS7_S9_EEJRKNS_21piecewise_construct_tENS_5tupleIJRSG_EEENSL_IJEEEEEEvPT_DpOT0_, symObjAddr: 0x22808, symBinAddr: 0x100024E00, symSize: 0x44 }
  - { offsetInCU: 0x4B6CE, offset: 0x4B6CE, size: 0x8, addend: 0x0, symName: __ZNSt3__14pairIKNS_12basic_stringIcNS_11char_traitsIcEENS_9allocatorIcEEEEP9Temp_tempEC1B7v160006IJRS7_EJEEENS_21piecewise_construct_tENS_5tupleIJDpT_EEENSE_IJDpT0_EEE, symObjAddr: 0x2284C, symBinAddr: 0x100024E44, symSize: 0x3C }
  - { offsetInCU: 0x4B734, offset: 0x4B734, size: 0x8, addend: 0x0, symName: __ZNSt3__14pairIKNS_12basic_stringIcNS_11char_traitsIcEENS_9allocatorIcEEEEP9Temp_tempEC1B7v160006IJRS7_EJEJLm0EEJEEENS_21piecewise_construct_tERNS_5tupleIJDpT_EEERNSE_IJDpT0_EEENS_15__tuple_indicesIJXspT1_EEEENSN_IJXspT2_EEEE, symObjAddr: 0x22888, symBinAddr: 0x100024E80, symSize: 0x3C }
  - { offsetInCU: 0x4B7C0, offset: 0x4B7C0, size: 0x8, addend: 0x0, symName: __ZNSt3__14pairIKNS_12basic_stringIcNS_11char_traitsIcEENS_9allocatorIcEEEEP9Temp_tempEC2B7v160006IJRS7_EJEJLm0EEJEEENS_21piecewise_construct_tERNS_5tupleIJDpT_EEERNSE_IJDpT0_EEENS_15__tuple_indicesIJXspT1_EEEENSN_IJXspT2_EEEE, symObjAddr: 0x228C4, symBinAddr: 0x100024EBC, symSize: 0x48 }
